 Game

 Timestamp is 66471af0 (Fri May 17 15:53:04 2024)

 Preferred load address is 00400000

 Start         Length     Name                   Class
 0001:00000000 000a14a8H .text                   CODE
 0001:000a14b0 0000947fH .text$x                 CODE
 0002:00000000 000003ccH .idata$5                DATA
 0002:000003d0 0000234cH .rdata                  DATA
 0002:00002720 00008ea8H .xdata$x                DATA
 0002:0000b5c8 000000c8H .idata$2                DATA
 0002:0000b690 00000014H .idata$3                DATA
 0002:0000b6a4 000003ccH .idata$4                DATA
 0002:0000ba70 0000174aH .idata$6                DATA
 0002:0000d1ba 00000000H .edata                  DATA
 0003:00000000 00000004H .CRT$XCA                DATA
 0003:00000004 00000068H .CRT$XCU                DATA
 0003:0000006c 00000004H .CRT$XCZ                DATA
 0003:00000070 00000004H .CRT$XIA                DATA
 0003:00000074 00000004H .CRT$XIZ                DATA
 0003:00000080 0000c056H .data                   DATA
 0003:0000c0d8 000046d4H .bss                    DATA
 0004:00000000 000000a0H .rsrc$01                DATA
 0004:000000a0 000008c0H .rsrc$02                DATA

  Address         Publics by Value              Rva+Base     Lib:Object

 0001:00000000       ?ALW_GetWndPosition@@YAXAAH0HH_N1@Z 00401000 f   AutoLocateWnd.obj
 0001:00000119       ?gGetComClassFactory@@YAPAVKComClassFactory@@XZ 00401119 f   ComWindow.obj
 0001:00000123       ??0KComClassFactory@@QAE@XZ 00401123 f   ComWindow.obj
 0001:0000013b       ?FindComClass@KComClassFactory@@QAEPAUKComClassInfo@@PBD@Z 0040113b f   ComWindow.obj
 0001:00000195       ?FindComClass@KComClassFactory@@QAEPAUKComClassInfo@@PBU2@@Z 00401195 f   ComWindow.obj
 0001:000001b8       ?RegisterComClass@KComClassFactory@@QAEHABUKComClassInfo@@@Z 004011b8 f   ComWindow.obj
 0001:00000213       ?CreateComObject@KComClassFactory@@QAEPAVKWndWindow@@PBD@Z 00401213 f   ComWindow.obj
 0001:00000269       ?SetHoverObjDescColor@@YAXI@Z 00401269 f   MouseHover.obj
 0001:00000276       ?SetMouseHoverObjectDesc@@YAXPAXHIIHHH@Z 00401276 f   MouseHover.obj
 0001:00000482       ?DrawDraggingGameObjFunc@@YAHHHABUKUiDraggedObject@@H@Z 00401482 f   MouseHover.obj
 0001:000004b4       ??0KMouseOver@@QAE@XZ      004014b4 f   MouseHover.obj
 0001:000005e3       ?IsMoseHoverWndObj@KMouseOver@@QAEHPAXH@Z 004015e3 f   MouseHover.obj
 0001:00000621       ?CancelMouseHoverInfo@KMouseOver@@QAEXXZ 00401621 f   MouseHover.obj
 0001:00000698       ?SetMouseHoverInfo@KMouseOver@@QAEXPAXHHH_N1@Z 00401698 f   MouseHover.obj
 0001:00000739       ?SetMouseHoverTitle@KMouseOver@@QAEXPBDHI@Z 00401739 f   MouseHover.obj
 0001:000007b9       ?SetMouseHoverProp@KMouseOver@@QAEXPBDHI@Z 004017b9 f   MouseHover.obj
 0001:00000839       ?SetMouseHoverDesc@KMouseOver@@QAEXPBDHI@Z 00401839 f   MouseHover.obj
 0001:000008b9       ?Update@KMouseOver@@AAEXHH@Z 004018b9 f   MouseHover.obj
 0001:00000b00       ?UpdateCursorPos@KMouseOver@@QAEXHH@Z 00401b00 f   MouseHover.obj
 0001:00000b40       ?OnWndClosed@KMouseOver@@QAEXPAX@Z 00401b40 f   MouseHover.obj
 0001:00000b69       ?LoadScheme@KMouseOver@@QAEXPBD@Z 00401b69 f   MouseHover.obj
 0001:00000eb8       ?PaintMouseHoverInfo@KMouseOver@@QAEXXZ 00401eb8 f   MouseHover.obj
 0001:00001280       ?GetStatus@KUiBase@@QAE?AW4UISYS_STATUS@@XZ 00402280 f i MouseHover.obj
 0001:00001290       ??0KOutputTextParam@@QAE@XZ 00402290 f i MouseHover.obj
 0001:000012f0       ?OnWndDelete@KPopupMenu@@SAXPAVKWndWindow@@@Z 004022f0 f   PopupMenu.obj
 0001:00001305       ?Popup@KPopupMenu@@SAXPAUKPopupMenuData@@PAVKWndWindow@@I@Z 00402305 f   PopupMenu.obj
 0001:000017a4       ?PaintMenu@KPopupMenu@@SAXXZ 004027a4 f   PopupMenu.obj
 0001:00002081       ?HandleInput@KPopupMenu@@SAHIIH@Z 00403081 f   PopupMenu.obj
 0001:000021c3       ?SelectItem@KPopupMenu@@CA_NH_N@Z 004031c3 f   PopupMenu.obj
 0001:000022ad       ?SelectItem@KPopupMenu@@CA_NHH_N@Z 004032ad f   PopupMenu.obj
 0001:00002489       ?Cancel@KPopupMenu@@SAXXZ  00403489 f   PopupMenu.obj
 0001:000024cd       ?InitMenuData@KPopupMenu@@SAXPAUKPopupMenuData@@H@Z 004034cd f   PopupMenu.obj
 0001:00002618       ?LoadTheme@KPopupMenu@@SAXPBD@Z 00403618 f   PopupMenu.obj
 0001:000029d0       ?OutputTabSplitText@@YAHPBDHHHPAUKOutputTextParam@@@Z 004039d0 f   SpecialFuncs.obj
 0001:00002bb1       ?SetScrPicPath@@YA_NPBD@Z  00403bb1 f   SpecialFuncs.obj
 0001:00002c5e       ?GetAPrintScreenFileName@@YA_NPADH@Z 00403c5e f   SpecialFuncs.obj
 0001:00002caf       ?SaveScreenToFile@@YAXW4ScreenFileType@@I@Z 00403caf f   SpecialFuncs.obj
 0001:00002d80       ??0KInlinePicSink@@QAE@XZ  00403d80 f   TextPic.obj
 0001:00002e1c       ?Init@KInlinePicSink@@QAEHPAUiRepresentShell@@@Z 00403e1c f   TextPic.obj
 0001:00003131       ?UnInit@KInlinePicSink@@QAEHXZ 00404131 f   TextPic.obj
 0001:0000317f       ?GetPicSize@KInlinePicSink@@UAEJGAAH0@Z 0040417f f   TextPic.obj
 0001:000032ad       ?DrawPic@KInlinePicSink@@UAEJGHH@Z 004042ad f   TextPic.obj
 0001:000033d3       ?AddCustomInlinePic@KInlinePicSink@@UAEJAAGPBD@Z 004043d3 f   TextPic.obj
 0001:000035c8       ?RemoveCustomInlinePic@KInlinePicSink@@UAEJG@Z 004045c8 f   TextPic.obj
 0001:00003660       ??0IInlinePicEngineSink@@QAE@XZ 00404660 f i TextPic.obj
 0001:00003680       ??0?$vector@UKUiImageRef@@V?$allocator@UKUiImageRef@@@std@@@std@@QAE@ABV?$allocator@UKUiImageRef@@@1@@Z 00404680 f i TextPic.obj
 0001:000036c0       ??1?$vector@UKUiImageRef@@V?$allocator@UKUiImageRef@@@std@@@std@@QAE@XZ 004046c0 f i TextPic.obj
 0001:00003730       ?size@?$vector@UKUiImageRef@@V?$allocator@UKUiImageRef@@@std@@@std@@QBEIXZ 00404730 f i TextPic.obj
 0001:00003770       ??A?$vector@UKUiImageRef@@V?$allocator@UKUiImageRef@@@std@@@std@@QAEAAUKUiImageRef@@I@Z 00404770 f i TextPic.obj
 0001:00003790       ?push_back@?$vector@UKUiImageRef@@V?$allocator@UKUiImageRef@@@std@@@std@@QAEXABUKUiImageRef@@@Z 00404790 f i TextPic.obj
 0001:000037c0       ??0?$vector@UKImageParam@@V?$allocator@UKImageParam@@@std@@@std@@QAE@ABV?$allocator@UKImageParam@@@1@@Z 004047c0 f i TextPic.obj
 0001:00003800       ??1?$vector@UKImageParam@@V?$allocator@UKImageParam@@@std@@@std@@QAE@XZ 00404800 f i TextPic.obj
 0001:00003870       ??A?$vector@UKImageParam@@V?$allocator@UKImageParam@@@std@@@std@@QAEAAUKImageParam@@I@Z 00404870 f i TextPic.obj
 0001:00003890       ?push_back@?$vector@UKImageParam@@V?$allocator@UKImageParam@@@std@@@std@@QAEXABUKImageParam@@@Z 00404890 f i TextPic.obj
 0001:000038c0       ?begin@?$vector@UKUiImageRef@@V?$allocator@UKUiImageRef@@@std@@@std@@QAEPAUKUiImageRef@@XZ 004048c0 f i TextPic.obj
 0001:000038e0       ?end@?$vector@UKUiImageRef@@V?$allocator@UKUiImageRef@@@std@@@std@@QAEPAUKUiImageRef@@XZ 004048e0 f i TextPic.obj
 0001:00003900       ?insert@?$vector@UKUiImageRef@@V?$allocator@UKUiImageRef@@@std@@@std@@QAEPAUKUiImageRef@@PAU3@ABU3@@Z 00404900 f i TextPic.obj
 0001:00003950       ?_Destroy@?$vector@UKUiImageRef@@V?$allocator@UKUiImageRef@@@std@@@std@@IAEXPAUKUiImageRef@@0@Z 00404950 f i TextPic.obj
 0001:00003980       ?deallocate@?$allocator@UKUiImageRef@@@std@@QAEXPAXI@Z 00404980 f i TextPic.obj
 0001:000039a0       ?begin@?$vector@UKImageParam@@V?$allocator@UKImageParam@@@std@@@std@@QAEPAUKImageParam@@XZ 004049a0 f i TextPic.obj
 0001:000039c0       ?end@?$vector@UKImageParam@@V?$allocator@UKImageParam@@@std@@@std@@QAEPAUKImageParam@@XZ 004049c0 f i TextPic.obj
 0001:000039e0       ?insert@?$vector@UKImageParam@@V?$allocator@UKImageParam@@@std@@@std@@QAEPAUKImageParam@@PAU3@ABU3@@Z 004049e0 f i TextPic.obj
 0001:00003a30       ?_Destroy@?$vector@UKImageParam@@V?$allocator@UKImageParam@@@std@@@std@@IAEXPAUKImageParam@@0@Z 00404a30 f i TextPic.obj
 0001:00003a60       ?deallocate@?$allocator@UKImageParam@@@std@@QAEXPAXI@Z 00404a60 f i TextPic.obj
 0001:00003a80       ?insert@?$vector@UKUiImageRef@@V?$allocator@UKUiImageRef@@@std@@@std@@QAEXPAUKUiImageRef@@IABU3@@Z 00404a80 f i TextPic.obj
 0001:00003ce0       ?destroy@?$allocator@UKUiImageRef@@@std@@QAEXPAUKUiImageRef@@@Z 00404ce0 f i TextPic.obj
 0001:00003d00       ?insert@?$vector@UKImageParam@@V?$allocator@UKImageParam@@@std@@@std@@QAEXPAUKImageParam@@IABU3@@Z 00404d00 f i TextPic.obj
 0001:00003f40       ?destroy@?$allocator@UKImageParam@@@std@@QAEXPAUKImageParam@@@Z 00404f40 f i TextPic.obj
 0001:00003f60       ?_Ucopy@?$vector@UKUiImageRef@@V?$allocator@UKUiImageRef@@@std@@@std@@IAEPAUKUiImageRef@@PBU3@0PAU3@@Z 00404f60 f i TextPic.obj
 0001:00003fb0       ?_Ufill@?$vector@UKUiImageRef@@V?$allocator@UKUiImageRef@@@std@@@std@@IAEXPAUKUiImageRef@@IABU3@@Z 00404fb0 f i TextPic.obj
 0001:00003ff0       ?allocate@?$allocator@UKUiImageRef@@@std@@QAEPAUKUiImageRef@@IPBX@Z 00404ff0 f i TextPic.obj
 0001:00004010       ?size@?$vector@UKImageParam@@V?$allocator@UKImageParam@@@std@@@std@@QBEIXZ 00405010 f i TextPic.obj
 0001:00004050       ?_Ucopy@?$vector@UKImageParam@@V?$allocator@UKImageParam@@@std@@@std@@IAEPAUKImageParam@@PBU3@0PAU3@@Z 00405050 f i TextPic.obj
 0001:00004090       ?_Ufill@?$vector@UKImageParam@@V?$allocator@UKImageParam@@@std@@@std@@IAEXPAUKImageParam@@IABU3@@Z 00405090 f i TextPic.obj
 0001:000040d0       ?allocate@?$allocator@UKImageParam@@@std@@QAEPAUKImageParam@@IPBX@Z 004050d0 f i TextPic.obj
 0001:000040f0       ?construct@?$allocator@UKUiImageRef@@@std@@QAEXPAUKUiImageRef@@ABU3@@Z 004050f0 f i TextPic.obj
 0001:00004110       ?construct@?$allocator@UKImageParam@@@std@@QAEXPAUKImageParam@@ABU3@@Z 00405110 f i TextPic.obj
 0001:00004130       ?fill@std@@YAXPAUKUiImageRef@@0ABU2@@Z 00405130 f i TextPic.obj
 0001:00004160       ?copy_backward@std@@YAPAUKUiImageRef@@PAU2@00@Z 00405160 f i TextPic.obj
 0001:000041a0       ?_Destroy@std@@YAXPAUKUiImageRef@@@Z 004051a0 f i TextPic.obj
 0001:000041b0       ?fill@std@@YAXPAUKImageParam@@0ABU2@@Z 004051b0 f i TextPic.obj
 0001:000041f0       ?copy_backward@std@@YAPAUKImageParam@@PAU2@00@Z 004051f0 f i TextPic.obj
 0001:00004240       ?_Destroy@std@@YAXPAUKImageParam@@@Z 00405240 f i TextPic.obj
 0001:00004250       ?_Allocate@std@@YAPAUKUiImageRef@@HPAU2@@Z 00405250 f i TextPic.obj
 0001:00004280       ?_Allocate@std@@YAPAUKImageParam@@HPAU2@@Z 00405280 f i TextPic.obj
 0001:000042b0       ?_Construct@std@@YAXPAUKUiImageRef@@ABU2@@Z 004052b0 f i TextPic.obj
 0001:00004300       ??2@YAPAXIPAX@Z            00405300 f i TextPic.obj
 0001:00004310       ?_Construct@std@@YAXPAUKImageParam@@ABU2@@Z 00405310 f i TextPic.obj
 0001:00004360       ??0KUiCursor@@QAE@XZ       00405360 f   UiCursor.obj
 0001:000043bf       ?Cleanup@KUiCursor@@QAEXXZ 004053bf f   UiCursor.obj
 0001:00004408       ??1KUiCursor@@QAE@XZ       00405408 f   UiCursor.obj
 0001:0000441b       ?SetPosition@KUiCursor@@QAEXHH@Z 0040541b f   UiCursor.obj
 0001:0000443a       ?GetPosition@KUiCursor@@QAEXAAH0@Z 0040543a f   UiCursor.obj
 0001:0000445d       ?KUiLoadCursor@@YAHPBDAAPAUHICON__@@@Z 0040545d f   UiCursor.obj
 0001:00004747       ?SetImage@KUiCursor@@QAEXHPBD@Z 00405747 f   UiCursor.obj
 0001:0000479c       ?SwitchImage@KUiCursor@@QAEHH@Z 0040579c f   UiCursor.obj
 0001:00004814       ?RestoreCursor@KUiCursor@@QAEXXZ 00405814 f   UiCursor.obj
 0001:0000482e       ?Paint@KUiCursor@@QAEXXZ   0040582e f   UiCursor.obj
 0001:00004839       ?Show@KUiCursor@@QAEXH@Z   00405839 f   UiCursor.obj
 0001:00004860       ?IR_GetCurrentTime@@YAIXZ  00405860 f   UiImage.obj
 0001:0000486a       ?IR_UpdateTime@@YAXXZ      0040586a f   UiImage.obj
 0001:0000487a       ?IR_InitUiImageRef@@YAXAAUKUiImageRef@@@Z 0040587a f   UiImage.obj
 0001:00004899       ?IR_InitUiImagePartRef@@YAXAAUKUiImagePartRef@@@Z 00405899 f   UiImage.obj
 0001:000048b8       ?IR_IsTimePassed@@YAHIAAI@Z 004058b8 f   UiImage.obj
 0001:000048e3       ?IR_GetRemainTime@@YAIII@Z 004058e3 f   UiImage.obj
 0001:00004908       ?IR_NextFrame@@YAHAAUKUiImageRef@@@Z 00405908 f   UiImage.obj
 0001:00004a32       ?IR_UpdateImagePart@@YAXAAUKUiImagePartRef@@HH@Z 00405a32 f   UiImage.obj
 0001:00004d12       ?IR_DrawImage@@YAXPAUKUiImageRef@@@Z 00405d12 f   UiImage.obj
 0001:00004d3b       ?IR_DrawImagePart@@YAXPAUKUiImagePartRef@@@Z 00405d3b f   UiImage.obj
 0001:00004d64       ?IR_GetSpritePixcelAlpha@@YAHAAUKUiImageRef@@HH@Z 00405d64 f   UiImage.obj
 0001:00004da9       ?IR_GetReferenceSpot@@YAXAAUKUiImageRef@@AAH1@Z 00405da9 f   UiImage.obj
 0001:00004e10       ?SetAllButtonTipTextColor@KWndButton@@SAXI@Z 00405e10 f   WndButton.obj
 0001:00004e1d       ?EnableAllButtonTip@KWndButton@@SAXH@Z 00405e1d f   WndButton.obj
 0001:00004e30       ??0KWndButton@@QAE@XZ      00405e30 f   WndButton.obj
 0001:00004ec7       ?Clone@KWndButton@@QAEXPAV1@@Z 00405ec7 f   WndButton.obj
 0001:00004fac       ?Init@KWndButton@@UAEHPAVKIniFile@@PBD@Z 00405fac f   WndButton.obj
 0001:00005326       ?IsButtonChecked@KWndButton@@QAEHXZ 00406326 f   WndButton.obj
 0001:00005344       ?CheckButton@KWndButton@@QAEXH@Z 00406344 f   WndButton.obj
 0001:0000541e       ?IsButtonActive@KWndButton@@QAEHXZ 0040641e f   WndButton.obj
 0001:0000543c       ?WndProc@KWndButton@@UAEHIIH@Z 0040643c f   WndButton.obj
 0001:000057df       ?GetToolTipInfo@KWndButton@@UAEHPADH@Z 004067df f   WndButton.obj
 0001:000058b2       ?SetToolTipInfo@KWndButton@@QAEHPADH@Z 004068b2 f   WndButton.obj
 0001:0000594c       ?PaintWindow@KWndButton@@UAEXXZ 0040694c f   WndButton.obj
 0001:00005a43       ?OnLBtnDown@KWndButton@@AAEX_N@Z 00406a43 f   WndButton.obj
 0001:00005c0e       ?OnRButtonDown@KWndButton@@AAEXXZ 00406c0e f   WndButton.obj
 0001:00005c5a       ?OnLBtnUp@KWndButton@@AAEXXZ 00406c5a f   WndButton.obj
 0001:00005ceb       ?OnLBtnDownMove@KWndButton@@AAEXXZ 00406ceb f   WndButton.obj
 0001:00005d40       ?Enable@KWndButton@@UAEXH@Z 00406d40 f   WndButton.obj
 0001:00005dc5       ??0KWndImageTextButton@@QAE@XZ 00406dc5 f   WndButton.obj
 0001:00005e50       ?Init@KWndImageTextButton@@UAEHPAVKIniFile@@PBD@Z 00406e50 f   WndButton.obj
 0001:00005fb7       ?Set2IntText@KWndImageTextButton@@QAEXHHD@Z 00406fb7 f   WndButton.obj
 0001:00005fde       ?SetIntText@KWndImageTextButton@@QAEXHD@Z 00406fde f   WndButton.obj
 0001:00006001       ?SetText@KWndImageTextButton@@QAEXPBDH@Z 00407001 f   WndButton.obj
 0001:00006024       ?GetText@KWndImageTextButton@@QAEHPADH@Z 00407024 f   WndButton.obj
 0001:00006047       ?Set2IntValue@KWndImageTextButton@@QAEXHH@Z 00407047 f   WndButton.obj
 0001:0000608e       ?SetWorldText@KWndImageTextButton@@QAEXHD@Z 0040708e f   WndButton.obj
 0001:000060c0       ?UpdateData@KWndWindow@@UAEXXZ 004070c0 f i WndButton.obj
 0001:000060d0       ?CloseWindow@KWndWindow@@UAEH_N@Z 004070d0 f i WndButton.obj
 0001:000060e0       ?Breathe@KWndWindow@@EAEXXZ 004070e0 f i WndButton.obj
 0001:000060f0       ?GetShortKey@KWndButton@@UAEPBDXZ 004070f0 f i WndButton.obj
 0001:00006100       ?OnButtonClick@KWndButton@@UAEXXZ 00407100 f i WndButton.obj
 0001:00006110       ??_GKWndButton@@UAEPAXI@Z  00407110 f i WndButton.obj
 0001:00006110       ??_EKWndButton@@UAEPAXI@Z  00407110 f i WndButton.obj
 0001:00006140       ??1KWndButton@@UAE@XZ      00407140 f i WndButton.obj
 0001:00006160       ??1KWndImage@@UAE@XZ       00407160 f i WndButton.obj
 0001:00006180       ?IsDisable@KWndWindow@@QAEHXZ 00407180 f i WndButton.obj
 0001:000061a0       ??_EKWndImageTextButton@@UAEPAXI@Z 004071a0 f i WndButton.obj
 0001:000061a0       ??_GKWndImageTextButton@@UAEPAXI@Z 004071a0 f i WndButton.obj
 0001:000061d0       ??1KWndMovingImage@@UAE@XZ 004071d0 f i WndButton.obj
 0001:000061f0       ??1KWndImagePart@@UAE@XZ   004071f0 f i WndButton.obj
 0001:00006210       ??1KWndImageTextButton@@UAE@XZ 00407210 f i WndButton.obj
 0001:00006290       ??1KWndText32@@UAE@XZ      00407290 f i WndButton.obj
 0001:000062b0       ??1KWndText@@UAE@XZ        004072b0 f i WndButton.obj
 0001:000062d0       ??0KWndChessPanel@@AAE@XZ  004072d0 f   WndChessPanel.obj
 0001:000062ef       ??1KWndChessPanel@@EAE@XZ  004072ef f   WndChessPanel.obj
 0001:0000630b       ?OpenWindow@KWndChessPanel@@SAPAV1@_N@Z 0040730b f   WndChessPanel.obj
 0001:000063ef       ?CloseWindow@KWndChessPanel@@SAX_N@Z 004073ef f   WndChessPanel.obj
 0001:00006433       ?Clear@KWndChessPanel@@SAXXZ 00407433 f   WndChessPanel.obj
 0001:00006438       ?GetIfVisible@KWndChessPanel@@SAPAV1@XZ 00407438 f   WndChessPanel.obj
 0001:0000645e       ?PaintWindow@KWndChessPanel@@UAEXXZ 0040745e f   WndChessPanel.obj
 0001:00006644       ?PtInWindow@KWndChessPanel@@UAEHHH@Z 00407644 f   WndChessPanel.obj
 0001:00006664       ?WndProc@KWndChessPanel@@UAEHIIH@Z 00407664 f   WndChessPanel.obj
 0001:0000668a       ?Initialize@KWndChessPanel@@AAEXXZ 0040768a f   WndChessPanel.obj
 0001:00006695       ?Init@KWndChessPanel@@UAEHPAVKIniFile@@PBD@Z 00407695 f   WndChessPanel.obj
 0001:000066c0       ??_GKWndChessPanel@@EAEPAXI@Z 004076c0 f i WndChessPanel.obj
 0001:000066c0       ??_EKWndChessPanel@@EAEPAXI@Z 004076c0 f i WndChessPanel.obj
 0001:00006731       ??0KWndEdit@@QAE@XZ        00407731 f   WndEdit.obj
 0001:000067c8       ??1KWndEdit@@UAE@XZ        004077c8 f   WndEdit.obj
 0001:000067e4       ?Clone@KWndEdit@@QAEXPAV1@@Z 004077e4 f   WndEdit.obj
 0001:00006859       ?Init@KWndEdit@@UAEHPAVKIniFile@@PBD@Z 00407859 f   WndEdit.obj
 0001:00006b6a       ?Enable@KWndEdit@@UAEXH@Z  00407b6a f   WndEdit.obj
 0001:00006bbc       ?WndProc@KWndEdit@@UAEHIIH@Z 00407bbc f   WndEdit.obj
 0001:00006e8a       ?SetColor@KWndEdit@@QAEXI@Z 00407e8a f   WndEdit.obj
 0001:00006ea0       ?InsertString@KWndEdit@@QAEHPBDH@Z 00407ea0 f   WndEdit.obj
 0001:00006f81       ?Paste@KWndEdit@@AAEHXZ    00407f81 f   WndEdit.obj
 0001:00006fdf       ?OnKeyDown@KWndEdit@@IAEHHH@Z 00407fdf f   WndEdit.obj
 0001:00007554       ?InsertChar@KWndEdit@@IAEHH@Z 00408554 f   WndEdit.obj
 0001:00007664       ?InsertChar@KWndEdit@@IAEHDD@Z 00408664 f   WndEdit.obj
 0001:00007786       ?UpdateData@KWndEdit@@EAEXXZ 00408786 f   WndEdit.obj
 0001:000077be       ?FmtForShow@KWndEdit@@AAEXXZ 004087be f   WndEdit.obj
 0001:00007aee       ?SplitStringLine@@YAHPADHH@Z 00408aee f   WndEdit.obj
 0001:00007bbd       ?PaintWindow@KWndEdit@@UAEXXZ 00408bbd f   WndEdit.obj
 0001:0000811a       ?SetTextPtr@KWndEdit@@IAEXPADH@Z 0040911a f   WndEdit.obj
 0001:00008175       ?SetText@KWndEdit@@QAEXPBD@Z 00409175 f   WndEdit.obj
 0001:00008211       ?ClearText@KWndEdit@@QAEX_N@Z 00409211 f   WndEdit.obj
 0001:00008275       ?SetIntText@KWndEdit@@QAEXH@Z 00409275 f   WndEdit.obj
 0001:000082a6       ?GetIntNumber@KWndEdit@@QAEHXZ 004092a6 f   WndEdit.obj
 0001:000082ce       ?GetText@KWndEdit@@QAEHPADH_N@Z 004092ce f   WndEdit.obj
 0001:000083a9       ?GetCaretPosition@KWndEdit@@QAEXPAH0@Z 004093a9 f   WndEdit.obj
 0001:000083f1       ??0KWndEdit32@@QAE@XZ      004093f1 f   WndEdit.obj
 0001:00008464       ??0KWndEdit512@@QAE@XZ     00409464 f   WndEdit.obj
 0001:000084e0       ??_GKWndEdit@@UAEPAXI@Z    004094e0 f i WndEdit.obj
 0001:000084e0       ??_EKWndEdit@@UAEPAXI@Z    004094e0 f i WndEdit.obj
 0001:00008510       ??_GKWndEdit32@@UAEPAXI@Z  00409510 f i WndEdit.obj
 0001:00008510       ??_EKWndEdit32@@UAEPAXI@Z  00409510 f i WndEdit.obj
 0001:00008540       ??1KWndEdit32@@UAE@XZ      00409540 f i WndEdit.obj
 0001:00008560       ??_GKWndEdit512@@UAEPAXI@Z 00409560 f i WndEdit.obj
 0001:00008560       ??_EKWndEdit512@@UAEPAXI@Z 00409560 f i WndEdit.obj
 0001:00008590       ??1KWndEdit512@@UAE@XZ     00409590 f i WndEdit.obj
 0001:000085b0       ??0KWndImage@@QAE@XZ       004095b0 f   WndImage.obj
 0001:0000860b       ?Clone@KWndImage@@QAEXPAV1@@Z 0040960b f   WndImage.obj
 0001:00008641       ?Init@KWndImage@@UAEHPAVKIniFile@@PBD@Z 00409641 f   WndImage.obj
 0001:0000881d       ?PtInWindow@KWndImage@@UAEHHH@Z 0040981d f   WndImage.obj
 0001:000088d5       ?SetFrame@KWndImage@@QAEXH@Z 004098d5 f   WndImage.obj
 0001:000088f0       ?SetMaxFrame@KWndImage@@QAEXH@Z 004098f0 f   WndImage.obj
 0001:00008909       ?SetImage@KWndImage@@QAEXFPBD_N@Z 00409909 f   WndImage.obj
 0001:000089c2       ?RemoveImage@KWndImage@@QAEXXZ 004099c2 f   WndImage.obj
 0001:00008a0b       ?UpdateTimer@KWndImage@@QAEXXZ 00409a0b f   WndImage.obj
 0001:00008a24       ?NextFrame@KWndImage@@QAEHXZ 00409a24 f   WndImage.obj
 0001:00008a3e       ?PaintWindow@KWndImage@@UAEXXZ 00409a3e f   WndImage.obj
 0001:00008a90       ??_EKWndImage@@UAEPAXI@Z   00409a90 f i WndImage.obj
 0001:00008a90       ??_GKWndImage@@UAEPAXI@Z   00409a90 f i WndImage.obj
 0001:00008ac0       ??0KWndImagePart@@QAE@XZ   00409ac0 f   WndImagePart.obj
 0001:00008b1b       ?Clone@KWndImagePart@@IAEXPAV1@@Z 00409b1b f   WndImagePart.obj
 0001:00008b5d       ?Init@KWndImagePart@@UAEHPAVKIniFile@@PBD@Z 00409b5d f   WndImagePart.obj
 0001:00008c4c       ?PaintWindow@KWndImagePart@@UAEXXZ 00409c4c f   WndImagePart.obj
 0001:00008c9e       ?SetPart@KWndImagePart@@QAEXHH@Z 00409c9e f   WndImagePart.obj
 0001:00008cd0       ??_EKWndImagePart@@UAEPAXI@Z 00409cd0 f i WndImagePart.obj
 0001:00008cd0       ??_GKWndImagePart@@UAEPAXI@Z 00409cd0 f i WndImagePart.obj
 0001:00008d00       ??0KWndLabeledButton@@QAE@XZ 00409d00 f   WndLabeledButton.obj
 0001:00008d5a       ?Clone@KWndLabeledButton@@QAEXPAV1@@Z 00409d5a f   WndLabeledButton.obj
 0001:00008e05       ?Init@KWndLabeledButton@@UAEHPAVKIniFile@@PBD@Z 00409e05 f   WndLabeledButton.obj
 0001:00008f7b       ?SetLabel@KWndLabeledButton@@QAEXPBD@Z 00409f7b f   WndLabeledButton.obj
 0001:00008ff0       ?GetLabel@KWndLabeledButton@@QAEHPADH@Z 00409ff0 f   WndLabeledButton.obj
 0001:0000905b       ?SetLabelColor@KWndLabeledButton@@QAEXI@Z 0040a05b f   WndLabeledButton.obj
 0001:00009074       ?PaintWindow@KWndLabeledButton@@UAEXXZ 0040a074 f   WndLabeledButton.obj
 0001:00009196       ?Init@KWndRichLabeledButton@@UAEHPAVKIniFile@@PBD@Z 0040a196 f   WndLabeledButton.obj
 0001:000091f2       ?SetLabel@KWndRichLabeledButton@@QAEXPBDH@Z 0040a1f2 f   WndLabeledButton.obj
 0001:00009215       ?SetLabelColor@KWndRichLabeledButton@@QAEXI@Z 0040a215 f   WndLabeledButton.obj
 0001:00009234       ?PaintWindow@KWndRichLabeledButton@@UAEXXZ 0040a234 f   WndLabeledButton.obj
 0001:00009280       ??_GKWndLabeledButton@@UAEPAXI@Z 0040a280 f i WndLabeledButton.obj
 0001:00009280       ??_EKWndLabeledButton@@UAEPAXI@Z 0040a280 f i WndLabeledButton.obj
 0001:000092b0       ??1KWndLabeledButton@@UAE@XZ 0040a2b0 f i WndLabeledButton.obj
 0001:000092d0       ??0KWndList@@QAE@XZ        0040a2d0 f   WndList.obj
 0001:000093a5       ?Clone@KWndList@@IAEXPAV1@@Z 0040a3a5 f   WndList.obj
 0001:00009457       ??1KWndList@@UAE@XZ        0040a457 f   WndList.obj
 0001:000094aa       ?SetScrollbar@KWndList@@QAEXPAVKWndScrollBar@@@Z 0040a4aa f   WndList.obj
 0001:00009538       ?Init@KWndList@@UAEHPAVKIniFile@@PBD@Z 0040a538 f   WndList.obj
 0001:000097fc       ?EnableMultiSel@KWndList@@QAEXH@Z 0040a7fc f   WndList.obj
 0001:00009944       ?SetCustomColorOffset@KWndList@@QAEXH@Z 0040a944 f   WndList.obj
 0001:0000996c       ?WndProc@KWndList@@UAEHIIH@Z 0040a96c f   WndList.obj
 0001:00009aec       ?GetIemIndexAtPoint@KWndList@@AAEHHH@Z 0040aaec f   WndList.obj
 0001:00009b78       ?OnLButtonDown@KWndList@@AAEXHH@Z 0040ab78 f   WndList.obj
 0001:00009c89       ?IsItemSel@KWndList@@QAEHH@Z 0040ac89 f   WndList.obj
 0001:00009d00       ?OnRButtonDown@KWndList@@AAEXHH@Z 0040ad00 f   WndList.obj
 0001:00009d4f       ?OnLButtonDClick@KWndList@@AAEXHH@Z 0040ad4f f   WndList.obj
 0001:00009d9e       ?SetCurSel@KWndList@@QAEHH@Z 0040ad9e f   WndList.obj
 0001:00009e9f       ?UpdateData@KWndList@@EAEXXZ 0040ae9f f   WndList.obj
 0001:00009f33       ?OnMouseMove@KWndList@@AAEXHH@Z 0040af33 f   WndList.obj
 0001:00009f93       ?PaintWindow@KWndList@@UAEXXZ 0040af93 f   WndList.obj
 0001:0000a3c4       ?SetContent@KWndList@@QAEXPAEHHH@Z 0040b3c4 f   WndList.obj
 0001:0000a52a       ?FindString@KWndList@@QAEHHPBD@Z 0040b52a f   WndList.obj
 0001:0000a597       ?GetItemDataInt@KWndList@@QAEHHH@Z 0040b597 f   WndList.obj
 0001:0000a5e3       ?GetString@KWndList@@QAEXHPAD@Z 0040b5e3 f   WndList.obj
 0001:0000a634       ?GetStrignLen@KWndList@@QAEHH@Z 0040b634 f   WndList.obj
 0001:0000a677       ?SetTopItemIndex@KWndList@@QAEXH@Z 0040b677 f   WndList.obj
 0001:0000a69e       ?GetVisibleItemCount@KWndList@@QBEHXZ 0040b69e f   WndList.obj
 0001:0000a6d0       ??_EKWndList@@UAEPAXI@Z    0040b6d0 f i WndList.obj
 0001:0000a6d0       ??_GKWndList@@UAEPAXI@Z    0040b6d0 f i WndList.obj
 0001:0000a700       ?GetStyle@KWndWindow@@QAEHXZ 0040b700 f i WndList.obj
 0001:0000a720       ?SetStyle@KWndWindow@@QAEHI@Z 0040b720 f i WndList.obj
 0001:0000a740       ?GetScrollPos@KWndScrollBar@@QAEHXZ 0040b740 f i WndList.obj
 0001:0000a760       ??0KWndList2@@QAE@XZ       0040b760 f   WndList2.obj
 0001:0000a7ed       ??1KWndList2@@UAE@XZ       0040b7ed f   WndList2.obj
 0001:0000a83e       ?Clone@KWndList2@@IAEXPAV1@@Z 0040b83e f   WndList2.obj
 0001:0000a8a5       ?Init@KWndList2@@UAEHPAVKIniFile@@PBD@Z 0040b8a5 f   WndList2.obj
 0001:0000aa59       ?SetScrollbar@KWndList2@@QAEXPAVKWndScrollBar@@@Z 0040ba59 f   WndList2.obj
 0001:0000aae7       ?WndProc@KWndList2@@UAEHIIH@Z 0040bae7 f   WndList2.obj
 0001:0000abe1       ?SetCurSel@KWndList2@@QAEHH@Z 0040bbe1 f   WndList2.obj
 0001:0000acaf       ?OnLButtonDown@KWndList2@@AAEXHH@Z 0040bcaf f   WndList2.obj
 0001:0000ad32       ?OnMouseMove@KWndList2@@AAEXHH@Z 0040bd32 f   WndList2.obj
 0001:0000adbe       ?AddString@KWndList2@@QAEHHPBDI@Z 0040bdbe f   WndList2.obj
 0001:0000affa       ?DeleteString@KWndList2@@QAEHH@Z 0040bffa f   WndList2.obj
 0001:0000b1a2       ?ResetContent@KWndList2@@QAEXXZ 0040c1a2 f   WndList2.obj
 0001:0000b2c9       ?PaintWindow@KWndList2@@UAEXXZ 0040c2c9 f   WndList2.obj
 0001:0000b4fe       ?FindString@KWndList2@@QAEHHPBD@Z 0040c4fe f   WndList2.obj
 0001:0000b580       ?SetItemData@KWndList2@@QAEHHH@Z 0040c580 f   WndList2.obj
 0001:0000b5b6       ?GetItemData@KWndList2@@QAEHH@Z 0040c5b6 f   WndList2.obj
 0001:0000b5e7       ?GetString@KWndList2@@QAEHHPADI@Z 0040c5e7 f   WndList2.obj
 0001:0000b659       ?SetTopItemIndex@KWndList2@@QAEXH@Z 0040c659 f   WndList2.obj
 0001:0000b680       ?GetVisibleLineCount@KWndList2@@QBEHXZ 0040c680 f   WndList2.obj
 0001:0000b6a0       ??_EKWndList2@@UAEPAXI@Z   0040c6a0 f i WndList2.obj
 0001:0000b6a0       ??_GKWndList2@@UAEPAXI@Z   0040c6a0 f i WndList2.obj
 0001:0000b6d0       ?GetCount@KWndList2@@QAEHXZ 0040c6d0 f i WndList2.obj
 0001:0000b6f0       ??0KWndMessageListBox@@QAE@XZ 0040c6f0 f   WndMessageListBox.obj
 0001:0000b7cc       ?UpdateChatItem@KWndMessageListBox@@QAEXXZ 0040c7cc f   WndMessageListBox.obj
 0001:0000b84a       ??1KWndMessageListBox@@UAE@XZ 0040c84a f   WndMessageListBox.obj
 0001:0000b89d       ?SetCapability@KWndMessageListBox@@QAEHH@Z 0040c89d f   WndMessageListBox.obj
 0001:0000ba42       ?SetScrollbar@KWndMessageListBox@@QAEXPAVKWndScrollBar@@@Z 0040ca42 f   WndMessageListBox.obj
 0001:0000ba69       ?AddOneMessage@KWndMessageListBox@@QAEHPBDHPAUChatItem@@_NHHHI@Z 0040ca69 f   WndMessageListBox.obj
 0001:0000bd3b       ?RemoveAMessage@KWndMessageListBox@@QAEXH@Z 0040cd3b f   WndMessageListBox.obj
 0001:0000be8e       ?Clear@KWndMessageListBox@@QAEXXZ 0040ce8e f   WndMessageListBox.obj
 0001:0000beff       ?Clone@KWndMessageListBox@@QAEXPAV1@@Z 0040ceff f   WndMessageListBox.obj
 0001:0000bfeb       ?Init@KWndMessageListBox@@UAEHPAVKIniFile@@PBD@Z 0040cfeb f   WndMessageListBox.obj
 0001:0000c448       ?SetSize@KWndMessageListBox@@UAEXHH@Z 0040d448 f   WndMessageListBox.obj
 0001:0000c635       ?SetType@KWndMessageListBox@@QAEXH@Z 0040d635 f   WndMessageListBox.obj
 0001:0000c64b       ?SetFontSize@KWndMessageListBox@@QAEXH@Z 0040d64b f   WndMessageListBox.obj
 0001:0000c695       ?UpdateDataP@KWndMessageListBox@@QAEXXZ 0040d695 f   WndMessageListBox.obj
 0001:0000c6ab       ?UpdateData@KWndMessageListBox@@EAEXXZ 0040d6ab f   WndMessageListBox.obj
 0001:0000c772       ?GetFirstShowLine@KWndMessageListBox@@QAEHXZ 0040d772 f   WndMessageListBox.obj
 0001:0000c7c2       ?SetFirstShowLine@KWndMessageListBox@@QAEXH@Z 0040d7c2 f   WndMessageListBox.obj
 0001:0000c927       ?GetItemLineCount@KWndMessageListBox@@QAEHH@Z 0040d927 f   WndMessageListBox.obj
 0001:0000c98c       ?PaintWindow@KWndMessageListBox@@EAEXXZ 0040d98c f   WndMessageListBox.obj
 0001:0000cea0       ?WndProc@KWndMessageListBox@@EAEHIIH@Z 0040dea0 f   WndMessageListBox.obj
 0001:0000d018       ?GetMsgAtPoint@KWndMessageListBox@@AAEHHH@Z 0040e018 f   WndMessageListBox.obj
 0001:0000d0f9       ?HitTextAtPoint@KWndMessageListBox@@QAEHHH@Z 0040e0f9 f   WndMessageListBox.obj
 0001:0000d219       ?OnLButtonDown@KWndMessageListBox@@AAEXHH@Z 0040e219 f   WndMessageListBox.obj
 0001:0000d277       ?OnLButtonDClick@KWndMessageListBox@@AAEXHH@Z 0040e277 f   WndMessageListBox.obj
 0001:0000d2c6       ?SetCurSel@KWndMessageListBox@@QAEHH@Z 0040e2c6 f   WndMessageListBox.obj
 0001:0000d31f       ?OnMouseMove@KWndMessageListBox@@AAEXHH@Z 0040e31f f   WndMessageListBox.obj
 0001:0000d37f       ?GetOneMessage@KWndMessageListBox@@QAEHHPADH_N@Z 0040e37f f   WndMessageListBox.obj
 0001:0000d438       ?SplitData@KWndMessageListBox@@QAEIXZ 0040e438 f   WndMessageListBox.obj
 0001:0000d555       ?BindData@KWndMessageListBox@@QAEII@Z 0040e555 f   WndMessageListBox.obj
 0001:0000d708       ?FreeData@KWndMessageListBox@@SAXI@Z 0040e708 f   WndMessageListBox.obj
 0001:0000d737       ?GetOffsetTextHeight@KWndMessageListBox@@AAEIXZ 0040e737 f   WndMessageListBox.obj
 0001:0000d77c       ?PtInWindow@KWndMessageListBox@@UAEHHH@Z 0040e77c f   WndMessageListBox.obj
 0001:0000d7c4       ?ClearHideLine@KWndMessageListBox@@QAEXXZ 0040e7c4 f   WndMessageListBox.obj
 0001:0000d7e5       ?HideNextLine@KWndMessageListBox@@QAEXXZ 0040e7e5 f   WndMessageListBox.obj
 0001:0000d8d3       ?HideAllLine@KWndMessageListBox@@QAEXXZ 0040e8d3 f   WndMessageListBox.obj
 0001:0000d8f4       ?GetMinHeight@KWndMessageListBox@@QAEHXZ 0040e8f4 f   WndMessageListBox.obj
 0001:0000d926       ??0KScrollMessageListBox@@QAE@XZ 0040e926 f   WndMessageListBox.obj
 0001:0000d9e7       ?Init@KScrollMessageListBox@@UAEHPAVKIniFile@@PBD@Z 0040e9e7 f   WndMessageListBox.obj
 0001:0000db6a       ?WndProc@KScrollMessageListBox@@UAEHIIH@Z 0040eb6a f   WndMessageListBox.obj
 0001:0000dd14       ?InitMinMaxLineCount@KScrollMessageListBox@@IAEXHH@Z 0040ed14 f   WndMessageListBox.obj
 0001:0000dd7b       ?HeightToLineHeight@KScrollMessageListBox@@QAEHH@Z 0040ed7b f   WndMessageListBox.obj
 0001:0000ddaf       ?WidthToCharWidth@KScrollMessageListBox@@QAEHH@Z 0040edaf f   WndMessageListBox.obj
 0001:0000dde3       ?GetMinHeight@KScrollMessageListBox@@QAEHXZ 0040ede3 f   WndMessageListBox.obj
 0001:0000de35       ?MsgListBox_LoadContent@@YA_NPAVKWndMessageListBox@@PAVKIniFile@@PBD@Z 0040ee35 f   WndMessageListBox.obj
 0001:0000df80       ??_GKWndMessageListBox@@UAEPAXI@Z 0040ef80 f i WndMessageListBox.obj
 0001:0000df80       ??_EKWndMessageListBox@@UAEPAXI@Z 0040ef80 f i WndMessageListBox.obj
 0001:0000dfb0       ??1KWndScrollBar@@UAE@XZ   0040efb0 f i WndMessageListBox.obj
 0001:0000e000       ??_GKScrollMessageListBox@@UAEPAXI@Z 0040f000 f i WndMessageListBox.obj
 0001:0000e000       ??_EKScrollMessageListBox@@UAEPAXI@Z 0040f000 f i WndMessageListBox.obj
 0001:0000e030       ??1KScrollMessageListBox@@UAE@XZ 0040f030 f i WndMessageListBox.obj
 0001:0000e090       ?GetMaxShowLine@KWndMessageListBox@@QAEHXZ 0040f090 f i WndMessageListBox.obj
 0001:0000e0b0       ??0KWndMovingImage@@QAE@XZ 0040f0b0 f   WndMovingImage.obj
 0001:0000e103       ?Clone@KWndMovingImage@@IAEXPAV1@@Z 0040f103 f   WndMovingImage.obj
 0001:0000e17a       ?Init@KWndMovingImage@@UAEHPAVKIniFile@@PBD@Z 0040f17a f   WndMovingImage.obj
 0001:0000e261       ?SetMoveValue@KWndMovingImage@@QAEXHH@Z 0040f261 f   WndMovingImage.obj
 0001:0000e340       ??_EKWndMovingImage@@UAEPAXI@Z 0040f340 f i WndMovingImage.obj
 0001:0000e340       ??_GKWndMovingImage@@UAEPAXI@Z 0040f340 f i WndMovingImage.obj
 0001:0000e370       ?WndObjContainerInit@@YAXPAVKIniFile@@@Z 0040f370 f   WndObjContainer.obj
 0001:0000e515       ??0KWndObjectBox@@QAE@XZ   0040f515 f   WndObjContainer.obj
 0001:0000e566       ?SetContainerId@KWndObjectBox@@QAEXH@Z 0040f566 f   WndObjContainer.obj
 0001:0000e57c       ?SetObjectGenre@KWndObjectBox@@QAEXI@Z 0040f57c f   WndObjContainer.obj
 0001:0000e592       ?Celar@KWndObjectBox@@QAEXXZ 0040f592 f   WndObjContainer.obj
 0001:0000e5a7       ?GetObjectA@KWndObjectBox@@QBEHAAUKUiDraggedObject@@@Z 0040f5a7 f   WndObjContainer.obj
 0001:0000e5e4       ?HoldObject@KWndObjectBox@@QAEXIIHH@Z 0040f5e4 f   WndObjContainer.obj
 0001:0000e67b       ?PaintWindow@KWndObjectBox@@MAEXXZ 0040f67b f   WndObjContainer.obj
 0001:0000f0eb       ?Clone@KWndObjectBox@@QAEXPAV1@@Z 004100eb f   WndObjContainer.obj
 0001:0000f116       ?Init@KWndObjectBox@@UAEHPAVKIniFile@@PBD@Z 00410116 f   WndObjContainer.obj
 0001:0000f1c2       ?EnablePickPut@KWndObjectBox@@QAEX_N@Z 004101c2 f   WndObjContainer.obj
 0001:0000f1fb       ?WndProc@KWndObjectBox@@MAEHIIH@Z 004101fb f   WndObjContainer.obj
 0001:0000f56e       ?DropObject@KWndObjectBox@@IAEH_N@Z 0041056e f   WndObjContainer.obj
 0001:0000f650       ??0KWndObjectMatrix@@QAE@XZ 00410650 f   WndObjContainer.obj
 0001:0000f6c9       ?SetContainerId@KWndObjectMatrix@@QAEXH@Z 004106c9 f   WndObjContainer.obj
 0001:0000f6df       ??1KWndObjectMatrix@@UAE@XZ 004106df f   WndObjContainer.obj
 0001:0000f730       ?Clone@KWndObjectMatrix@@IAEXPAV1@@Z 00410730 f   WndObjContainer.obj
 0001:0000f77f       ?Init@KWndObjectMatrix@@UAEHPAVKIniFile@@PBD@Z 0041077f f   WndObjContainer.obj
 0001:0000f947       ?PaintWindow@KWndObjectMatrix@@EAEXXZ 00410947 f   WndObjContainer.obj
 0001:00010554       ?AddObject@KWndObjectMatrix@@QAEHPAUKUiDraggedObject@@H@Z 00411554 f   WndObjContainer.obj
 0001:0001065f       ?RemoveObject@KWndObjectMatrix@@QAEHPAUKUiDraggedObject@@@Z 0041165f f   WndObjContainer.obj
 0001:0001075d       ?GetObjectA@KWndObjectMatrix@@QBEHAAUKUiDraggedObject@@HH@Z 0041175d f   WndObjContainer.obj
 0001:000107cc       ?Clear@KWndObjectMatrix@@QAEXXZ 004117cc f   WndObjContainer.obj
 0001:0001080e       ?WndProc@KWndObjectMatrix@@EAEHIIH@Z 0041180e f   WndObjContainer.obj
 0001:00010d50       ?GetObjectAt@KWndObjectMatrix@@AAEHHH@Z 00411d50 f   WndObjContainer.obj
 0001:00010df9       ?PickUpObjectAt@KWndObjectMatrix@@AAEHHH@Z 00411df9 f   WndObjContainer.obj
 0001:00010e72       ?DropObject@KWndObjectMatrix@@AAEHHH_N@Z 00411e72 f   WndObjContainer.obj
 0001:00011109       ?TryDropObjAtPos@KWndObjectMatrix@@AAEHABUtagRECT@@AAPAUKUiDraggedObject@@@Z 00412109 f   WndObjContainer.obj
 0001:000111b8       ?DropObject@KWndObjectMatrix@@AAEXHHPAUKUiDraggedObject@@@Z 004121b8 f   WndObjContainer.obj
 0001:00011233       ?EnableTracePutPos@KWndObjectMatrix@@QAEX_N@Z 00412233 f   WndObjContainer.obj
 0001:0001126c       ?EnablePickPut@KWndObjectMatrix@@QAEX_N@Z 0041226c f   WndObjContainer.obj
 0001:000112b0       ??_EKWndObjectBox@@UAEPAXI@Z 004122b0 f i WndObjContainer.obj
 0001:000112b0       ??_GKWndObjectBox@@UAEPAXI@Z 004122b0 f i WndObjContainer.obj
 0001:000112e0       ??1KWndObjectBox@@UAE@XZ   004122e0 f i WndObjContainer.obj
 0001:00011300       ??_EKWndObjectMatrix@@UAEPAXI@Z 00412300 f i WndObjContainer.obj
 0001:00011300       ??_GKWndObjectMatrix@@UAEPAXI@Z 00412300 f i WndObjContainer.obj
 0001:00011330       ?WndProc@KWndPage@@UAEHIIH@Z 00412330 f   WndPage.obj
 0001:0001139d       ??0KWndPageSet@@QAE@XZ     0041239d f   WndPage.obj
 0001:000113e3       ??1KWndPageSet@@UAE@XZ     004123e3 f   WndPage.obj
 0001:00011438       ?WndProc@KWndPageSet@@UAEHIIH@Z 00412438 f   WndPage.obj
 0001:00011472       ?AddPage@KWndPageSet@@QAE_NPAVKWndPage@@PAVKWndButton@@@Z 00412472 f   WndPage.obj
 0001:00011572       ?ActivePage@KWndPageSet@@QAE_NH@Z 00412572 f   WndPage.obj
 0001:0001169c       ?OnPageBtnClick@KWndPageSet@@AAEXPAVKWndWindow@@@Z 0041269c f   WndPage.obj
 0001:00011755       ?GetActivePage@KWndPageSet@@QAEPAVKWndPage@@XZ 00412755 f   WndPage.obj
 0001:00011790       ??_EKWndPageSet@@UAEPAXI@Z 00412790 f i WndPage.obj
 0001:00011790       ??_GKWndPageSet@@UAEPAXI@Z 00412790 f i WndPage.obj
 0001:000117c0       ??1KWndShowAnimate@@UAE@XZ 004127c0 f i WndPage.obj
 0001:000117e0       ??0KWndPureTextBtn@@QAE@XZ 004127e0 f   WndPureTextBtn.obj
 0001:000118b2       ?Clone@KWndPureTextBtn@@QAEXPAV1@@Z 004128b2 f   WndPureTextBtn.obj
 0001:00011953       ?Init@KWndPureTextBtn@@UAEHPAVKIniFile@@PBD@Z 00412953 f   WndPureTextBtn.obj
 0001:00011b1d       ?AdjustPosition@KWndPureTextBtn@@AAEXXZ 00412b1d f   WndPureTextBtn.obj
 0001:00011b90       ?PaintWindow@KWndPureTextBtn@@UAEXXZ 00412b90 f   WndPureTextBtn.obj
 0001:00011cc3       ?SetText@KWndPureTextBtn@@QAEXPBDH@Z 00412cc3 f   WndPureTextBtn.obj
 0001:00011d3e       ?CheckButton@KWndPureTextBtn@@QAEXH@Z 00412d3e f   WndPureTextBtn.obj
 0001:00011d71       ?WndProc@KWndPureTextBtn@@UAEHIIH@Z 00412d71 f   WndPureTextBtn.obj
 0001:00011f17       ?SetColor@KWndPureTextBtn@@QAEXIIIIII@Z 00412f17 f   WndPureTextBtn.obj
 0001:00011f6c       ?SetItemInfo@KWndPureTextBtn@@QAEXPAUChatItem@@@Z 00412f6c f   WndPureTextBtn.obj
 0001:00011fa0       ??_GKWndPureTextBtn@@UAEPAXI@Z 00412fa0 f i WndPureTextBtn.obj
 0001:00011fa0       ??_EKWndPureTextBtn@@UAEPAXI@Z 00412fa0 f i WndPureTextBtn.obj
 0001:00011fd0       ??1KWndPureTextBtn@@UAE@XZ 00412fd0 f i WndPureTextBtn.obj
 0001:00011ff0       ?Clone@KWndRect@@QAEXPAV1@@Z 00412ff0 f   WndRect.obj
 0001:0001201b       ?Init@KWndRect@@UAEHPAVKIniFile@@PBD@Z 0041301b f   WndRect.obj
 0001:000120db       ?PaintWindow@KWndRect@@MAEXXZ 004130db f   WndRect.obj
 0001:00012156       ?PtInWindow@KWndRect@@UAEHHH@Z 00413156 f   WndRect.obj
 0001:00012165       ?SetColor@KWndRect@@QAEXI@Z 00413165 f   WndRect.obj
 0001:000121bf       ?Wnd_Cleanup@@YAXXZ        004131bf f   Wnds.obj
 0001:0001222d       ?Wnd_RenderWindows@@YAXXZ  0041322d f   Wnds.obj
 0001:00012302       ?Wnd_Heartbeat@@YAXXZ      00413302 f   Wnds.obj
 0001:00012339       ?Wnd_AddWindow@@YAXPAVKWndWindow@@W4WND_LAYER_LIST@@@Z 00413339 f   Wnds.obj
 0001:00012378       ?Wnd_SetGameSpaceWnd@@YAXPAVKWndWindow@@@Z 00413378 f   Wnds.obj
 0001:00012385       ?Wnd_GameSpaceHandleInput@@YAX_N@Z 00413385 f   Wnds.obj
 0001:0001239c       ?Wnd_ShowHideGameSpace@@YAX_N@Z 0041339c f   Wnds.obj
 0001:000123a9       ?Wnd_OnWindowDelete@@YAXPAVKWndWindow@@@Z 004133a9 f   Wnds.obj
 0001:000124a0       ?Wnd_DragBegin@@YAHPBUKUiDraggedObject@@P6AHHHABU1@H@Z@Z 004134a0 f   Wnds.obj
 0001:000124eb       ?Wnd_GetDragObj@@YAHPAUKUiDraggedObject@@@Z 004134eb f   Wnds.obj
 0001:00012529       ?Wnd_DragFinished@@YAXXZ   00413529 f   Wnds.obj
 0001:00012538       ?Wnd_ProcessInput@@YAXIIH@Z 00413538 f   Wnds.obj
 0001:00012add       ?Wnd_TransmitInputToGameSpace@@YAXIIH@Z 00413add f   Wnds.obj
 0001:00012bd2       ?Wnd_ShowCursor@@YAXH@Z    00413bd2 f   Wnds.obj
 0001:00012be5       ?Wnd_SetCursorPos@@YAXHH@Z 00413be5 f   Wnds.obj
 0001:00012c32       ?Wnd_GetCursorPos@@YAXPAH0@Z 00413c32 f   Wnds.obj
 0001:00012c6a       ?Wnd_GetFocusWnd@@YAPAVKWndWindow@@XZ 00413c6a f   Wnds.obj
 0001:00012c74       ?Wnd_SetFocusWnd@@YAXPAVKWndWindow@@@Z 00413c74 f   Wnds.obj
 0001:00012cd0       ?Wnd_SetCapture@@YAXPAVKWndWindow@@@Z 00413cd0 f   Wnds.obj
 0001:00012ced       ?Wnd_ReleaseCapture@@YAXXZ 00413ced f   Wnds.obj
 0001:00012d1e       ?Wnd_SetExclusive@@YAXPAVKWndWindow@@@Z 00413d1e f   Wnds.obj
 0001:00012deb       ?Wnd_ReleaseExclusive@@YAXPAVKWndWindow@@@Z 00413deb f   Wnds.obj
 0001:00012e5b       ?Wnd_LoadCursor@@YAXHPBD@Z 00413e5b f   Wnds.obj
 0001:00012e72       ?Wnd_SwitchCursor@@YAHH@Z  00413e72 f   Wnds.obj
 0001:00012e85       ?Wnd_SetScreenSize@@YAXHH@Z 00413e85 f   Wnds.obj
 0001:00012e9b       ?Wnd_GetScreenSize@@YAXAAH0@Z 00413e9b f   Wnds.obj
 0001:00012eb5       ?Wnd_RestoreCursor@@YAXXZ  00413eb5 f   Wnds.obj
 0001:00012ed0       ??0KWndStation@@QAE@XZ     00413ed0 f i Wnds.obj
 0001:00013030       ??1KWndStation@@QAE@XZ     00414030 f i Wnds.obj
 0001:000130a0       ?GetNextWnd@KWndWindow@@QBEPAV1@XZ 004140a0 f i Wnds.obj
 0001:000130c0       ?GetParent@KWndWindow@@QBEPAV1@XZ 004140c0 f i Wnds.obj
 0001:000130e0       ?GetPreWnd@KWndWindow@@QBEPAV1@XZ 004140e0 f i Wnds.obj
 0001:00013100       ??0KWndScrollBar@@QAE@XZ   00414100 f   WndScrollBar.obj
 0001:000131d7       ?Clone@KWndScrollBar@@QAEXPAV1@@Z 004141d7 f   WndScrollBar.obj
 0001:000132ba       ?Init@KWndScrollBar@@UAEHPAVKIniFile@@PBD@Z 004142ba f   WndScrollBar.obj
 0001:000134f1       ?SetSize@KWndScrollBar@@UAEXHH@Z 004144f1 f   WndScrollBar.obj
 0001:00013588       ?WndProc@KWndScrollBar@@UAEHIIH@Z 00414588 f   WndScrollBar.obj
 0001:00013717       ?PaintWindow@KWndScrollBar@@UAEXXZ 00414717 f   WndScrollBar.obj
 0001:000137f9       ?SetValueRange@KWndScrollBar@@QAEXHH@Z 004147f9 f   WndScrollBar.obj
 0001:00013838       ?SetScrollPos@KWndScrollBar@@QAEXH@Z 00414838 f   WndScrollBar.obj
 0001:000138da       ?SetSlideBtnPos@KWndScrollBar@@AAEXXZ 004148da f   WndScrollBar.obj
 0001:000139e5       ?OnLButtonDown@KWndScrollBar@@AAEXHH@Z 004149e5 f   WndScrollBar.obj
 0001:00013ac6       ?ScrollLine@KWndScrollBar@@QAEH_N@Z 00414ac6 f   WndScrollBar.obj
 0001:00013b09       ?ScrollPage@KWndScrollBar@@QAEH_N@Z 00414b09 f   WndScrollBar.obj
 0001:00013b64       ?OnSlideBtnPressed@KWndScrollBar@@AAEXXZ 00414b64 f   WndScrollBar.obj
 0001:00013b90       ?OnDraggingSlide@KWndScrollBar@@AAEXHH@Z 00414b90 f   WndScrollBar.obj
 0001:00013c6c       ?GetMinHeight@KWndScrollBar@@QAEHXZ 00414c6c f   WndScrollBar.obj
 0001:00013ce0       ??_GKWndScrollBar@@UAEPAXI@Z 00414ce0 f i WndScrollBar.obj
 0001:00013ce0       ??_EKWndScrollBar@@UAEPAXI@Z 00414ce0 f i WndScrollBar.obj
 0001:00013d10       ?Clone@KWndShadow@@QAEXPAV1@@Z 00414d10 f   WndShadow.obj
 0001:00013d3b       ?Init@KWndShadow@@UAEHPAVKIniFile@@PBD@Z 00414d3b f   WndShadow.obj
 0001:00013e4a       ?PaintWindow@KWndShadow@@MAEXXZ 00414e4a f   WndShadow.obj
 0001:00013f42       ?PtInWindow@KWndShadow@@UAEHHH@Z 00414f42 f   WndShadow.obj
 0001:00013f51       ?SetColor@KWndShadow@@QAEXI@Z 00414f51 f   WndShadow.obj
 0001:00013f70       ??0KWndShowAnimate@@QAE@XZ 00414f70 f   WndShowAnimate.obj
 0001:00013fa9       ?Clone@KWndShowAnimate@@QAEXPAV1@@Z 00414fa9 f   WndShowAnimate.obj
 0001:00014004       ?Init@KWndShowAnimate@@UAEHPAVKIniFile@@PBD@Z 00415004 f   WndShowAnimate.obj
 0001:000140e0       ?Show@KWndShowAnimate@@UAEXXZ 004150e0 f   WndShowAnimate.obj
 0001:000141aa       ?Hide@KWndShowAnimate@@UAEXXZ 004151aa f   WndShowAnimate.obj
 0001:00014259       ?SetMoveSpeed@KWndShowAnimate@@SAXHH@Z 00415259 f   WndShowAnimate.obj
 0001:000142a4       ?SetInterval@KWndShowAnimate@@SAXI@Z 004152a4 f   WndShowAnimate.obj
 0001:000142c3       ?ShowCompleted@KWndShowAnimate@@UAEXXZ 004152c3 f   WndShowAnimate.obj
 0001:000142ce       ?PaintWindow@KWndShowAnimate@@MAEXXZ 004152ce f   WndShowAnimate.obj
 0001:000143e0       ??_GKWndShowAnimate@@UAEPAXI@Z 004153e0 f i WndShowAnimate.obj
 0001:000143e0       ??_EKWndShowAnimate@@UAEPAXI@Z 004153e0 f i WndShowAnimate.obj
 0001:00014410       ??0KWndText@@QAE@XZ        00415410 f   WndText.obj
 0001:00014475       ?SetText@KWndText@@QAEXPBDH@Z 00415475 f   WndText.obj
 0001:00014591       ?GetText@KWndText@@QAEHPADH@Z 00415591 f   WndText.obj
 0001:000145fb       ?Clear@KWndText@@QAEX_N@Z  004155fb f   WndText.obj
 0001:0001464e       ?SetTopLine@KWndText@@QAEHH@Z 0041564e f   WndText.obj
 0001:00014677       ?SetTextPtr@KWndText@@IAEXPADH@Z 00415677 f   WndText.obj
 0001:000146b4       ?Clone@KWndText@@QAEXPAV1@@Z 004156b4 f   WndText.obj
 0001:000146f7       ?Init@KWndText@@UAEHPAVKIniFile@@PBD@Z 004156f7 f   WndText.obj
 0001:00014a20       ?PaintWindow@KWndText@@UAEXXZ 00415a20 f   WndText.obj
 0001:00014bd3       ?SetTextColor@KWndText@@QAEXI@Z 00415bd3 f   WndText.obj
 0001:00014be9       ?SetIntText@KWndText@@QAEXHD@Z 00415be9 f   WndText.obj
 0001:00014c52       ?Set2IntText@KWndText@@QAEXHHD@Z 00415c52 f   WndText.obj
 0001:00014c9c       ?Set2IntTextCS@KWndText@@QAEXHHD@Z 00415c9c f   WndText.obj
 0001:00014d10       ?Set2IntTextExp@KWndText@@QAEXDHHD@Z 00415d10 f   WndText.obj
 0001:00014d5f       ?SetWorldText@KWndText@@QAEXHD@Z 00415d5f f   WndText.obj
 0001:00014df2       ??0KWndText32@@QAE@XZ      00415df2 f   WndText.obj
 0001:00014e5d       ??0KWndText80@@QAE@XZ      00415e5d f   WndText.obj
 0001:00014ecb       ??0KWndText256@@QAE@XZ     00415ecb f   WndText.obj
 0001:00014f3c       ??0KWndText512@@QAE@XZ     00415f3c f   WndText.obj
 0001:00014fb0       ??_EKWndText@@UAEPAXI@Z    00415fb0 f i WndText.obj
 0001:00014fb0       ??_GKWndText@@UAEPAXI@Z    00415fb0 f i WndText.obj
 0001:00014fe0       ??_EKWndText32@@UAEPAXI@Z  00415fe0 f i WndText.obj
 0001:00014fe0       ??_GKWndText32@@UAEPAXI@Z  00415fe0 f i WndText.obj
 0001:00015010       ??_GKWndText80@@UAEPAXI@Z  00416010 f i WndText.obj
 0001:00015010       ??_EKWndText80@@UAEPAXI@Z  00416010 f i WndText.obj
 0001:00015040       ??1KWndText80@@UAE@XZ      00416040 f i WndText.obj
 0001:00015060       ??_EKWndText256@@UAEPAXI@Z 00416060 f i WndText.obj
 0001:00015060       ??_GKWndText256@@UAEPAXI@Z 00416060 f i WndText.obj
 0001:00015090       ??1KWndText256@@UAE@XZ     00416090 f i WndText.obj
 0001:000150b0       ??_EKWndText512@@UAEPAXI@Z 004160b0 f i WndText.obj
 0001:000150b0       ??_GKWndText512@@UAEPAXI@Z 004160b0 f i WndText.obj
 0001:000150e0       ??1KWndText512@@UAE@XZ     004160e0 f i WndText.obj
 0001:00015100       ??0KWndToolBar@@QAE@XZ     00416100 f   WndToolBar.obj
 0001:00015139       ??1KWndToolBar@@UAE@XZ     00416139 f   WndToolBar.obj
 0001:0001518a       ?Clone@KWndToolBar@@QAEXPAV1@@Z 0041618a f   WndToolBar.obj
 0001:000151cb       ?Init@KWndToolBar@@UAEHPAVKIniFile@@PBD@Z 004161cb f   WndToolBar.obj
 0001:0001525c       ?WndProc@KWndToolBar@@UAEHIIH@Z 0041625c f   WndToolBar.obj
 0001:000152ab       ?PaintWindow@KWndToolBar@@UAEXXZ 004162ab f   WndToolBar.obj
 0001:000152be       ?AddOneWindow@KWndToolBar@@IAEXPAVKIniFile@@PBD@Z 004162be f   WndToolBar.obj
 0001:0001541d       ?FreeAllWindow@KWndToolBar@@IAEXXZ 0041641d f   WndToolBar.obj
 0001:000154e7       ?UpdateData@KWndToolBar@@UAEXXZ 004164e7 f   WndToolBar.obj
 0001:00015560       ??_EKWndToolBar@@UAEPAXI@Z 00416560 f i WndToolBar.obj
 0001:00015560       ??_GKWndToolBar@@UAEPAXI@Z 00416560 f i WndToolBar.obj
 0001:00015590       ??0KWndValueImage@@QAE@XZ  00416590 f   WndValueImage.obj
 0001:000155c9       ?Clone@KWndValueImage@@QAEXPAV1@@Z 004165c9 f   WndValueImage.obj
 0001:0001561e       ?Init@KWndValueImage@@UAEHPAVKIniFile@@PBD@Z 0041661e f   WndValueImage.obj
 0001:000156b5       ?SetValue@KWndValueImage@@QAEXHH@Z 004166b5 f   WndValueImage.obj
 0001:00015740       ??_GKWndValueImage@@UAEPAXI@Z 00416740 f i WndValueImage.obj
 0001:00015740       ??_EKWndValueImage@@UAEPAXI@Z 00416740 f i WndValueImage.obj
 0001:00015770       ??1KWndValueImage@@UAE@XZ  00416770 f i WndValueImage.obj
 0001:00015790       ??0KWndWindow@@QAE@XZ      00416790 f   WndWindow.obj
 0001:00015833       ??1KWndWindow@@UAE@XZ      00416833 f   WndWindow.obj
 0001:00015869       ?BringToTop@KWndWindow@@QAEXXZ 00416869 f   WndWindow.obj
 0001:0001590b       ?GetPosition@KWndWindow@@QAEXPAH0@Z 0041690b f   WndWindow.obj
 0001:0001593a       ?SetPosition@KWndWindow@@QAEXHH@Z 0041693a f   WndWindow.obj
 0001:00015975       ?GetAbsolutePos@KWndWindow@@QAEXPAH0@Z 00416975 f   WndWindow.obj
 0001:000159a4       ?GetSize@KWndWindow@@QAEXPAH0@Z 004169a4 f   WndWindow.obj
 0001:000159d3       ?SetSize@KWndWindow@@UAEXHH@Z 004169d3 f   WndWindow.obj
 0001:00015b15       ?AbsoluteMove@KWndWindow@@AAEXHH@Z 00416b15 f   WndWindow.obj
 0001:00015b6c       ?Show@KWndWindow@@UAEXXZ   00416b6c f   WndWindow.obj
 0001:00015b89       ?Hide@KWndWindow@@UAEXXZ   00416b89 f   WndWindow.obj
 0001:00015bf1       ?IsVisible@KWndWindow@@QAEHXZ 00416bf1 f   WndWindow.obj
 0001:00015c07       ?Enable@KWndWindow@@UAEXH@Z 00416c07 f   WndWindow.obj
 0001:00015c40       ?Destroy@KWndWindow@@QAEXXZ 00416c40 f   WndWindow.obj
 0001:00015c5d       ?Clone@KWndWindow@@IAEXPAV1@@Z 00416c5d f   WndWindow.obj
 0001:00015caa       ?Init@KWndWindow@@UAEHPAVKIniFile@@PBD@Z 00416caa f   WndWindow.obj
 0001:00015f12       ?PtInWindow@KWndWindow@@UAEHHH@Z 00416f12 f   WndWindow.obj
 0001:00015fd8       ?Paint@KWndWindow@@QAEXXZ  00416fd8 f   WndWindow.obj
 0001:00016026       ?LetMeBreathe@KWndWindow@@QAEXXZ 00417026 f   WndWindow.obj
 0001:000160a1       ?AddChild@KWndWindow@@QAEXPAV1@@Z 004170a1 f   WndWindow.obj
 0001:0001613c       ?AddBrother@KWndWindow@@QAEXPAV1@@Z 0041713c f   WndWindow.obj
 0001:000161f2       ?LeaveAlone@KWndWindow@@QAEXXZ 004171f2 f   WndWindow.obj
 0001:0001622c       ?SplitSmaleFamily@KWndWindow@@QAEXXZ 0041722c f   WndWindow.obj
 0001:000162bb       ?WndProc@KWndWindow@@UAEHIIH@Z 004172bb f   WndWindow.obj
 0001:000163f8       ?OnLBtnDown@KWndWindow@@AAEXHH@Z 004173f8 f   WndWindow.obj
 0001:0001643d       ?OnMoveWnd@KWndWindow@@AAEXXZ 0041743d f   WndWindow.obj
 0001:0001650c       ?TopChildFromPoint@KWndWindow@@UAEPAV1@HH@Z 0041750c f   WndWindow.obj
 0001:000165ac       ?GetOwner@KWndWindow@@QAEPAV1@XZ 004175ac f   WndWindow.obj
 0001:000165d6       ?PaintDebugInfo@KWndWindow@@QAEXXZ 004175d6 f   WndWindow.obj
 0001:000167b3       ?PaintWindow@KWndWindow@@UAEXXZ 004177b3 f   WndWindow.obj
 0001:000169e1       ?GetColor@@YAIPBD@Z        004179e1 f   WndWindow.obj
 0001:00016b89       ?GetColorString@@YAPBDI@Z  00417b89 f   WndWindow.obj
 0001:00016bd3       ?SetCursorAbove@KWndWindow@@QAEXXZ 00417bd3 f   WndWindow.obj
 0001:00016c0e       ?GetAllChildLayoutRect@KWndWindow@@QAEXPAUtagRECT@@@Z 00417c0e f   WndWindow.obj
 0001:00016d70       ??_EKWndWindow@@UAEPAXI@Z  00417d70 f i WndWindow.obj
 0001:00016d70       ??_GKWndWindow@@UAEPAXI@Z  00417d70 f i WndWindow.obj
 0001:00016da0       ??0KUiConnectInfo@@AAE@XZ  00417da0 f   UiConnectInfo.obj
 0001:00016ea4       ?OpenWindow@KUiConnectInfo@@SAPAV1@W4LOGIN_BG_INFO_MSG_INDEX@@HH@Z 00417ea4 f   UiConnectInfo.obj
 0001:00016f92       ?CloseWindow@KUiConnectInfo@@SAX_N@Z 00417f92 f   UiConnectInfo.obj
 0001:00016fe2       ?Initialize@KUiConnectInfo@@AAEXXZ 00417fe2 f   UiConnectInfo.obj
 0001:00017028       ?LoadScheme@KUiConnectInfo@@AAEXPBD@Z 00418028 f   UiConnectInfo.obj
 0001:0001738e       ?OnClickConfirmBtn@KUiConnectInfo@@AAEXXZ 0041838e f   UiConnectInfo.obj
 0001:000174a0       ?WndProc@KUiConnectInfo@@EAEHIIH@Z 004184a0 f   UiConnectInfo.obj
 0001:0001759f       ?OnDelRole@KUiConnectInfo@@AAE_NXZ 0041859f f   UiConnectInfo.obj
 0001:00017693       ?OnCancelDelRole@KUiConnectInfo@@AAEXXZ 00418693 f   UiConnectInfo.obj
 0001:000176be       ?SetInfoMsg@KUiConnectInfo@@AAEXW4LOGIN_BG_INFO_MSG_INDEX@@@Z 004186be f   UiConnectInfo.obj
 0001:00017867       ?GotoNextStep@KUiConnectInfo@@AAEXXZ 00418867 f   UiConnectInfo.obj
 0001:00017946       ?Breathe@KUiConnectInfo@@EAEXXZ 00418946 f   UiConnectInfo.obj
 0001:00017b4c       ?PaintWindow@KUiConnectInfo@@EAEXXZ 00418b4c f   UiConnectInfo.obj
 0001:00017dd0       ??_EKUiConnectInfo@@EAEPAXI@Z 00418dd0 f i UiConnectInfo.obj
 0001:00017dd0       ??_GKUiConnectInfo@@EAEPAXI@Z 00418dd0 f i UiConnectInfo.obj
 0001:00017e00       ??1KUiConnectInfo@@EAE@XZ  00418e00 f i UiConnectInfo.obj
 0001:00017ea0       ?GetStatus@KLogin@@QAE?AW4LOGIN_LOGIC_STATUS@@XZ 00418ea0 f i UiConnectInfo.obj
 0001:00017ec0       ??0KUiLogin@@AAE@XZ        00418ec0 f   UiLogin.obj
 0001:00017f6c       ??1KUiLogin@@EAE@XZ        00418f6c f   UiLogin.obj
 0001:0001800b       ?OpenWindow@KUiLogin@@SAPAV1@XZ 0041900b f   UiLogin.obj
 0001:000180c1       ?CloseWindow@KUiLogin@@SAX_N@Z 004190c1 f   UiLogin.obj
 0001:00018138       ?Show@KUiLogin@@EAEXXZ     00419138 f   UiLogin.obj
 0001:000181c0       ?Initialize@KUiLogin@@AAEXXZ 004191c0 f   UiLogin.obj
 0001:00018282       ?LoadScheme@KUiLogin@@AAEXPBD@Z 00419282 f   UiLogin.obj
 0001:00018419       ?WndProc@KUiLogin@@EAEHIIH@Z 00419419 f   UiLogin.obj
 0001:00018698       ?OnEnableAutoLogin@KUiLogin@@AAEXXZ 00419698 f   UiLogin.obj
 0001:00018707       ?OnKeyDown@KUiLogin@@AAEXI@Z 00419707 f   UiLogin.obj
 0001:00018943       ?OnLogin@KUiLogin@@AAEXXZ  00419943 f   UiLogin.obj
 0001:000189d3       ?OnCancel@KUiLogin@@AAEXXZ 004199d3 f   UiLogin.obj
 0001:000189f7       ?GetInputInfo@KUiLogin@@AAEHPAD0@Z 004199f7 f   UiLogin.obj
 0001:00018a5c       ?IsValidPassword@KUiLogin@@SA_NPBDH@Z 00419a5c f   UiLogin.obj
 0001:00018af0       ??_EKUiLogin@@EAEPAXI@Z    00419af0 f i UiLogin.obj
 0001:00018af0       ??_GKUiLogin@@EAEPAXI@Z    00419af0 f i UiLogin.obj
 0001:00018b20       ?OpenWindow@KUiLoginBackGround@@SAPAV1@PBD@Z 00419b20 f   UiLoginBg.obj
 0001:00018bd7       ?CloseWindow@KUiLoginBackGround@@SAX_N@Z 00419bd7 f   UiLoginBg.obj
 0001:00018c19       ?Initialize@KUiLoginBackGround@@AAEXXZ 00419c19 f   UiLoginBg.obj
 0001:00018d26       ?SetConfig@KUiLoginBackGround@@SAXPBD@Z 00419d26 f   UiLoginBg.obj
 0001:00018e36       ?LoadScheme@KUiLoginBackGround@@AAEXPAVKIniFile@@@Z 00419e36 f   UiLoginBg.obj
 0001:0001901e       ?Breathe@KUiLoginBackGround@@EAEXXZ 0041a01e f   UiLoginBg.obj
 0001:00019150       ??0KUiLoginBackGround@@AAE@XZ 0041a150 f i UiLoginBg.obj
 0001:000191d0       ??_GKUiLoginBackGround@@EAEPAXI@Z 0041a1d0 f i UiLoginBg.obj
 0001:000191d0       ??_EKUiLoginBackGround@@EAEPAXI@Z 0041a1d0 f i UiLoginBg.obj
 0001:00019200       ??1KUiLoginBackGround@@EAE@XZ 0041a200 f i UiLoginBg.obj
 0001:00019280       ??0KUiSelServer@@AAE@XZ    0041a280 f   UiSelServer.obj
 0001:00019362       ??1KUiSelServer@@EAE@XZ    0041a362 f   UiSelServer.obj
 0001:00019459       ?OpenWindow@KUiSelServer@@SAPAV1@XZ 0041a459 f   UiSelServer.obj
 0001:0001953b       ?CloseWindow@KUiSelServer@@SAX_N@Z 0041a53b f   UiSelServer.obj
 0001:0001957d       ?Initialize@KUiSelServer@@AAEXXZ 0041a57d f   UiSelServer.obj
 0001:00019674       ?GetList@KUiSelServer@@AAEXXZ 0041a674 f   UiSelServer.obj
 0001:000197b9       ?LoadScheme@KUiSelServer@@AAEXPBD@Z 0041a7b9 f   UiSelServer.obj
 0001:00019977       ?WndProc@KUiSelServer@@EAEHIIH@Z 0041a977 f   UiSelServer.obj
 0001:00019a2f       ?PaintWindow@KUiSelServer@@EAEXXZ 0041aa2f f   UiSelServer.obj
 0001:00019bf4       ?OnKeyDown@KUiSelServer@@AAEHI@Z 0041abf4 f   UiSelServer.obj
 0001:00019def       ?OnClickButton@KUiSelServer@@AAEXPAVKWndButton@@@Z 0041adef f   UiSelServer.obj
 0001:00019e29       ?OnLogin@KUiSelServer@@AAEXXZ 0041ae29 f   UiSelServer.obj
 0001:00019f97       ?OnCancel@KUiSelServer@@AAEXXZ 0041af97 f   UiSelServer.obj
 0001:00019fc0       ??_EKUiSelServer@@EAEPAXI@Z 0041afc0 f i UiSelServer.obj
 0001:00019fc0       ??_GKUiSelServer@@EAEPAXI@Z 0041afc0 f i UiSelServer.obj
 0001:00019ff0       ?GetCurSel@KWndList@@QAEHXZ 0041aff0 f i UiSelServer.obj
 0001:0001a010       ?GetTopItemIndex@KWndList@@QAEHXZ 0041b010 f i UiSelServer.obj
 0001:0001a030       ?GetCount@KWndList@@QAEHXZ 0041b030 f i UiSelServer.obj
 0001:0001a050       ?OpenWindow@KUiChatItem@@SAPAV1@H@Z 0041b050 f   UiChatItem.obj
 0001:0001a1ae       ??0KUiChatItem@@AAE@XZ     0041b1ae f   UiChatItem.obj
 0001:0001a281       ?GetIfVisible@KUiChatItem@@SAPAV1@XZ 0041b281 f   UiChatItem.obj
 0001:0001a2a7       ?CloseWindow@KUiChatItem@@SAXXZ 0041b2a7 f   UiChatItem.obj
 0001:0001a2ca       ?SetInfomation@KUiChatItem@@AAEXH@Z 0041b2ca f   UiChatItem.obj
 0001:0001a50c       ?PaintWindow@KUiChatItem@@EAEXXZ 0041b50c f   UiChatItem.obj
 0001:0001aa92       ?Initialize@KUiChatItem@@AAEHXZ 0041ba92 f   UiChatItem.obj
 0001:0001ab12       ?LoadScheme@KUiChatItem@@AAEXPBD@Z 0041bb12 f   UiChatItem.obj
 0001:0001ac2f       ?WndProc@KUiChatItem@@EAEHIIH@Z 0041bc2f f   UiChatItem.obj
 0001:0001ac90       ??_EKUiChatItem@@EAEPAXI@Z 0041bc90 f i UiChatItem.obj
 0001:0001ac90       ??_GKUiChatItem@@EAEPAXI@Z 0041bc90 f i UiChatItem.obj
 0001:0001acc0       ??1KUiChatItem@@EAE@XZ     0041bcc0 f i UiChatItem.obj
 0001:0001ad30       ?GetIfVisible@KUiChooseFace@@SAPAV1@XZ 0041bd30 f   UiChooseFace.obj
 0001:0001ad56       ?OpenWindow@KUiChooseFace@@SAPAV1@H@Z 0041bd56 f   UiChooseFace.obj
 0001:0001ae2b       ?CloseWindow@KUiChooseFace@@SAXXZ 0041be2b f   UiChooseFace.obj
 0001:0001ae58       ?Initialize@KUiChooseFace@@AAEXXZ 0041be58 f   UiChooseFace.obj
 0001:0001b152       ?LoadScheme@KUiChooseFace@@AAEXPBD@Z 0041c152 f   UiChooseFace.obj
 0001:0001b667       ?ShowWindow@KUiChooseFace@@AAEXH@Z 0041c667 f   UiChooseFace.obj
 0001:0001bc48       ?WndProc@KUiChooseFace@@EAEHIIH@Z 0041cc48 f   UiChooseFace.obj
 0001:0001c007       ?OnOK@KUiChooseFace@@AAEXXZ 0041d007 f   UiChooseFace.obj
 0001:0001c08e       ?PaintWindow@KUiChooseFace@@EAEXXZ 0041d08e f   UiChooseFace.obj
 0001:0001c9a0       ??0KUiChooseFace@@QAE@XZ   0041d9a0 f i UiChooseFace.obj
 0001:0001cc00       ??_GKUiChooseFace@@UAEPAXI@Z 0041dc00 f i UiChooseFace.obj
 0001:0001cc00       ??_EKUiChooseFace@@UAEPAXI@Z 0041dc00 f i UiChooseFace.obj
 0001:0001cc30       ??1KUiChooseFace@@UAE@XZ   0041dc30 f i UiChooseFace.obj
 0001:0001ce80       ??0KUiContainer@@QAE@XZ    0041de80 f   UiContainer.obj
 0001:0001ceab       ??1KUiContainer@@UAE@XZ    0041deab f   UiContainer.obj
 0001:0001cebf       ?DoSwitchUi@KUiContainer@@QAEHH@Z 0041debf f   UiContainer.obj
 0001:0001cfd7       ?Initialize@KUiContainer@@QAEHPAVKWndWindow@@@Z 0041dfd7 f   UiContainer.obj
 0001:0001d010       ??_EKUiContainer@@UAEPAXI@Z 0041e010 f i UiContainer.obj
 0001:0001d010       ??_GKUiContainer@@UAEPAXI@Z 0041e010 f i UiContainer.obj
 0001:0001d040       ??0KUiFaceSelector@@AAE@XZ 0041e040 f   UiFaceSelector.obj
 0001:0001d138       ?OpenWindow@KUiFaceSelector@@SAPAV1@PAVKWndWindow@@PAX@Z 0041e138 f   UiFaceSelector.obj
 0001:0001d216       ?CloseWindow@KUiFaceSelector@@SAX_N@Z 0041e216 f   UiFaceSelector.obj
 0001:0001d255       ?GetIfVisible@KUiFaceSelector@@SAPAV1@XZ 0041e255 f   UiFaceSelector.obj
 0001:0001d27b       ?ConvertFaceText@KUiFaceSelector@@SAHPADPBDH@Z 0041e27b f   UiFaceSelector.obj
 0001:0001d3e9       ?ConvertFace@KUiFaceSelector@@CAHPADAAHPBDH1@Z 0041e3e9 f   UiFaceSelector.obj
 0001:0001d4ab       ?Initialize@KUiFaceSelector@@AAEXXZ 0041e4ab f   UiFaceSelector.obj
 0001:0001d51e       ?LoadFaceList@KUiFaceSelector@@SAXXZ 0041e51e f   UiFaceSelector.obj
 0001:0001d67b       ?Clear@KUiFaceSelector@@SAXXZ 0041e67b f   UiFaceSelector.obj
 0001:0001d6bf       ?OnSelFace@KUiFaceSelector@@AAEXXZ 0041e6bf f   UiFaceSelector.obj
 0001:0001d737       ?WndProc@KUiFaceSelector@@EAEHIIH@Z 0041e737 f   UiFaceSelector.obj
 0001:0001d8af       ?OnExpandWnd@KUiFaceSelector@@AAEXXZ 0041e8af f   UiFaceSelector.obj
 0001:0001d92a       ?OnUnExpandWnd@KUiFaceSelector@@AAEXXZ 0041e92a f   UiFaceSelector.obj
 0001:0001d99a       ?LoadScheme@KUiFaceSelector@@QAEXPBD@Z 0041e99a f   UiFaceSelector.obj
 0001:0001ddd8       ?UpdateFaceTip@KUiFaceSelector@@AAEXHH@Z 0041edd8 f   UiFaceSelector.obj
 0001:0001de9c       ?PaintWindow@KUiFaceSelector@@EAEXXZ 0041ee9c f   UiFaceSelector.obj
 0001:0001e2b5       ?Show@KUiFaceSelector@@EAEXXZ 0041f2b5 f   UiFaceSelector.obj
 0001:0001e2d4       ?Hide@KUiFaceSelector@@EAEXXZ 0041f2d4 f   UiFaceSelector.obj
 0001:0001e2ec       ?GetFaceAtPos@KUiFaceSelector@@AAEHHH@Z 0041f2ec f   UiFaceSelector.obj
 0001:0001e3c0       ??_EKUiFaceSelector@@EAEPAXI@Z 0041f3c0 f i UiFaceSelector.obj
 0001:0001e3c0       ??_GKUiFaceSelector@@EAEPAXI@Z 0041f3c0 f i UiFaceSelector.obj
 0001:0001e3f0       ??1KUiFaceSelector@@EAE@XZ 0041f3f0 f i UiFaceSelector.obj
 0001:0001e460       ?CreateObject@GameWorld_DateTime@@SAPAVKWndWindow@@XZ 0041f460 f i UiPlayerBar.obj
 0001:0001e4d0       ?GetFormatedTimeString@@YAHPAUtm@@PAD@Z 0041f4d0 f   UiPlayerBar.obj
 0001:0001e513       ??0GameWorld_DateTime@@QAE@XZ 0041f513 f   UiPlayerBar.obj
 0001:0001e595       ?OnButtonClick@GameWorld_DateTime@@EAEXXZ 0041f595 f   UiPlayerBar.obj
 0001:0001e5a0       ?Init@GameWorld_DateTime@@UAEHPAVKIniFile@@PBD@Z 0041f5a0 f   UiPlayerBar.obj
 0001:0001e772       ?UpdateData@GameWorld_DateTime@@UAEXXZ 0041f772 f   UiPlayerBar.obj
 0001:0001e928       ?UpdateNetStatus@GameWorld_DateTime@@AAEXXZ 0041f928 f   UiPlayerBar.obj
 0001:0001eae8       ?Init@KImmediaItem@@UAEHPAVKIniFile@@PBD@Z 0041fae8 f   UiPlayerBar.obj
 0001:0001eb49       ?PaintWindow@KImmediaItem@@UAEXXZ 0041fb49 f   UiPlayerBar.obj
 0001:0001ec23       ??0KUiPlayerBar@@AAE@XZ    0041fc23 f   UiPlayerBar.obj
 0001:0001ee64       ??1KUiPlayerBar@@EAE@XZ    0041fe64 f   UiPlayerBar.obj
 0001:0001efb3       ?GetIfVisible@KUiPlayerBar@@SAPAV1@XZ 0041ffb3 f   UiPlayerBar.obj
 0001:0001efd9       ?OpenWindow@KUiPlayerBar@@SAPAV1@XZ 0041ffd9 f   UiPlayerBar.obj
 0001:0001f0bf       ?OnSwitchSize@KUiPlayerBar@@AAEXXZ 004200bf f   UiPlayerBar.obj
 0001:0001f10f       ?UpdateData@KUiPlayerBar@@EAEXXZ 0042010f f   UiPlayerBar.obj
 0001:0001f275       ?CloseWindow@KUiPlayerBar@@SAX_N@Z 00420275 f   UiPlayerBar.obj
 0001:0001f301       ?LoadScheme@KUiPlayerBar@@SAXPBD@Z 00420301 f   UiPlayerBar.obj
 0001:0001f3cd       ?LoadScheme@KUiPlayerBar@@AAEXPAVKIniFile@@@Z 004203cd f   UiPlayerBar.obj
 0001:0001f721       ?Initialize@KUiPlayerBar@@AAEXXZ 00420721 f   UiPlayerBar.obj
 0001:0001f990       ?WndProc@KUiPlayerBar@@EAEHIIH@Z 00420990 f   UiPlayerBar.obj
 0001:0001ff9d       ?PaintWindow@KUiPlayerBar@@EAEXXZ 00420f9d f   UiPlayerBar.obj
 0001:0001ffe7       ?PopupChannelMenu@KUiPlayerBar@@AAEXHH@Z 00420fe7 f   UiPlayerBar.obj
 0001:00020466       ?PopupPhraseMenu@KUiPlayerBar@@AAEXHH_N@Z 00421466 f   UiPlayerBar.obj
 0001:00020596       ?OnSend@KUiPlayerBar@@AAEXH@Z 00421596 f   UiPlayerBar.obj
 0001:00020d5b       ?IsCanSendMessage@KUiPlayerBar@@SAHPBDHPADH@Z 00421d5b f   UiPlayerBar.obj
 0001:00020dfb       ?OnSendChannelMessage@KUiPlayerBar@@SAXKPBDH@Z 00421dfb f   UiPlayerBar.obj
 0001:00020eb6       ?OnDirectSendChannelMessage@KUiPlayerBar@@AAEXKEPBDH@Z 00421eb6 f   UiPlayerBar.obj
 0001:00020fc2       ?OnSendSomeoneMessage@KUiPlayerBar@@SAXPBD0H@Z 00421fc2 f   UiPlayerBar.obj
 0001:000210c5       ?InputRecentMsg@KUiPlayerBar@@AAEX_N@Z 004220c5 f   UiPlayerBar.obj
 0001:0002118f       ?OnObjPickedDropped@KUiPlayerBar@@AAEXPAUITEM_PICKDROP_PLACE@@0@Z 0042218f f   UiPlayerBar.obj
 0001:000212a0       ?OnUseItem@KUiPlayerBar@@SAXH@Z 004222a0 f   UiPlayerBar.obj
 0001:0002131a       ?GetChannelIndex@KUiPlayerBar@@AAEHPBD@Z 0042231a f   UiPlayerBar.obj
 0001:000213c7       ?SetCurrentChannel@KUiPlayerBar@@SAXH@Z 004223c7 f   UiPlayerBar.obj
 0001:00021533       ?InputCurrentChannel@KUiPlayerBar@@AAEXH_N@Z 00422533 f   UiPlayerBar.obj
 0001:000215c2       ?SwitchChannel@KUiPlayerBar@@SAXH@Z 004225c2 f   UiPlayerBar.obj
 0001:0002164f       ?GetCurChannel@KUiPlayerBar@@SAHXZ 0042264f f   UiPlayerBar.obj
 0001:0002166d       ?UpdateXXXNumber@KUiPlayerBar@@AAEXAAH0@Z 0042266d f   UiPlayerBar.obj
 0001:0002176d       ?UpdateRuntimeAttribute@KUiPlayerBar@@AAEXAAH0@Z 0042276d f   UiPlayerBar.obj
 0001:000217d5       ?UpdateItem@KUiPlayerBar@@QAEXHII@Z 004227d5 f   UiPlayerBar.obj
 0001:00021819       ?UpdateSkill@KUiPlayerBar@@QAEXHII@Z 00422819 f   UiPlayerBar.obj
 0001:00021853       ?Breathe@KUiPlayerBar@@EAEXXZ 00422853 f   UiPlayerBar.obj
 0001:00021b14       ?IsHasCost@KUiPlayerBar@@AAEHEHHHHAAH00@Z 00422b14 f   UiPlayerBar.obj
 0001:00021d6a       ?InputNameMsg@KUiPlayerBar@@SAXDPBD_N@Z 00422d6a f   UiPlayerBar.obj
 0001:0002202a       ?FindRecentPlayer@KUiPlayerBar@@SAHPBD@Z 0042302a f   UiPlayerBar.obj
 0001:000220b0       ?GetRecentPlayerName@KUiPlayerBar@@SAPADH@Z 004230b0 f   UiPlayerBar.obj
 0001:00022102       ?AddRecentPlayer@KUiPlayerBar@@SAHPBD@Z 00423102 f   UiPlayerBar.obj
 0001:0002225a       ?ReplaceSpecialName@KUiPlayerBar@@AAEXPADI0@Z 0042325a f   UiPlayerBar.obj
 0001:0002227b       ?GetExp@KUiPlayerBar@@SA_NAAH00@Z 0042327b f   UiPlayerBar.obj
 0001:000222c2       ?LoadPrivateSetting@KUiPlayerBar@@SAHPAVKIniFile@@@Z 004232c2 f   UiPlayerBar.obj
 0001:0002239e       ?SavePrivateSetting@KUiPlayerBar@@SAHPAVKIniFile@@@Z 0042339e f   UiPlayerBar.obj
 0001:00022456       ?SetChatItem@KUiPlayerBar@@SAXUChatItem@@I@Z 00423456 f   UiPlayerBar.obj
 0001:00022b5e       ?SetItemBtnInfo@KUiPlayerBar@@SAXHPAUChatItem@@@Z 00423b5e f   UiPlayerBar.obj
 0001:00022e53       ?ClearItemBtn@KUiPlayerBar@@SAXXZ 00423e53 f   UiPlayerBar.obj
 0001:00022f10       ?SetItemBtnPos@KUiPlayerBar@@SAXHHH@Z 00423f10 f   UiPlayerBar.obj
 0001:00023087       ?Clear@KUiPlayerBar@@SAXXZ 00424087 f   UiPlayerBar.obj
 0001:000230a0       ??_GGameWorld_DateTime@@UAEPAXI@Z 004240a0 f i UiPlayerBar.obj
 0001:000230a0       ??_EGameWorld_DateTime@@UAEPAXI@Z 004240a0 f i UiPlayerBar.obj
 0001:000230d0       ??1GameWorld_DateTime@@UAE@XZ 004240d0 f i UiPlayerBar.obj
 0001:000230f0       ??0KImmediaItem@@QAE@XZ    004240f0 f i UiPlayerBar.obj
 0001:00023130       ??_GKImmediaItem@@UAEPAXI@Z 00424130 f i UiPlayerBar.obj
 0001:00023130       ??_EKImmediaItem@@UAEPAXI@Z 00424130 f i UiPlayerBar.obj
 0001:00023160       ??1KImmediaItem@@UAE@XZ    00424160 f i UiPlayerBar.obj
 0001:00023180       ??_EKUiPlayerBar@@EAEPAXI@Z 00424180 f i UiPlayerBar.obj
 0001:00023180       ??_GKUiPlayerBar@@EAEPAXI@Z 00424180 f i UiPlayerBar.obj
 0001:000231b0       ?GetFocusBkColor@KWndEdit@@QAEIXZ 004241b0 f i UiPlayerBar.obj
 0001:000231d0       ?GetMenuData@KPopupMenu@@SAPAUKPopupMenuData@@XZ 004241d0 f i UiPlayerBar.obj
 0001:000231e0       ?IsSelfName@KUiPlayerBar@@SAHPAD@Z 004241e0 f i UiPlayerBar.obj
 0001:00023220       ?SetFocusBkColor@KWndEdit@@QAEXI@Z 00424220 f i UiPlayerBar.obj
 0001:00023240       ?end@?$map@V?$basic_string@DU?$char_traits@D@std@@V?$allocator@D@2@@std@@UShortFuncInfo@@Ustring_iless@@V?$allocator@UShortFuncInfo@@@2@@std@@QAE?AViterator@?$_Tree@V?$basic_string@DU?$char_traits@D@std@@V?$allocator@D@2@@std@@U?$pair@$$CBV?$basic_string@DU?$char_traits@D@std@@V?$allocator@D@2@@std@@UShortFuncInfo@@@2@U_Kfn@?$map@V?$basic_string@DU?$char_traits@D@std@@V?$allocator@D@2@@std@@UShortFuncInfo@@Ustring_iless@@V?$allocator@UShortFuncInfo@@@2@@2@Ustring_iless@@V?$allocator@UShortFuncInfo@@@2@@2@XZ 00424240 f i UiPlayerBar.obj
 0001:00023270       ?find@?$map@V?$basic_string@DU?$char_traits@D@std@@V?$allocator@D@2@@std@@UShortFuncInfo@@Ustring_iless@@V?$allocator@UShortFuncInfo@@@2@@std@@QAE?AViterator@?$_Tree@V?$basic_string@DU?$char_traits@D@std@@V?$allocator@D@2@@std@@U?$pair@$$CBV?$basic_string@DU?$char_traits@D@std@@V?$allocator@D@2@@std@@UShortFuncInfo@@@2@U_Kfn@?$map@V?$basic_string@DU?$char_traits@D@std@@V?$allocator@D@2@@std@@UShortFuncInfo@@Ustring_iless@@V?$allocator@UShortFuncInfo@@@2@@2@Ustring_iless@@V?$allocator@UShortFuncInfo@@@2@@2@ABV?$basic_string@DU?$char_traits@D@std@@V?$allocator@D@2@@2@@Z 00424270 f i UiPlayerBar.obj
 0001:000232a0       ??9iterator@?$_Tree@V?$basic_string@DU?$char_traits@D@std@@V?$allocator@D@2@@std@@U?$pair@$$CBV?$basic_string@DU?$char_traits@D@std@@V?$allocator@D@2@@std@@UShortFuncInfo@@@2@U_Kfn@?$map@V?$basic_string@DU?$char_traits@D@std@@V?$allocator@D@2@@std@@UShortFuncInfo@@Ustring_iless@@V?$allocator@UShortFuncInfo@@@2@@2@Ustring_iless@@V?$allocator@UShortFuncInfo@@@2@@std@@QBE_NABV012@@Z 004242a0 f i UiPlayerBar.obj
 0001:000232d0       ?end@?$_Tree@V?$basic_string@DU?$char_traits@D@std@@V?$allocator@D@2@@std@@U?$pair@$$CBV?$basic_string@DU?$char_traits@D@std@@V?$allocator@D@2@@std@@UShortFuncInfo@@@2@U_Kfn@?$map@V?$basic_string@DU?$char_traits@D@std@@V?$allocator@D@2@@std@@UShortFuncInfo@@Ustring_iless@@V?$allocator@UShortFuncInfo@@@2@@2@Ustring_iless@@V?$allocator@UShortFuncInfo@@@2@@std@@QAE?AViterator@12@XZ 004242d0 f i UiPlayerBar.obj
 0001:00023300       ?find@?$_Tree@V?$basic_string@DU?$char_traits@D@std@@V?$allocator@D@2@@std@@U?$pair@$$CBV?$basic_string@DU?$char_traits@D@std@@V?$allocator@D@2@@std@@UShortFuncInfo@@@2@U_Kfn@?$map@V?$basic_string@DU?$char_traits@D@std@@V?$allocator@D@2@@std@@UShortFuncInfo@@Ustring_iless@@V?$allocator@UShortFuncInfo@@@2@@2@Ustring_iless@@V?$allocator@UShortFuncInfo@@@2@@std@@QAE?AViterator@12@ABV?$basic_string@DU?$char_traits@D@std@@V?$allocator@D@2@@2@@Z 00424300 f i UiPlayerBar.obj
 0001:000233a0       ??Rstring_iless@@QBE_NABV?$basic_string@DU?$char_traits@D@std@@V?$allocator@D@2@@std@@0@Z 004243a0 f i UiPlayerBar.obj
 0001:00023410       __tcsicmp                  00424410 f i UiPlayerBar.obj
 0001:00023430       ??8iterator@?$_Tree@V?$basic_string@DU?$char_traits@D@std@@V?$allocator@D@2@@std@@U?$pair@$$CBV?$basic_string@DU?$char_traits@D@std@@V?$allocator@D@2@@std@@UShortFuncInfo@@@2@U_Kfn@?$map@V?$basic_string@DU?$char_traits@D@std@@V?$allocator@D@2@@std@@UShortFuncInfo@@Ustring_iless@@V?$allocator@UShortFuncInfo@@@2@@2@Ustring_iless@@V?$allocator@UShortFuncInfo@@@2@@std@@QBE_NABV012@@Z 00424430 f i UiPlayerBar.obj
 0001:00023450       ?_Key@?$_Tree@V?$basic_string@DU?$char_traits@D@std@@V?$allocator@D@2@@std@@U?$pair@$$CBV?$basic_string@DU?$char_traits@D@std@@V?$allocator@D@2@@std@@UShortFuncInfo@@@2@U_Kfn@?$map@V?$basic_string@DU?$char_traits@D@std@@V?$allocator@D@2@@std@@UShortFuncInfo@@Ustring_iless@@V?$allocator@UShortFuncInfo@@@2@@2@Ustring_iless@@V?$allocator@UShortFuncInfo@@@2@@std@@KAABV?$basic_string@DU?$char_traits@D@std@@V?$allocator@D@2@@2@PAU_Node@12@@Z 00424450 f i UiPlayerBar.obj
 0001:00023470       ?lower_bound@?$_Tree@V?$basic_string@DU?$char_traits@D@std@@V?$allocator@D@2@@std@@U?$pair@$$CBV?$basic_string@DU?$char_traits@D@std@@V?$allocator@D@2@@std@@UShortFuncInfo@@@2@U_Kfn@?$map@V?$basic_string@DU?$char_traits@D@std@@V?$allocator@D@2@@std@@UShortFuncInfo@@Ustring_iless@@V?$allocator@UShortFuncInfo@@@2@@2@Ustring_iless@@V?$allocator@UShortFuncInfo@@@2@@std@@QAE?AViterator@12@ABV?$basic_string@DU?$char_traits@D@std@@V?$allocator@D@2@@2@@Z 00424470 f i UiPlayerBar.obj
 0001:000234a0       ?_Mynode@const_iterator@?$_Tree@V?$basic_string@DU?$char_traits@D@std@@V?$allocator@D@2@@std@@U?$pair@$$CBV?$basic_string@DU?$char_traits@D@std@@V?$allocator@D@2@@std@@UShortFuncInfo@@@2@U_Kfn@?$map@V?$basic_string@DU?$char_traits@D@std@@V?$allocator@D@2@@std@@UShortFuncInfo@@Ustring_iless@@V?$allocator@UShortFuncInfo@@@2@@2@Ustring_iless@@V?$allocator@UShortFuncInfo@@@2@@std@@QBEPAU_Node@23@XZ 004244a0 f i UiPlayerBar.obj
 0001:000234b0       ??0iterator@?$_Tree@V?$basic_string@DU?$char_traits@D@std@@V?$allocator@D@2@@std@@U?$pair@$$CBV?$basic_string@DU?$char_traits@D@std@@V?$allocator@D@2@@std@@UShortFuncInfo@@@2@U_Kfn@?$map@V?$basic_string@DU?$char_traits@D@std@@V?$allocator@D@2@@std@@UShortFuncInfo@@Ustring_iless@@V?$allocator@UShortFuncInfo@@@2@@2@Ustring_iless@@V?$allocator@UShortFuncInfo@@@2@@std@@QAE@PAU_Node@12@@Z 004244b0 f i UiPlayerBar.obj
 0001:000234d0       ??R_Kfn@?$map@V?$basic_string@DU?$char_traits@D@std@@V?$allocator@D@2@@std@@UShortFuncInfo@@Ustring_iless@@V?$allocator@UShortFuncInfo@@@2@@std@@QBEABV?$basic_string@DU?$char_traits@D@std@@V?$allocator@D@2@@2@ABU?$pair@$$CBV?$basic_string@DU?$char_traits@D@std@@V?$allocator@D@2@@std@@UShortFuncInfo@@@2@@Z 004244d0 f i UiPlayerBar.obj
 0001:000234e0       ?_Value@?$_Tree@V?$basic_string@DU?$char_traits@D@std@@V?$allocator@D@2@@std@@U?$pair@$$CBV?$basic_string@DU?$char_traits@D@std@@V?$allocator@D@2@@std@@UShortFuncInfo@@@2@U_Kfn@?$map@V?$basic_string@DU?$char_traits@D@std@@V?$allocator@D@2@@std@@UShortFuncInfo@@Ustring_iless@@V?$allocator@UShortFuncInfo@@@2@@2@Ustring_iless@@V?$allocator@UShortFuncInfo@@@2@@std@@KAAAU?$pair@$$CBV?$basic_string@DU?$char_traits@D@std@@V?$allocator@D@2@@std@@UShortFuncInfo@@@2@PAU_Node@12@@Z 004244e0 f i UiPlayerBar.obj
 0001:000234f0       ?_Lbound@?$_Tree@V?$basic_string@DU?$char_traits@D@std@@V?$allocator@D@2@@std@@U?$pair@$$CBV?$basic_string@DU?$char_traits@D@std@@V?$allocator@D@2@@std@@UShortFuncInfo@@@2@U_Kfn@?$map@V?$basic_string@DU?$char_traits@D@std@@V?$allocator@D@2@@std@@UShortFuncInfo@@Ustring_iless@@V?$allocator@UShortFuncInfo@@@2@@2@Ustring_iless@@V?$allocator@UShortFuncInfo@@@2@@std@@IBEPAU_Node@12@ABV?$basic_string@DU?$char_traits@D@std@@V?$allocator@D@2@@2@@Z 004244f0 f i UiPlayerBar.obj
 0001:000235c0       ??0const_iterator@?$_Tree@V?$basic_string@DU?$char_traits@D@std@@V?$allocator@D@2@@std@@U?$pair@$$CBV?$basic_string@DU?$char_traits@D@std@@V?$allocator@D@2@@std@@UShortFuncInfo@@@2@U_Kfn@?$map@V?$basic_string@DU?$char_traits@D@std@@V?$allocator@D@2@@std@@UShortFuncInfo@@Ustring_iless@@V?$allocator@UShortFuncInfo@@@2@@2@Ustring_iless@@V?$allocator@UShortFuncInfo@@@2@@std@@QAE@PAU_Node@12@@Z 004245c0 f i UiPlayerBar.obj
 0001:000235e0       ?_Left@?$_Tree@V?$basic_string@DU?$char_traits@D@std@@V?$allocator@D@2@@std@@U?$pair@$$CBV?$basic_string@DU?$char_traits@D@std@@V?$allocator@D@2@@std@@UShortFuncInfo@@@2@U_Kfn@?$map@V?$basic_string@DU?$char_traits@D@std@@V?$allocator@D@2@@std@@UShortFuncInfo@@Ustring_iless@@V?$allocator@UShortFuncInfo@@@2@@2@Ustring_iless@@V?$allocator@UShortFuncInfo@@@2@@std@@KAAAPAU_Node@12@PAU312@@Z 004245e0 f i UiPlayerBar.obj
 0001:000235f0       ?_Right@?$_Tree@V?$basic_string@DU?$char_traits@D@std@@V?$allocator@D@2@@std@@U?$pair@$$CBV?$basic_string@DU?$char_traits@D@std@@V?$allocator@D@2@@std@@UShortFuncInfo@@@2@U_Kfn@?$map@V?$basic_string@DU?$char_traits@D@std@@V?$allocator@D@2@@std@@UShortFuncInfo@@Ustring_iless@@V?$allocator@UShortFuncInfo@@@2@@2@Ustring_iless@@V?$allocator@UShortFuncInfo@@@2@@std@@KAAAPAU_Node@12@PAU312@@Z 004245f0 f i UiPlayerBar.obj
 0001:00023600       ?_Root@?$_Tree@V?$basic_string@DU?$char_traits@D@std@@V?$allocator@D@2@@std@@U?$pair@$$CBV?$basic_string@DU?$char_traits@D@std@@V?$allocator@D@2@@std@@UShortFuncInfo@@@2@U_Kfn@?$map@V?$basic_string@DU?$char_traits@D@std@@V?$allocator@D@2@@std@@UShortFuncInfo@@Ustring_iless@@V?$allocator@UShortFuncInfo@@@2@@2@Ustring_iless@@V?$allocator@UShortFuncInfo@@@2@@std@@IBEAAPAU_Node@12@XZ 00424600 f i UiPlayerBar.obj
 0001:00023620       ?_Parent@?$_Tree@V?$basic_string@DU?$char_traits@D@std@@V?$allocator@D@2@@std@@U?$pair@$$CBV?$basic_string@DU?$char_traits@D@std@@V?$allocator@D@2@@std@@UShortFuncInfo@@@2@U_Kfn@?$map@V?$basic_string@DU?$char_traits@D@std@@V?$allocator@D@2@@std@@UShortFuncInfo@@Ustring_iless@@V?$allocator@UShortFuncInfo@@@2@@2@Ustring_iless@@V?$allocator@UShortFuncInfo@@@2@@std@@KAAAPAU_Node@12@PAU312@@Z 00424620 f i UiPlayerBar.obj
 0001:00023630       ??0KUiPlayerControlBar@@AAE@XZ 00424630 f   UiPlayerControlBar.obj
 0001:000236f6       ??1KUiPlayerControlBar@@EAE@XZ 004246f6 f   UiPlayerControlBar.obj
 0001:000237bb       ?OpenWindow@KUiPlayerControlBar@@SAPAV1@XZ 004247bb f   UiPlayerControlBar.obj
 0001:00023867       ?GetIfVisible@KUiPlayerControlBar@@SAPAV1@XZ 00424867 f   UiPlayerControlBar.obj
 0001:0002388d       ?CloseWindow@KUiPlayerControlBar@@SAX_N@Z 0042488d f   UiPlayerControlBar.obj
 0001:000238cc       ?Initialize@KUiPlayerControlBar@@AAEXXZ 004248cc f   UiPlayerControlBar.obj
 0001:00023970       ?LoadScheme@KUiPlayerControlBar@@SAXPBD@Z 00424970 f   UiPlayerControlBar.obj
 0001:00023b95       ?Breathe@KUiPlayerControlBar@@EAEXXZ 00424b95 f   UiPlayerControlBar.obj
 0001:00023cdf       ?Add@KUiPlayerControlBar@@AAEXHPAUKStateControl@@@Z 00424cdf f   UiPlayerControlBar.obj
 0001:000243bd       ?Release@KUiPlayerControlBar@@AAEXXZ 004253bd f   UiPlayerControlBar.obj
 0001:00024450       ??_GKUiPlayerControlBar@@EAEPAXI@Z 00425450 f i UiPlayerControlBar.obj
 0001:00024450       ??_EKUiPlayerControlBar@@EAEPAXI@Z 00425450 f i UiPlayerControlBar.obj
 0001:00024480       ?GetIfVisible@KUiStatus@@SAPAV1@XZ 00425480 f   UiStatus.obj
 0001:000244a6       ?OpenWindow@KUiStatus@@SAPAV1@XZ 004254a6 f   UiStatus.obj
 0001:00024578       ?CloseWindow@KUiStatus@@SAX_N@Z 00425578 f   UiStatus.obj
 0001:0002461c       ?Initialize@KUiStatus@@AAEXXZ 0042561c f   UiStatus.obj
 0001:00024b32       ?LoadScheme@KUiStatus@@SAXPBD@Z 00425b32 f   UiStatus.obj
 0001:00024bd4       ?SwitchExpand@KUiStatus@@QAEXH@Z 00425bd4 f   UiStatus.obj
 0001:00024cd3       ?LoadScheme@KUiStatus@@AAEXPAVKIniFile@@@Z 00425cd3 f   UiStatus.obj
 0001:00025345       ?WndProc@KUiStatus@@EAEHIIH@Z 00426345 f   UiStatus.obj
 0001:00025815       ?UseRemainPoint@KUiStatus@@AAEXHH@Z 00426815 f   UiStatus.obj
 0001:0002583d       ?UpdateBaseData@KUiStatus@@QAEXXZ 0042683d f   UiStatus.obj
 0001:0002593e       ?UpdateRuntimeInfo@KUiStatus@@QAEXPAUKUiPlayerRuntimeInfo@@@Z 0042693e f   UiStatus.obj
 0001:000259ea       ?UpdateClientDT@KUiStatus@@SAXXZ 004269ea f   UiStatus.obj
 0001:00025a08       ?UpdateData@KUiStatus@@UAEXXZ 00426a08 f   UiStatus.obj
 0001:00025a23       ?UpdateAllEquips@KUiStatus@@QAEXXZ 00426a23 f   UiStatus.obj
 0001:00025ace       ?UpdateRuntimeAttribute@KUiStatus@@QAEXPAUKUiPlayerAttribute@@@Z 00426ace f   UiStatus.obj
 0001:00025eb7       ?OnEquiptChanged@KUiStatus@@AAEXPAUITEM_PICKDROP_PLACE@@0@Z 00426eb7 f   UiStatus.obj
 0001:00026076       ?UpdateEquip@KUiStatus@@QAEXPAUKUiObjAtRegion@@H@Z 00427076 f   UiStatus.obj
 0001:00026112       ?Breathe@KUiStatus@@UAEXXZ 00427112 f   UiStatus.obj
 0001:00026300       ??0KUiStatus@@AAE@XZ       00427300 f i UiStatus.obj
 0001:000266f0       ??_GKUiStatus@@EAEPAXI@Z   004276f0 f i UiStatus.obj
 0001:000266f0       ??_EKUiStatus@@EAEPAXI@Z   004276f0 f i UiStatus.obj
 0001:00026720       ??1KUiStatus@@EAE@XZ       00427720 f i UiStatus.obj
 0001:00026b10       ??0KUiOptions@@AAE@XZ      00427b10 f   UiOptions.obj
 0001:00026dae       ?CancelMenu@KUiOptions@@AAEXXZ 00427dae f   UiOptions.obj
 0001:00026dea       ?GetIfVisible@KUiOptions@@SAPAV1@XZ 00427dea f   UiOptions.obj
 0001:00026e10       ?OpenWindow@KUiOptions@@SAPAV1@PAVKWndWindow@@@Z 00427e10 f   UiOptions.obj
 0001:00026eec       ?CloseWindow@KUiOptions@@SAXXZ 00427eec f   UiOptions.obj
 0001:00026f50       ?Initialize@KUiOptions@@AAEXXZ 00427f50 f   UiOptions.obj
 0001:00027113       ?LoadScheme@KUiOptions@@SAXPBD@Z 00428113 f   UiOptions.obj
 0001:000271b5       ?LoadScheme@KUiOptions@@AAEXPAVKIniFile@@@Z 004281b5 f   UiOptions.obj
 0001:000275ae       ?WndProc@KUiOptions@@EAEHIIH@Z 004285ae f   UiOptions.obj
 0001:00027782       ?UpdateSettingSet@KUiOptions@@AAEXH_N@Z 00428782 f   UiOptions.obj
 0001:000278bc       ?PopupSeleteSetMenu@KUiOptions@@AAEXHH@Z 004288bc f   UiOptions.obj
 0001:000279e5       ?OnScrollBarPosChanged@KUiOptions@@AAEXPAVKWndWindow@@H@Z 004289e5 f   UiOptions.obj
 0001:00027ae5       ?UpdateAllToggleBtn@KUiOptions@@AAEXXZ 00428ae5 f   UiOptions.obj
 0001:00027ce5       ?UpdateAllStatusImg@KUiOptions@@AAEXXZ 00428ce5 f   UiOptions.obj
 0001:00027da2       ?LoadSetting@KUiOptions@@SAX_N0@Z 00428da2 f   UiOptions.obj
 0001:00028166       ?StoreSetting@KUiOptions@@AAEXXZ 00429166 f   UiOptions.obj
 0001:00028256       ?ToggleOption@KUiOptions@@QAEXH@Z 00429256 f   UiOptions.obj
 0001:00028405       ?SetMusicValue@KUiOptions@@QAEXH@Z 00429405 f   UiOptions.obj
 0001:0002844a       ?SetSoundValue@KUiOptions@@QAEXH@Z 0042944a f   UiOptions.obj
 0001:0002848f       ?SetBrightness@KUiOptions@@QAEXH@Z 0042948f f   UiOptions.obj
 0001:000284e0       ??_GKUiOptions@@EAEPAXI@Z  004294e0 f i UiOptions.obj
 0001:000284e0       ??_EKUiOptions@@EAEPAXI@Z  004294e0 f i UiOptions.obj
 0001:00028510       ??1KUiOptions@@EAE@XZ      00429510 f i UiOptions.obj
 0001:00028680       ?OpenWindow@KUiInit@@SAPAV1@_N0@Z 00429680 f   UiInit.obj
 0001:000287b6       ?CloseWindow@KUiInit@@SAXXZ 004297b6 f   UiInit.obj
 0001:000287e3       ?PlayStartMovie@KUiInit@@AAEXXZ 004297e3 f   UiInit.obj
 0001:00028a09       ?PlayTitleMusic@KUiInit@@SAXXZ 00429a09 f   UiInit.obj
 0001:00028b5a       ?StopTitleMusic@KUiInit@@SAXXZ 00429b5a f   UiInit.obj
 0001:00028b88       ?LoadScheme@KUiInit@@AAEXPBD@Z 00429b88 f   UiInit.obj
 0001:00028dbb       ?Initialize@KUiInit@@AAEXXZ 00429dbb f   UiInit.obj
 0001:00028ee9       ?WndProc@KUiInit@@EAEHIIH@Z 00429ee9 f   UiInit.obj
 0001:00028f89       ?OnKeyDown@KUiInit@@AAEHI@Z 00429f89 f   UiInit.obj
 0001:000290ee       ?OnClickButton@KUiInit@@AAEXPAVKWndButton@@@Z 0042a0ee f   UiInit.obj
 0001:0002916a       ?OnAutoLogin@KUiInit@@AAEXXZ 0042a16a f   UiInit.obj
 0001:000291f2       ?GetActiveBtn@KUiInit@@AAEPAVKWndButton@@XZ 0042a1f2 f   UiInit.obj
 0001:00029285       ?ShowCompleted@KUiInit@@EAEXXZ 0042a285 f   UiInit.obj
 0001:000292a0       ??0KUiInit@@AAE@XZ         0042a2a0 f i UiInit.obj
 0001:00029390       ??_EKUiInit@@EAEPAXI@Z     0042a390 f i UiInit.obj
 0001:00029390       ??_GKUiInit@@EAEPAXI@Z     0042a390 f i UiInit.obj
 0001:000293c0       ??1KUiInit@@EAE@XZ         0042a3c0 f i UiInit.obj
 0001:000294b0       ?OpenWindow@KBuySelectItemShop@@SAPAV1@PAUKUiObjAtContRegion@@PAUKUiItemBuySelInfo@@@Z 0042a4b0 f   BuySlectItemShop.obj
 0001:0002963b       ??0KBuySelectItemShop@@AAE@XZ 0042a63b f   BuySlectItemShop.obj
 0001:00029701       ?GetIfVisible@KBuySelectItemShop@@SAPAV1@XZ 0042a701 f   BuySlectItemShop.obj
 0001:00029727       ?CloseWindow@KBuySelectItemShop@@SAX_N@Z 0042a727 f   BuySlectItemShop.obj
 0001:00029769       ?Show@KBuySelectItemShop@@EAEXXZ 0042a769 f   BuySlectItemShop.obj
 0001:0002986b       ?Hide@KBuySelectItemShop@@EAEXXZ 0042a86b f   BuySlectItemShop.obj
 0001:0002988a       ?Initialize@KBuySelectItemShop@@AAEHXZ 0042a88a f   BuySlectItemShop.obj
 0001:00029951       ?LoadScheme@KBuySelectItemShop@@AAEXPBD@Z 0042a951 f   BuySlectItemShop.obj
 0001:00029b48       ?WndProc@KBuySelectItemShop@@EAEHIIH@Z 0042ab48 f   BuySlectItemShop.obj
 0001:00029c2f       ?OnCancel@KBuySelectItemShop@@AAEXXZ 0042ac2f f   BuySlectItemShop.obj
 0001:00029c50       ??_EKBuySelectItemShop@@EAEPAXI@Z 0042ac50 f i BuySlectItemShop.obj
 0001:00029c50       ??_GKBuySelectItemShop@@EAEPAXI@Z 0042ac50 f i BuySlectItemShop.obj
 0001:00029c80       ??1KBuySelectItemShop@@EAE@XZ 0042ac80 f i BuySlectItemShop.obj
 0001:00029d20       ?OpenWindow@KUiKtc@@SAPAV1@XZ 0042ad20 f   KUiKtc.obj
 0001:00029dcc       ?CloseWindow@KUiKtc@@SAXXZ 0042adcc f   KUiKtc.obj
 0001:00029def       ?Initialize@KUiKtc@@AAEXXZ 0042adef f   KUiKtc.obj
 0001:00029e4f       ?LoadScheme@KUiKtc@@SAXPBD@Z 0042ae4f f   KUiKtc.obj
 0001:00029ef7       ?DefaultScheme@KUiKtc@@SAXPBD@Z 0042aef7 f   KUiKtc.obj
 0001:00029fdd       ?Breathe@KUiKtc@@EAEXXZ    0042afdd f   KUiKtc.obj
 0001:0002a000       ??0KUiKtc@@QAE@XZ          0042b000 f i KUiKtc.obj
 0001:0002a020       ??_EKUiKtc@@EAEPAXI@Z      0042b020 f i KUiKtc.obj
 0001:0002a020       ??_GKUiKtc@@EAEPAXI@Z      0042b020 f i KUiKtc.obj
 0001:0002a050       ??1KUiKtc@@EAE@XZ          0042b050 f i KUiKtc.obj
 0001:0002a070       ?OpenWindow@KUiAuto@@SAPAV1@XZ 0042b070 f   UiAuto.obj
 0001:0002a14c       ?CloseWindow@KUiAuto@@SAXXZ 0042b14c f   UiAuto.obj
 0001:0002a1a2       ?GetIfVisible@KUiAuto@@SAPAV1@XZ 0042b1a2 f   UiAuto.obj
 0001:0002a1c8       ?Initialize@KUiAuto@@AAEXXZ 0042b1c8 f   UiAuto.obj
 0001:0002a2a0       ?LoadScheme@KUiAuto@@SAXXZ 0042b2a0 f   UiAuto.obj
 0001:0002a4bc       ?WndProc@KUiAuto@@EAEHIIH@Z 0042b4bc f   UiAuto.obj
 0001:0002a56e       ?UpdateButton@KUiAuto@@AAEXH@Z 0042b56e f   UiAuto.obj
 0001:0002a5a3       ?OnStart@KUiAuto@@AAEXXZ   0042b5a3 f   UiAuto.obj
 0001:0002a5d8       ?OnStop@KUiAuto@@AAEXXZ    0042b5d8 f   UiAuto.obj
 0001:0002a60d       ?OnSave@KUiAuto@@AAEXXZ    0042b60d f   UiAuto.obj
 0001:0002a618       ?UpdateSceneTimeInfo@KUiAuto@@SAXPAUKUiSceneTimeInfo@@@Z 0042b618 f   UiAuto.obj
 0001:0002a646       ?Initialize@KUiFight@@QAEXXZ 0042b646 f   UiAuto.obj
 0001:0002a8ea       ?LoadScheme@KUiFight@@QAEXXZ 0042b8ea f   UiAuto.obj
 0001:0002ad76       ?OnCheckInput@KUiFight@@AAEXXZ 0042bd76 f   UiAuto.obj
 0001:0002ada6       ?WndProc@KUiFight@@EAEHIIH@Z 0042bda6 f   UiAuto.obj
 0001:0002b46c       ?InsertMoveMpsList@KUiFight@@AAEHHHH@Z 0042c46c f   UiAuto.obj
 0001:0002b56b       ?SetMoveMpsList@KUiFight@@AAEXXZ 0042c56b f   UiAuto.obj
 0001:0002b705       ?PlayerList@KUiFight@@AAEXH@Z 0042c705 f   UiAuto.obj
 0001:0002b8c2       ?OnAutoAttack@KUiFight@@QAEXXZ 0042c8c2 f   UiAuto.obj
 0001:0002b934       ?OnBuffSkill1@KUiFight@@AAEXXZ 0042c934 f   UiAuto.obj
 0001:0002b9a6       ?OnBuffSkill2@KUiFight@@AAEXXZ 0042c9a6 f   UiAuto.obj
 0001:0002ba18       ?OnBuffSkill3@KUiFight@@AAEXXZ 0042ca18 f   UiAuto.obj
 0001:0002ba8a       ?OnFightRadius@KUiFight@@AAEXXZ 0042ca8a f   UiAuto.obj
 0001:0002bb43       ?OnArrayRadius@KUiFight@@AAEXXZ 0042cb43 f   UiAuto.obj
 0001:0002bc8c       ?PopUpFollow@KUiFight@@AAEXXZ 0042cc8c f   UiAuto.obj
 0001:0002bf2f       ?PopUpAutoAttack@KUiFight@@AAEXXZ 0042cf2f f   UiAuto.obj
 0001:0002c114       ?ProcessPopUpAttack@KUiFight@@AAEXH@Z 0042d114 f   UiAuto.obj
 0001:0002c1c0       ?OnActiveMove@KUiFight@@AAEXXZ 0042d1c0 f   UiAuto.obj
 0001:0002c28d       ?SupportSkillPopup@KUiFight@@AAEXH@Z 0042d28d f   UiAuto.obj
 0001:0002c604       ?SetSupportSkill@KUiFight@@AAEXHH@Z 0042d604 f   UiAuto.obj
 0001:0002c7ff       ?LoadFightSetting@KUiFight@@QAEXXZ 0042d7ff f   UiAuto.obj
 0001:0002ce35       ?SaveFightSetting@KUiFight@@QAEXXZ 0042de35 f   UiAuto.obj
 0001:0002d225       ?Initialize@KUiRecover@@QAEXXZ 0042e225 f   UiAuto.obj
 0001:0002d51b       ?LoadScheme@KUiRecover@@QAEXXZ 0042e51b f   UiAuto.obj
 0001:0002da62       ?WndProc@KUiRecover@@EAEHIIH@Z 0042ea62 f   UiAuto.obj
 0001:0002df02       ?OnCheckInput@KUiRecover@@AAEXXZ 0042ef02 f   UiAuto.obj
 0001:0002e05f       ?OnBuff@KUiRecover@@AAEXXZ 0042f05f f   UiAuto.obj
 0001:0002e113       ?OnDurability@KUiRecover@@AAEXXZ 0042f113 f   UiAuto.obj
 0001:0002e1c7       ?OnCheckLife@KUiRecover@@AAEXXZ 0042f1c7 f   UiAuto.obj
 0001:0002e239       ?OnCheckMana@KUiRecover@@AAEXXZ 0042f239 f   UiAuto.obj
 0001:0002e2ab       ?OnCheckLife2@KUiRecover@@AAEXXZ 0042f2ab f   UiAuto.obj
 0001:0002e35f       ?OnCheckMana2@KUiRecover@@AAEXXZ 0042f35f f   UiAuto.obj
 0001:0002e413       ?OnUseTTL@KUiRecover@@AAEXXZ 0042f413 f   UiAuto.obj
 0001:0002e485       ?OnMoreMoney@KUiRecover@@AAEXXZ 0042f485 f   UiAuto.obj
 0001:0002e4f7       ?OnNoLife@KUiRecover@@AAEXXZ 0042f4f7 f   UiAuto.obj
 0001:0002e569       ?OnNoMana@KUiRecover@@AAEXXZ 0042f569 f   UiAuto.obj
 0001:0002e5db       ?OnUseGD@KUiRecover@@AAEXXZ 0042f5db f   UiAuto.obj
 0001:0002e64d       ?PopUpChooseTeam@KUiRecover@@AAEXXZ 0042f64d f   UiAuto.obj
 0001:0002e832       ?ProcessPopUpChooseTeam@KUiRecover@@AAEXH@Z 0042f832 f   UiAuto.obj
 0001:0002e965       ?OnActiveChangeAura@KUiRecover@@AAEXXZ 0042f965 f   UiAuto.obj
 0001:0002e9d7       ?AuraSkillPopup@KUiRecover@@AAEXH@Z 0042f9d7 f   UiAuto.obj
 0001:0002ecd8       ?SetAuraSkill@KUiRecover@@AAEXHH@Z 0042fcd8 f   UiAuto.obj
 0001:0002ee11       ?OnChooseTeam@KUiRecover@@AAEXXZ 0042fe11 f   UiAuto.obj
 0001:0002ee83       ?LoadRecoverSetting@KUiRecover@@QAEXXZ 0042fe83 f   UiAuto.obj
 0001:0002f743       ?SaveRecoverSetting@KUiRecover@@QAEXXZ 00430743 f   UiAuto.obj
 0001:0002fcf3       ?Initialize@KUiPick@@QAEXXZ 00430cf3 f   UiAuto.obj
 0001:0002ff36       ?LoadScheme@KUiPick@@QAEXXZ 00430f36 f   UiAuto.obj
 0001:00030209       ?WndProc@KUiPick@@EAEHIIH@Z 00431209 f   UiAuto.obj
 0001:0003076a       ?PopupSelRoomNE@KUiPick@@AAEXXZ 0043176a f   UiAuto.obj
 0001:000308ac       ?SetPortalRoomNE@KUiPick@@AAEXH@Z 004318ac f   UiAuto.obj
 0001:00030907       ?OnPick@KUiPick@@AAEXXZ    00431907 f   UiAuto.obj
 0001:00030979       ?OnFillterItem@KUiPick@@AAEXXZ 00431979 f   UiAuto.obj
 0001:000309eb       ?OnGiveItem@KUiPick@@AAEXXZ 004319eb f   UiAuto.obj
 0001:00030a5d       ?SetFilterMagicList@KUiPick@@AAEXXZ 00431a5d f   UiAuto.obj
 0001:00030b96       ?FilterSameMagic@KUiPick@@AAEHPBD@Z 00431b96 f   UiAuto.obj
 0001:00030be8       ?FindSameMagic@KUiPick@@AAEHPBD@Z 00431be8 f   UiAuto.obj
 0001:00030c36       ?SetPick@KUiPick@@AAEXHH@Z 00431c36 f   UiAuto.obj
 0001:00030cee       ?OnSelectPickType@KUiPick@@AAEXH@Z 00431cee f   UiAuto.obj
 0001:00030f73       ?LoadPickSetting@KUiPick@@QAEXXZ 00431f73 f   UiAuto.obj
 0001:000313eb       ?SavePickSetting@KUiPick@@QAEXXZ 004323eb f   UiAuto.obj
 0001:000316c1       ?Initialize@KUiOther@@QAEXXZ 004326c1 f   UiAuto.obj
 0001:000316cc       ?LoadScheme@KUiOther@@QAEXXZ 004326cc f   UiAuto.obj
 0001:0003173b       ?WndProc@KUiOther@@EAEHIIH@Z 0043273b f   UiAuto.obj
 0001:00031780       ??0KUiAuto@@AAE@XZ         00432780 f i UiAuto.obj
 0001:00031880       ??_GKUiAuto@@EAEPAXI@Z     00432880 f i UiAuto.obj
 0001:00031880       ??_EKUiAuto@@EAEPAXI@Z     00432880 f i UiAuto.obj
 0001:000318b0       ??1KUiAuto@@EAE@XZ         004328b0 f i UiAuto.obj
 0001:000319b0       ??0KUiOther@@QAE@XZ        004329b0 f i UiAuto.obj
 0001:000319d0       ??1KUiOther@@UAE@XZ        004329d0 f i UiAuto.obj
 0001:000319f0       ??0KUiPick@@QAE@XZ         004329f0 f i UiAuto.obj
 0001:00031ba0       ??0KWndShadow@@QAE@XZ      00432ba0 f i UiAuto.obj
 0001:00031bd0       ??_GKWndShadow@@UAEPAXI@Z  00432bd0 f i UiAuto.obj
 0001:00031bd0       ??_EKWndShadow@@UAEPAXI@Z  00432bd0 f i UiAuto.obj
 0001:00031c00       ??1KWndShadow@@UAE@XZ      00432c00 f i UiAuto.obj
 0001:00031c20       ??1KUiPick@@UAE@XZ         00432c20 f i UiAuto.obj
 0001:00031dd0       ??0KUiFight@@QAE@XZ        00432dd0 f i UiAuto.obj
 0001:00032050       ??1KUiFight@@UAE@XZ        00433050 f i UiAuto.obj
 0001:000322c0       ??0KUiRecover@@QAE@XZ      004332c0 f i UiAuto.obj
 0001:00032550       ??1KUiRecover@@UAE@XZ      00433550 f i UiAuto.obj
 0001:000327d0       ??_GKUiOther@@UAEPAXI@Z    004337d0 f i UiAuto.obj
 0001:000327d0       ??_EKUiOther@@UAEPAXI@Z    004337d0 f i UiAuto.obj
 0001:00032800       ??0KWndPage@@QAE@XZ        00433800 f i UiAuto.obj
 0001:00032820       ??1KWndPage@@UAE@XZ        00433820 f i UiAuto.obj
 0001:00032840       ??_EKUiPick@@UAEPAXI@Z     00433840 f i UiAuto.obj
 0001:00032840       ??_GKUiPick@@UAEPAXI@Z     00433840 f i UiAuto.obj
 0001:00032870       ??_GKUiFight@@UAEPAXI@Z    00433870 f i UiAuto.obj
 0001:00032870       ??_EKUiFight@@UAEPAXI@Z    00433870 f i UiAuto.obj
 0001:000328a0       ??_GKUiRecover@@UAEPAXI@Z  004338a0 f i UiAuto.obj
 0001:000328a0       ??_EKUiRecover@@UAEPAXI@Z  004338a0 f i UiAuto.obj
 0001:000328d0       ??_EKWndPage@@UAEPAXI@Z    004338d0 f i UiAuto.obj
 0001:000328d0       ??_GKWndPage@@UAEPAXI@Z    004338d0 f i UiAuto.obj
 0001:00032900       ?GetCurSel@KWndList2@@QAEHXZ 00433900 f i UiAuto.obj
 0001:00032920       ?GetIfVisible@KUiBuyShop@@SAPAV1@XZ 00433920 f   UiBuyShop.obj
 0001:00032946       ?OpenWindow@KUiBuyShop@@SAPAV1@PAD@Z 00433946 f   UiBuyShop.obj
 0001:00032a49       ?CloseWindow@KUiBuyShop@@SAXXZ 00433a49 f   UiBuyShop.obj
 0001:00032aa3       ?Initialize@KUiBuyShop@@AAEXXZ 00433aa3 f   UiBuyShop.obj
 0001:00032b46       ?UpdateItem@KUiBuyShop@@QAEXPAUKUiObjAtRegion@@H@Z 00433b46 f   UiBuyShop.obj
 0001:00032bc8       ?LoadScheme@KUiBuyShop@@SAXPBD@Z 00433bc8 f   UiBuyShop.obj
 0001:00032d05       ?WndProc@KUiBuyShop@@EAEHIIH@Z 00433d05 f   UiBuyShop.obj
 0001:00032df9       ?OnItemPickDrop@KUiBuyShop@@AAEXPAUITEM_PICKDROP_PLACE@@0@Z 00433df9 f   UiBuyShop.obj
 0001:00032ec0       ??0KUiBuyShop@@AAE@XZ      00433ec0 f i UiBuyShop.obj
 0001:00032f40       ??_GKUiBuyShop@@EAEPAXI@Z  00433f40 f i UiBuyShop.obj
 0001:00032f40       ??_EKUiBuyShop@@EAEPAXI@Z  00433f40 f i UiBuyShop.obj
 0001:00032f70       ??1KUiBuyShop@@EAE@XZ      00433f70 f i UiBuyShop.obj
 0001:00032ff0       ?GetIfVisible@KUiCheckItemBox@@SAPAV1@XZ 00433ff0 f   UiCheckItemBox.obj
 0001:00033016       ?OpenWindow@KUiCheckItemBox@@SAPAV1@PAD0@Z 00434016 f   UiCheckItemBox.obj
 0001:00033130       ?CloseWindow@KUiCheckItemBox@@SAXXZ 00434130 f   UiCheckItemBox.obj
 0001:0003315d       ?Initialize@KUiCheckItemBox@@AAEXXZ 0043415d f   UiCheckItemBox.obj
 0001:0003322f       ?UpdateData@KUiCheckItemBox@@EAEXXZ 0043422f f   UiCheckItemBox.obj
 0001:000332dd       ?UpdateItem@KUiCheckItemBox@@QAEXPAUKUiObjAtRegion@@H@Z 004342dd f   UiCheckItemBox.obj
 0001:0003336c       ?LoadScheme@KUiCheckItemBox@@SAXPBD@Z 0043436c f   UiCheckItemBox.obj
 0001:000334f7       ?WndProc@KUiCheckItemBox@@EAEHIIH@Z 004344f7 f   UiCheckItemBox.obj
 0001:00033620       ?OnItemPickDrop@KUiCheckItemBox@@AAEXPAUITEM_PICKDROP_PLACE@@0@Z 00434620 f   UiCheckItemBox.obj
 0001:00033700       ??0KUiCheckItemBox@@AAE@XZ 00434700 f i UiCheckItemBox.obj
 0001:000337b0       ??_EKUiCheckItemBox@@EAEPAXI@Z 004347b0 f i UiCheckItemBox.obj
 0001:000337b0       ??_GKUiCheckItemBox@@EAEPAXI@Z 004347b0 f i UiCheckItemBox.obj
 0001:000337e0       ??1KUiCheckItemBox@@EAE@XZ 004347e0 f i UiCheckItemBox.obj
 0001:00033880       ??0KUiGetMoney@@AAE@XZ     00434880 f   UiGetMoney.obj
 0001:00033918       ?OpenWindow@KUiGetMoney@@SAPAV1@HHPAVKWndWindow@@I0@Z 00434918 f   UiGetMoney.obj
 0001:00033a30       ?CloseWindow@KUiGetMoney@@SAX_N@Z 00434a30 f   UiGetMoney.obj
 0001:00033a82       ?GetIfVisible@KUiGetMoney@@SAPAV1@XZ 00434a82 f   UiGetMoney.obj
 0001:00033aa8       ?Show@KUiGetMoney@@AAEXPAVKWndWindow@@@Z 00434aa8 f   UiGetMoney.obj
 0001:00033b67       ?Hide@KUiGetMoney@@EAEXXZ  00434b67 f   UiGetMoney.obj
 0001:00033b86       ?Initialize@KUiGetMoney@@AAEHXZ 00434b86 f   UiGetMoney.obj
 0001:00033c1b       ?LoadScheme@KUiGetMoney@@SAXPBD@Z 00434c1b f   UiGetMoney.obj
 0001:00033d45       ?WndProc@KUiGetMoney@@EAEHIIH@Z 00434d45 f   UiGetMoney.obj
 0001:00033e42       ?OnOk@KUiGetMoney@@AAEXXZ  00434e42 f   UiGetMoney.obj
 0001:00033ea8       ?OnCheckInput@KUiGetMoney@@AAEXXZ 00434ea8 f   UiGetMoney.obj
 0001:00033f3e       ?OnCancel@KUiGetMoney@@AAEXXZ 00434f3e f   UiGetMoney.obj
 0001:00033f90       ??_GKUiGetMoney@@EAEPAXI@Z 00434f90 f i UiGetMoney.obj
 0001:00033f90       ??_EKUiGetMoney@@EAEPAXI@Z 00434f90 f i UiGetMoney.obj
 0001:00033fc0       ??1KUiGetMoney@@EAE@XZ     00434fc0 f i UiGetMoney.obj
 0001:00034040       ?GetIfVisible@KUiItem@@SAPAV1@XZ 00435040 f   UiItem.obj
 0001:00034066       ?OpenWindow@KUiItem@@SAPAV1@XZ 00435066 f   UiItem.obj
 0001:00034138       ?CloseWindow@KUiItem@@SAX_N@Z 00435138 f   UiItem.obj
 0001:000341ad       ?Initialize@KUiItem@@AAEXXZ 004351ad f   UiItem.obj
 0001:000342ee       ?Breathe@KUiItem@@UAEXXZ   004352ee f   UiItem.obj
 0001:00034417       ?OnNpcTradeMode@KUiItem@@SAX_N@Z 00435417 f   UiItem.obj
 0001:00034444       ?UpdateData@KUiItem@@EAEXXZ 00435444 f   UiItem.obj
 0001:00034684       ?UpdateItem@KUiItem@@QAEXPAUKUiObjAtRegion@@H@Z 00435684 f   UiItem.obj
 0001:00034713       ?LoadScheme@KUiItem@@SAXPBD@Z 00435713 f   UiItem.obj
 0001:0003493a       ?OnLeftShiftClickItem@KUiItem@@AAEXPAUKUiDraggedObject@@@Z 0043593a f   UiItem.obj
 0001:00034a45       ?OnClickItem@KUiItem@@AAEXPAUKUiDraggedObject@@_N@Z 00435a45 f   UiItem.obj
 0001:00034b56       ?OnRepairItem@KUiItem@@AAEXPAUKUiDraggedObject@@@Z 00435b56 f   UiItem.obj
 0001:00034bfd       ?WndProc@KUiItem@@EAEHIIH@Z 00435bfd f   UiItem.obj
 0001:00034ebc       ?OnGetMoney@KUiItem@@AAEXH@Z 00435ebc f   UiItem.obj
 0001:00034ef1       ?OnItemPickDrop@KUiItem@@AAEXPAUITEM_PICKDROP_PLACE@@0@Z 00435ef1 f   UiItem.obj
 0001:00035115       ?UpdateButton@KUiItem@@SAXH@Z 00436115 f   UiItem.obj
 0001:00035140       ??0KUiItem@@AAE@XZ         00436140 f i UiItem.obj
 0001:00035230       ??_EKUiItem@@EAEPAXI@Z     00436230 f i UiItem.obj
 0001:00035230       ??_GKUiItem@@EAEPAXI@Z     00436230 f i UiItem.obj
 0001:00035260       ??1KUiItem@@EAE@XZ         00436260 f i UiItem.obj
 0001:00035350       ?OpenWindow@KUiLoginPWStoreBox@@SAPAV1@XZ 00436350 f   UiLoginPWStoreBox.obj
 0001:00035411       ??0KUiLoginPWStoreBox@@AAE@XZ 00436411 f   UiLoginPWStoreBox.obj
 0001:00035555       ?GetIfVisible@KUiLoginPWStoreBox@@SAPAV1@XZ 00436555 f   UiLoginPWStoreBox.obj
 0001:0003557b       ?CloseWindow@KUiLoginPWStoreBox@@SAX_N@Z 0043657b f   UiLoginPWStoreBox.obj
 0001:000355bd       ?Show@KUiLoginPWStoreBox@@EAEXXZ 004365bd f   UiLoginPWStoreBox.obj
 0001:000355ef       ?Hide@KUiLoginPWStoreBox@@EAEXXZ 004365ef f   UiLoginPWStoreBox.obj
 0001:0003560e       ?Initialize@KUiLoginPWStoreBox@@AAEXXZ 0043660e f   UiLoginPWStoreBox.obj
 0001:000357a5       ?LoadScheme@KUiLoginPWStoreBox@@AAEXPBD@Z 004367a5 f   UiLoginPWStoreBox.obj
 0001:00035a84       ?WndProc@KUiLoginPWStoreBox@@EAEHIIH@Z 00436a84 f   UiLoginPWStoreBox.obj
 0001:00035cee       ?OnOk@KUiLoginPWStoreBox@@AAEXXZ 00436cee f   UiLoginPWStoreBox.obj
 0001:00035d8d       ?OnCancel@KUiLoginPWStoreBox@@AAEXXZ 00436d8d f   UiLoginPWStoreBox.obj
 0001:00035db0       ??_GKUiLoginPWStoreBox@@EAEPAXI@Z 00436db0 f i UiLoginPWStoreBox.obj
 0001:00035db0       ??_EKUiLoginPWStoreBox@@EAEPAXI@Z 00436db0 f i UiLoginPWStoreBox.obj
 0001:00035de0       ??1KUiLoginPWStoreBox@@EAE@XZ 00436de0 f i UiLoginPWStoreBox.obj
 0001:00035f30       ?OpenWindow@KUiNewPWStoreBox@@SAPAV1@XZ 00436f30 f   UiNewPWStoreBox.obj
 0001:00035ff1       ??0KUiNewPWStoreBox@@AAE@XZ 00436ff1 f   UiNewPWStoreBox.obj
 0001:00036081       ?GetIfVisible@KUiNewPWStoreBox@@SAPAV1@XZ 00437081 f   UiNewPWStoreBox.obj
 0001:000360a7       ?CloseWindow@KUiNewPWStoreBox@@SAX_N@Z 004370a7 f   UiNewPWStoreBox.obj
 0001:000360e9       ?Show@KUiNewPWStoreBox@@EAEXXZ 004370e9 f   UiNewPWStoreBox.obj
 0001:0003612e       ?Hide@KUiNewPWStoreBox@@EAEXXZ 0043712e f   UiNewPWStoreBox.obj
 0001:0003614d       ?Initialize@KUiNewPWStoreBox@@AAEXXZ 0043714d f   UiNewPWStoreBox.obj
 0001:000361f7       ?LoadScheme@KUiNewPWStoreBox@@AAEXPBD@Z 004371f7 f   UiNewPWStoreBox.obj
 0001:00036350       ?WndProc@KUiNewPWStoreBox@@EAEHIIH@Z 00437350 f   UiNewPWStoreBox.obj
 0001:00036403       ?OnOk@KUiNewPWStoreBox@@AAEXXZ 00437403 f   UiNewPWStoreBox.obj
 0001:00036505       ?OnCancel@KUiNewPWStoreBox@@AAEXXZ 00437505 f   UiNewPWStoreBox.obj
 0001:00036520       ??_GKUiNewPWStoreBox@@EAEPAXI@Z 00437520 f i UiNewPWStoreBox.obj
 0001:00036520       ??_EKUiNewPWStoreBox@@EAEPAXI@Z 00437520 f i UiNewPWStoreBox.obj
 0001:00036550       ??1KUiNewPWStoreBox@@EAE@XZ 00437550 f i UiNewPWStoreBox.obj
 0001:000365e0       ?Initialize@KUiPGBoxItemPage1@@QAEXXZ 004375e0 f   UiPGBoxItem.obj
 0001:000366a6       ?LoadScheme@KUiPGBoxItemPage1@@QAEXPBD@Z 004376a6 f   UiPGBoxItem.obj
 0001:0003688d       ?WndProc@KUiPGBoxItemPage1@@EAEHIIH@Z 0043788d f   UiPGBoxItem.obj
 0001:0003696a       ?OnEquiptChanged@KUiPGBoxItemPage1@@AAEXPAUITEM_PICKDROP_PLACE@@0@Z 0043796a f   UiPGBoxItem.obj
 0001:00036ace       ?UpdateDataP@KUiPGBoxItemPage1@@QAEXPAUKUiObjAtRegion@@@Z 00437ace f   UiPGBoxItem.obj
 0001:00036b4b       ?UpdateEquip@KUiPGBoxItemPage1@@QAEXPAUKUiObjAtRegion@@H@Z 00437b4b f   UiPGBoxItem.obj
 0001:00036bdc       ?Initialize@KUiPGBoxItemPage2@@QAEXXZ 00437bdc f   UiPGBoxItem.obj
 0001:00036cb4       ?LoadScheme@KUiPGBoxItemPage2@@QAEXPBD@Z 00437cb4 f   UiPGBoxItem.obj
 0001:00036ec2       ?WndProc@KUiPGBoxItemPage2@@EAEHIIH@Z 00437ec2 f   UiPGBoxItem.obj
 0001:00036f9f       ?OnEquiptChanged@KUiPGBoxItemPage2@@AAEXPAUITEM_PICKDROP_PLACE@@0@Z 00437f9f f   UiPGBoxItem.obj
 0001:00037106       ?UpdateDataP@KUiPGBoxItemPage2@@QAEXPAUKUiObjAtRegion@@@Z 00438106 f   UiPGBoxItem.obj
 0001:00037189       ?UpdateEquip@KUiPGBoxItemPage2@@QAEXPAUKUiObjAtRegion@@H@Z 00438189 f   UiPGBoxItem.obj
 0001:0003721d       ?Initialize@KUiPGBoxItemPage3@@QAEXXZ 0043821d f   UiPGBoxItem.obj
 0001:000372d1       ?LoadScheme@KUiPGBoxItemPage3@@QAEXPBD@Z 004382d1 f   UiPGBoxItem.obj
 0001:00037491       ?WndProc@KUiPGBoxItemPage3@@EAEHIIH@Z 00438491 f   UiPGBoxItem.obj
 0001:0003756e       ?OnEquiptChanged@KUiPGBoxItemPage3@@AAEXPAUITEM_PICKDROP_PLACE@@0@Z 0043856e f   UiPGBoxItem.obj
 0001:000376d5       ?UpdateDataP@KUiPGBoxItemPage3@@QAEXPAUKUiObjAtRegion@@@Z 004386d5 f   UiPGBoxItem.obj
 0001:00037758       ?UpdateEquip@KUiPGBoxItemPage3@@QAEXPAUKUiObjAtRegion@@H@Z 00438758 f   UiPGBoxItem.obj
 0001:000377ec       ?Initialize@KUiPGBoxItemPage4@@QAEXXZ 004387ec f   UiPGBoxItem.obj
 0001:000378c4       ?LoadScheme@KUiPGBoxItemPage4@@QAEXPBD@Z 004388c4 f   UiPGBoxItem.obj
 0001:00037ad2       ?WndProc@KUiPGBoxItemPage4@@EAEHIIH@Z 00438ad2 f   UiPGBoxItem.obj
 0001:00037baf       ?OnEquiptChanged@KUiPGBoxItemPage4@@AAEXPAUITEM_PICKDROP_PLACE@@0@Z 00438baf f   UiPGBoxItem.obj
 0001:00037d16       ?UpdateDataP@KUiPGBoxItemPage4@@QAEXPAUKUiObjAtRegion@@@Z 00438d16 f   UiPGBoxItem.obj
 0001:00037d99       ?UpdateEquip@KUiPGBoxItemPage4@@QAEXPAUKUiObjAtRegion@@H@Z 00438d99 f   UiPGBoxItem.obj
 0001:00037e2d       ?Initialize@KUiPGBoxItemPage5@@QAEXXZ 00438e2d f   UiPGBoxItem.obj
 0001:00037e38       ?LoadScheme@KUiPGBoxItemPage5@@QAEXPBD@Z 00438e38 f   UiPGBoxItem.obj
 0001:00037ed9       ?WndProc@KUiPGBoxItemPage5@@EAEHIIH@Z 00438ed9 f   UiPGBoxItem.obj
 0001:00037efa       ?OpenWindow@KUiPGBoxItem@@SAPAV1@XZ 00438efa f   UiPGBoxItem.obj
 0001:00037fca       ?GetIfVisible@KUiPGBoxItem@@SAPAV1@XZ 00438fca f   UiPGBoxItem.obj
 0001:00037ff0       ?CloseWindow@KUiPGBoxItem@@SAX_N@Z 00438ff0 f   UiPGBoxItem.obj
 0001:0003803c       ?Initialize@KUiPGBoxItem@@AAEXXZ 0043903c f   UiPGBoxItem.obj
 0001:0003813c       ?LoadScheme@KUiPGBoxItem@@SAXPBD@Z 0043913c f   UiPGBoxItem.obj
 0001:000382ca       ?WndProc@KUiPGBoxItem@@EAEHIIH@Z 004392ca f   UiPGBoxItem.obj
 0001:0003830f       ?UpdateData@KUiPGBoxItem@@SAXXZ 0043930f f   UiPGBoxItem.obj
 0001:000383a1       ?UpdateEquip@KUiPGBoxItem@@SAXPAUKUiObjAtRegion@@H@Z 004393a1 f   UiPGBoxItem.obj
 0001:00038410       ??0KUiPGBoxItem@@AAE@XZ    00439410 f i UiPGBoxItem.obj
 0001:00038520       ??_GKUiPGBoxItem@@EAEPAXI@Z 00439520 f i UiPGBoxItem.obj
 0001:00038520       ??_EKUiPGBoxItem@@EAEPAXI@Z 00439520 f i UiPGBoxItem.obj
 0001:00038550       ??1KUiPGBoxItem@@EAE@XZ    00439550 f i UiPGBoxItem.obj
 0001:00038660       ??0KUiPGBoxItemPage1@@QAE@XZ 00439660 f i UiPGBoxItem.obj
 0001:00038730       ??1KUiPGBoxItemPage1@@UAE@XZ 00439730 f i UiPGBoxItem.obj
 0001:000387f0       ??0KUiPGBoxItemPage2@@QAE@XZ 004397f0 f i UiPGBoxItem.obj
 0001:000388d0       ??1KUiPGBoxItemPage2@@UAE@XZ 004398d0 f i UiPGBoxItem.obj
 0001:000389a0       ??0KUiPGBoxItemPage3@@QAE@XZ 004399a0 f i UiPGBoxItem.obj
 0001:00038a50       ??1KUiPGBoxItemPage3@@UAE@XZ 00439a50 f i UiPGBoxItem.obj
 0001:00038af0       ??0KUiPGBoxItemPage4@@QAE@XZ 00439af0 f i UiPGBoxItem.obj
 0001:00038bd0       ??1KUiPGBoxItemPage4@@UAE@XZ 00439bd0 f i UiPGBoxItem.obj
 0001:00038ca0       ??0KUiPGBoxItemPage5@@QAE@XZ 00439ca0 f i UiPGBoxItem.obj
 0001:00038cc0       ??1KUiPGBoxItemPage5@@UAE@XZ 00439cc0 f i UiPGBoxItem.obj
 0001:00038ce0       ??_EKUiPGBoxItemPage1@@UAEPAXI@Z 00439ce0 f i UiPGBoxItem.obj
 0001:00038ce0       ??_GKUiPGBoxItemPage1@@UAEPAXI@Z 00439ce0 f i UiPGBoxItem.obj
 0001:00038d10       ??_EKUiPGBoxItemPage2@@UAEPAXI@Z 00439d10 f i UiPGBoxItem.obj
 0001:00038d10       ??_GKUiPGBoxItemPage2@@UAEPAXI@Z 00439d10 f i UiPGBoxItem.obj
 0001:00038d40       ??_GKUiPGBoxItemPage3@@UAEPAXI@Z 00439d40 f i UiPGBoxItem.obj
 0001:00038d40       ??_EKUiPGBoxItemPage3@@UAEPAXI@Z 00439d40 f i UiPGBoxItem.obj
 0001:00038d70       ??_EKUiPGBoxItemPage4@@UAEPAXI@Z 00439d70 f i UiPGBoxItem.obj
 0001:00038d70       ??_GKUiPGBoxItemPage4@@UAEPAXI@Z 00439d70 f i UiPGBoxItem.obj
 0001:00038da0       ??_EKUiPGBoxItemPage5@@UAEPAXI@Z 00439da0 f i UiPGBoxItem.obj
 0001:00038da0       ??_GKUiPGBoxItemPage5@@UAEPAXI@Z 00439da0 f i UiPGBoxItem.obj
 0001:00038dd0       ?OpenWindow@KUiPWStoreBox@@SAPAV1@XZ 00439dd0 f   UiPWStoreBox.obj
 0001:00038e91       ??0KUiPWStoreBox@@AAE@XZ   00439e91 f   UiPWStoreBox.obj
 0001:00038f33       ?GetIfVisible@KUiPWStoreBox@@SAPAV1@XZ 00439f33 f   UiPWStoreBox.obj
 0001:00038f59       ?CloseWindow@KUiPWStoreBox@@SAX_N@Z 00439f59 f   UiPWStoreBox.obj
 0001:00038f9b       ?Show@KUiPWStoreBox@@EAEXXZ 00439f9b f   UiPWStoreBox.obj
 0001:00038ff3       ?Hide@KUiPWStoreBox@@EAEXXZ 00439ff3 f   UiPWStoreBox.obj
 0001:00039012       ?Initialize@KUiPWStoreBox@@AAEXXZ 0043a012 f   UiPWStoreBox.obj
 0001:000390d4       ?LoadScheme@KUiPWStoreBox@@AAEXPBD@Z 0043a0d4 f   UiPWStoreBox.obj
 0001:00039254       ?WndProc@KUiPWStoreBox@@EAEHIIH@Z 0043a254 f   UiPWStoreBox.obj
 0001:00039307       ?OnOk@KUiPWStoreBox@@AAEXXZ 0043a307 f   UiPWStoreBox.obj
 0001:0003943a       ?OnCancel@KUiPWStoreBox@@AAEXXZ 0043a43a f   UiPWStoreBox.obj
 0001:00039450       ??_EKUiPWStoreBox@@EAEPAXI@Z 0043a450 f i UiPWStoreBox.obj
 0001:00039450       ??_GKUiPWStoreBox@@EAEPAXI@Z 0043a450 f i UiPWStoreBox.obj
 0001:00039480       ??1KUiPWStoreBox@@EAE@XZ   0043a480 f i UiPWStoreBox.obj
 0001:00039520       ?GetIfVisible@KUiRPNewBox@@SAPAV1@XZ 0043a520 f   UiRPNewBox.obj
 0001:00039546       ?OpenWindow@KUiRPNewBox@@SAPAV1@XZ 0043a546 f   UiRPNewBox.obj
 0001:00039618       ?CloseWindow@KUiRPNewBox@@SAXXZ 0043a618 f   UiRPNewBox.obj
 0001:00039645       ?Initialize@KUiRPNewBox@@AAEXXZ 0043a645 f   UiRPNewBox.obj
 0001:000396d0       ?UpdateData@KUiRPNewBox@@EAEXXZ 0043a6d0 f   UiRPNewBox.obj
 0001:0003977e       ?UpdateItem@KUiRPNewBox@@QAEXPAUKUiObjAtRegion@@H@Z 0043a77e f   UiRPNewBox.obj
 0001:00039815       ?LoadScheme@KUiRPNewBox@@SAXPBD@Z 0043a815 f   UiRPNewBox.obj
 0001:00039927       ?WndProc@KUiRPNewBox@@EAEHIIH@Z 0043a927 f   UiRPNewBox.obj
 0001:00039a28       ?OnLeftShiftClickItem@KUiRPNewBox@@AAEXPAUKUiDraggedObject@@@Z 0043aa28 f   UiRPNewBox.obj
 0001:00039b33       ?OnItemPickDrop@KUiRPNewBox@@AAEXPAUITEM_PICKDROP_PLACE@@0@Z 0043ab33 f   UiRPNewBox.obj
 0001:00039c20       ??0KUiRPNewBox@@AAE@XZ     0043ac20 f i UiRPNewBox.obj
 0001:00039c90       ??_GKUiRPNewBox@@EAEPAXI@Z 0043ac90 f i UiRPNewBox.obj
 0001:00039c90       ??_EKUiRPNewBox@@EAEPAXI@Z 0043ac90 f i UiRPNewBox.obj
 0001:00039cc0       ??1KUiRPNewBox@@EAE@XZ     0043acc0 f i UiRPNewBox.obj
 0001:00039d30       ?OpenWindow@KUiShopName@@SAPAV1@XZ 0043ad30 f   UiShopName.obj
 0001:00039df1       ??0KUiShopName@@AAE@XZ     0043adf1 f   UiShopName.obj
 0001:00039e6f       ?GetIfVisible@KUiShopName@@SAPAV1@XZ 0043ae6f f   UiShopName.obj
 0001:00039e95       ?CloseWindow@KUiShopName@@SAX_N@Z 0043ae95 f   UiShopName.obj
 0001:00039ed7       ?Show@KUiShopName@@EAEXXZ  0043aed7 f   UiShopName.obj
 0001:00039f09       ?Hide@KUiShopName@@EAEXXZ  0043af09 f   UiShopName.obj
 0001:00039f28       ?Initialize@KUiShopName@@AAEXXZ 0043af28 f   UiShopName.obj
 0001:00039fbb       ?LoadScheme@KUiShopName@@AAEXPBD@Z 0043afbb f   UiShopName.obj
 0001:0003a0ed       ?WndProc@KUiShopName@@EAEHIIH@Z 0043b0ed f   UiShopName.obj
 0001:0003a1a0       ?OnOk@KUiShopName@@AAEXXZ  0043b1a0 f   UiShopName.obj
 0001:0003a1f6       ?LoadPrivateSetting@KUiShopName@@SAPAV1@PAVKIniFile@@@Z 0043b1f6 f   UiShopName.obj
 0001:0003a2d5       ?SavePrivateSetting@KUiShopName@@SAHPAVKIniFile@@@Z 0043b2d5 f   UiShopName.obj
 0001:0003a3a6       ?OnCancel@KUiShopName@@AAEXXZ 0043b3a6 f   UiShopName.obj
 0001:0003a3c0       ??_EKUiShopName@@EAEPAXI@Z 0043b3c0 f i UiShopName.obj
 0001:0003a3c0       ??_GKUiShopName@@EAEPAXI@Z 0043b3c0 f i UiShopName.obj
 0001:0003a3f0       ??1KUiShopName@@EAE@XZ     0043b3f0 f i UiShopName.obj
 0001:0003a470       ?OpenWindow@KUiShopPrice@@SAPAV1@PAUKUiObjAtContRegion@@PAUKUiItemBuySelInfo@@@Z 0043b470 f   UiShopPrice.obj
 0001:0003a574       ??0KUiShopPrice@@AAE@XZ    0043b574 f   UiShopPrice.obj
 0001:0003a628       ?GetIfVisible@KUiShopPrice@@SAPAV1@XZ 0043b628 f   UiShopPrice.obj
 0001:0003a64e       ?CloseWindow@KUiShopPrice@@SAX_N@Z 0043b64e f   UiShopPrice.obj
 0001:0003a690       ?Show@KUiShopPrice@@EAEXXZ 0043b690 f   UiShopPrice.obj
 0001:0003a727       ?Hide@KUiShopPrice@@EAEXXZ 0043b727 f   UiShopPrice.obj
 0001:0003a746       ?Initialize@KUiShopPrice@@AAEHXZ 0043b746 f   UiShopPrice.obj
 0001:0003a7f5       ?LoadScheme@KUiShopPrice@@AAEXPBD@Z 0043b7f5 f   UiShopPrice.obj
 0001:0003a941       ?WndProc@KUiShopPrice@@EAEHIIH@Z 0043b941 f   UiShopPrice.obj
 0001:0003aaeb       ?OnCancel@KUiShopPrice@@AAEXXZ 0043baeb f   UiShopPrice.obj
 0001:0003ab00       ??_GKUiShopPrice@@EAEPAXI@Z 0043bb00 f i UiShopPrice.obj
 0001:0003ab00       ??_EKUiShopPrice@@EAEPAXI@Z 0043bb00 f i UiShopPrice.obj
 0001:0003ab30       ??1KUiShopPrice@@EAE@XZ    0043bb30 f i UiShopPrice.obj
 0001:0003abc0       ??0KUiFightSkillSubPage@@QAE@XZ 0043bbc0 f   UiSkills.obj
 0001:0003ac35       ?Initialize@KUiFightSkillSubPage@@QAEXXZ 0043bc35 f   UiSkills.obj
 0001:0003aca1       ?LoadScheme@KUiFightSkillSubPage@@QAEXPBD@Z 0043bca1 f   UiSkills.obj
 0001:0003ae78       ?UpdateRemainPoint@KUiFightSkillSubPage@@QAEXH@Z 0043be78 f   UiSkills.obj
 0001:0003ae91       ?UpdateSkill@KUiFightSkillSubPage@@QAEXPAUKUiSkillData@@H@Z 0043be91 f   UiSkills.obj
 0001:0003af04       ?UpdateData@KUiFightSkillSubPage@@QAEXPAUKUiSkillData@@@Z 0043bf04 f   UiSkills.obj
 0001:0003afd4       ?WndProc@KUiFightSkillSubPage@@EAEHIIH@Z 0043bfd4 f   UiSkills.obj
 0001:0003b058       ?PaintWindow@KUiFightSkillSubPage@@EAEXXZ 0043c058 f   UiSkills.obj
 0001:0003b206       ?Initialize@KUiFightSkillSub@@QAEXXZ 0043c206 f   UiSkills.obj
 0001:0003b275       ?LoadScheme@KUiFightSkillSub@@QAEXPBD@Z 0043c275 f   UiSkills.obj
 0001:0003b408       ?UpdateRemainPoint@KUiFightSkillSub@@QAEXH@Z 0043c408 f   UiSkills.obj
 0001:0003b44d       ?UpdateSkill@KUiFightSkillSub@@QAEXPAUKUiSkillData@@H@Z 0043c44d f   UiSkills.obj
 0001:0003b498       ?UpdateData@KUiFightSkillSub@@UAEXXZ 0043c498 f   UiSkills.obj
 0001:0003b51f       ?Initialize@KUiFightSkill@@QAEXXZ 0043c51f f   UiSkills.obj
 0001:0003b55b       ?LoadScheme@KUiFightSkill@@QAEXPBD@Z 0043c55b f   UiSkills.obj
 0001:0003b638       ?UpdateData@KUiFightSkill@@UAEXXZ 0043c638 f   UiSkills.obj
 0001:0003b699       ?UpdateSkill@KUiFightSkill@@QAEXPAUKUiSkillData@@H@Z 0043c699 f   UiSkills.obj
 0001:0003b6bc       ?UpdateRemainPoint@KUiFightSkill@@QAEXH@Z 0043c6bc f   UiSkills.obj
 0001:0003b6ef       ??0KUiLiveSkill@@QAE@XZ    0043c6ef f   UiSkills.obj
 0001:0003b776       ?Initialize@KUiLiveSkill@@QAEXXZ 0043c776 f   UiSkills.obj
 0001:0003b7f3       ?LoadScheme@KUiLiveSkill@@QAEXPBD@Z 0043c7f3 f   UiSkills.obj
 0001:0003b9f6       ?WndProc@KUiLiveSkill@@EAEHIIH@Z 0043c9f6 f   UiSkills.obj
 0001:0003ba7a       ?PaintWindow@KUiLiveSkill@@EAEXXZ 0043ca7a f   UiSkills.obj
 0001:0003bbe8       ?UpdateBaseData@KUiLiveSkill@@QAEXXZ 0043cbe8 f   UiSkills.obj
 0001:0003bc2e       ?UpdateSkill@KUiLiveSkill@@QAEXPAUKUiSkillData@@H@Z 0043cc2e f   UiSkills.obj
 0001:0003bc78       ?UpdateData@KUiLiveSkill@@UAEXXZ 0043cc78 f   UiSkills.obj
 0001:0003bd28       ?OpenWindow@KUiSkills@@SAPAV1@XZ 0043cd28 f   UiSkills.obj
 0001:0003be1f       ?GetIfVisible@KUiSkills@@SAPAV1@XZ 0043ce1f f   UiSkills.obj
 0001:0003be45       ?CloseWindow@KUiSkills@@SAX_N@Z 0043ce45 f   UiSkills.obj
 0001:0003be87       ?Initialize@KUiSkills@@AAEXXZ 0043ce87 f   UiSkills.obj
 0001:0003bf52       ?LoadScheme@KUiSkills@@SAXPBD@Z 0043cf52 f   UiSkills.obj
 0001:0003c0a6       ?UpdateSkill@KUiSkills@@SAXPAUKUiSkillData@@H@Z 0043d0a6 f   UiSkills.obj
 0001:0003c1e5       ?UpdateFightRemainPoint@KUiSkills@@QAEXH@Z 0043d1e5 f   UiSkills.obj
 0001:0003c204       ?UpdateLiveBaseData@KUiSkills@@QAEXXZ 0043d204 f   UiSkills.obj
 0001:0003c21d       ?WndProc@KUiSkills@@EAEHIIH@Z 0043d21d f   UiSkills.obj
 0001:0003c270       ??_EKUiFightSkillSubPage@@UAEPAXI@Z 0043d270 f i UiSkills.obj
 0001:0003c270       ??_GKUiFightSkillSubPage@@UAEPAXI@Z 0043d270 f i UiSkills.obj
 0001:0003c2a0       ??1KUiFightSkillSubPage@@UAE@XZ 0043d2a0 f i UiSkills.obj
 0001:0003c300       ??_GKUiLiveSkill@@UAEPAXI@Z 0043d300 f i UiSkills.obj
 0001:0003c300       ??_EKUiLiveSkill@@UAEPAXI@Z 0043d300 f i UiSkills.obj
 0001:0003c330       ??1KUiLiveSkill@@UAE@XZ    0043d330 f i UiSkills.obj
 0001:0003c3a0       ??0KUiSkills@@AAE@XZ       0043d3a0 f i UiSkills.obj
 0001:0003c450       ??_EKUiSkills@@EAEPAXI@Z   0043d450 f i UiSkills.obj
 0001:0003c450       ??_GKUiSkills@@EAEPAXI@Z   0043d450 f i UiSkills.obj
 0001:0003c480       ??1KUiSkills@@EAE@XZ       0043d480 f i UiSkills.obj
 0001:0003c520       ??0KUiFightSkill@@QAE@XZ   0043d520 f i UiSkills.obj
 0001:0003c590       ??1KUiFightSkill@@UAE@XZ   0043d590 f i UiSkills.obj
 0001:0003c5f0       ??_GKUiFightSkill@@UAEPAXI@Z 0043d5f0 f i UiSkills.obj
 0001:0003c5f0       ??_EKUiFightSkill@@UAEPAXI@Z 0043d5f0 f i UiSkills.obj
 0001:0003c620       ??0KUiFightSkillSub@@QAE@XZ 0043d620 f i UiSkills.obj
 0001:0003c6b0       ??1KUiFightSkillSub@@UAE@XZ 0043d6b0 f i UiSkills.obj
 0001:0003c730       ??_GKUiFightSkillSub@@UAEPAXI@Z 0043d730 f i UiSkills.obj
 0001:0003c730       ??_EKUiFightSkillSub@@UAEPAXI@Z 0043d730 f i UiSkills.obj
 0001:0003c760       ??0KUiSkillTree@@AAE@XZ    0043d760 f   UiSkillTree.obj
 0001:0003c7a3       ?GetIfVisible@KUiSkillTree@@SAPAV1@XZ 0043d7a3 f   UiSkillTree.obj
 0001:0003c7c9       ?OpenWindow@KUiSkillTree@@SAPAV1@H@Z 0043d7c9 f   UiSkillTree.obj
 0001:0003c8bf       ?CloseWindow@KUiSkillTree@@SAX_N@Z 0043d8bf f   UiSkillTree.obj
 0001:0003c8fe       ?Hide@KUiSkillTree@@EAEXXZ 0043d8fe f   UiSkillTree.obj
 0001:0003c916       ?LoadConfig@KUiSkillTree@@SAXPAVKIniFile@@@Z 0043d916 f   UiSkillTree.obj
 0001:0003cc65       ?SaveConfig@KUiSkillTree@@SAXPAVKIniFile@@@Z 0043dc65 f   UiSkillTree.obj
 0001:0003cd7c       ?Initialize@KUiSkillTree@@AAEXXZ 0043dd7c f   UiSkillTree.obj
 0001:0003cdc5       ?UpdateWndRect@KUiSkillTree@@AAEXXZ 0043ddc5 f   UiSkillTree.obj
 0001:0003ced9       ?UpdateData@KUiSkillTree@@EAEXXZ 0043ded9 f   UiSkillTree.obj
 0001:0003cfe7       ?PtInWindow@KUiSkillTree@@EAEHHH@Z 0043dfe7 f   UiSkillTree.obj
 0001:0003d025       ?GetSkillAtPos@KUiSkillTree@@AAEHHH@Z 0043e025 f   UiSkillTree.obj
 0001:0003d0f4       ?LoadScheme@KUiSkillTree@@SAXPBD@Z 0043e0f4 f   UiSkillTree.obj
 0001:0003d2c6       ?WndProc@KUiSkillTree@@EAEHIIH@Z 0043e2c6 f   UiSkillTree.obj
 0001:0003d488       ?HandleShortcutKey@KUiSkillTree@@SAXH@Z 0043e488 f   UiSkillTree.obj
 0001:0003d610       ?DirectHandleShortcutKey@KUiSkillTree@@SAXH@Z 0043e610 f   UiSkillTree.obj
 0001:0003d781       ?PaintWindow@KUiSkillTree@@EAEXXZ 0043e781 f   UiSkillTree.obj
 0001:0003da10       ??_EKUiSkillTree@@EAEPAXI@Z 0043ea10 f i UiSkillTree.obj
 0001:0003da10       ??_GKUiSkillTree@@EAEPAXI@Z 0043ea10 f i UiSkillTree.obj
 0001:0003da40       ??1KUiSkillTree@@EAE@XZ    0043ea40 f i UiSkillTree.obj
 0001:0003da60       ?GetIfVisible@KUiSlectBoxCheck@@SAPAV1@XZ 0043ea60 f   UiSlectBoxCheck.obj
 0001:0003da86       ?OpenWindow@KUiSlectBoxCheck@@SAPAV1@HHH@Z 0043ea86 f   UiSlectBoxCheck.obj
 0001:0003dc2e       ?CloseWindow@KUiSlectBoxCheck@@SAXXZ 0043ec2e f   UiSlectBoxCheck.obj
 0001:0003dc5b       ?Initialize@KUiSlectBoxCheck@@AAEXXZ 0043ec5b f   UiSlectBoxCheck.obj
 0001:0003dceb       ?LoadScheme@KUiSlectBoxCheck@@SAXPBD@Z 0043eceb f   UiSlectBoxCheck.obj
 0001:0003df1f       ?WndProc@KUiSlectBoxCheck@@EAEHIIH@Z 0043ef1f f   UiSlectBoxCheck.obj
 0001:0003e0a0       ??0KUiSlectBoxCheck@@AAE@XZ 0043f0a0 f i UiSlectBoxCheck.obj
 0001:0003e120       ??_EKUiSlectBoxCheck@@EAEPAXI@Z 0043f120 f i UiSlectBoxCheck.obj
 0001:0003e120       ??_GKUiSlectBoxCheck@@EAEPAXI@Z 0043f120 f i UiSlectBoxCheck.obj
 0001:0003e150       ??1KUiSlectBoxCheck@@EAE@XZ 0043f150 f i UiSlectBoxCheck.obj
 0001:0003e1d0       ?OpenWindow@KUiStaskItem@@SAPAV1@PAUKUiObjAtContRegion@@PAUKUiItemBuySelInfo@@@Z 0043f1d0 f   UiStaskItem.obj
 0001:0003e32b       ??0KUiStaskItem@@AAE@XZ    0043f32b f   UiStaskItem.obj
 0001:0003e427       ?GetIfVisible@KUiStaskItem@@SAPAV1@XZ 0043f427 f   UiStaskItem.obj
 0001:0003e44d       ?CloseWindow@KUiStaskItem@@SAX_N@Z 0043f44d f   UiStaskItem.obj
 0001:0003e48f       ?Show@KUiStaskItem@@EAEXXZ 0043f48f f   UiStaskItem.obj
 0001:0003e55d       ?Hide@KUiStaskItem@@EAEXXZ 0043f55d f   UiStaskItem.obj
 0001:0003e57c       ?Initialize@KUiStaskItem@@AAEHXZ 0043f57c f   UiStaskItem.obj
 0001:0003e68a       ?LoadScheme@KUiStaskItem@@AAEXPBD@Z 0043f68a f   UiStaskItem.obj
 0001:0003e8f6       ?WndProc@KUiStaskItem@@EAEHIIH@Z 0043f8f6 f   UiStaskItem.obj
 0001:0003ea81       ?OnOk@KUiStaskItem@@AAEXXZ 0043fa81 f   UiStaskItem.obj
 0001:0003eac5       ?UpdateNumber@KUiStaskItem@@AAEXXZ 0043fac5 f   UiStaskItem.obj
 0001:0003eb4b       ?OnCancel@KUiStaskItem@@AAEXXZ 0043fb4b f   UiStaskItem.obj
 0001:0003eb60       ??_GKUiStaskItem@@EAEPAXI@Z 0043fb60 f i UiStaskItem.obj
 0001:0003eb60       ??_EKUiStaskItem@@EAEPAXI@Z 0043fb60 f i UiStaskItem.obj
 0001:0003eb90       ??1KUiStaskItem@@EAE@XZ    0043fb90 f i UiStaskItem.obj
 0001:0003ec70       ?GetIfVisible@KUiStoreBox@@SAPAV1@XZ 0043fc70 f   UiStoreBox.obj
 0001:0003ec96       ?OpenWindow@KUiStoreBox@@SAPAV1@XZ 0043fc96 f   UiStoreBox.obj
 0001:0003ed82       ?CloseWindow@KUiStoreBox@@SAXXZ 0043fd82 f   UiStoreBox.obj
 0001:0003edbd       ?Initialize@KUiStoreBox@@AAEXXZ 0043fdbd f   UiStoreBox.obj
 0001:0003eee6       ?UpdateClientDT@KUiStoreBox@@SAXXZ 0043fee6 f   UiStoreBox.obj
 0001:0003ef04       ?UpdateData@KUiStoreBox@@EAEXXZ 0043ff04 f   UiStoreBox.obj
 0001:0003f0d3       ?UpdateItem@KUiStoreBox@@QAEXPAUKUiObjAtRegion@@H@Z 004400d3 f   UiStoreBox.obj
 0001:0003f218       ?LoadScheme@KUiStoreBox@@SAXPBD@Z 00440218 f   UiStoreBox.obj
 0001:0003f418       ?WndProc@KUiStoreBox@@EAEHIIH@Z 00440418 f   UiStoreBox.obj
 0001:0003f60f       ?OnGetMoney@KUiStoreBox@@AAEXH@Z 0044060f f   UiStoreBox.obj
 0001:0003f63b       ?OnLeftShiftClickItem@KUiStoreBox@@AAEXPAUKUiDraggedObject@@@Z 0044063b f   UiStoreBox.obj
 0001:0003f746       ?OnItemPickDrop@KUiStoreBox@@AAEXPAUITEM_PICKDROP_PLACE@@0@Z 00440746 f   UiStoreBox.obj
 0001:0003f830       ??0KUiStoreBox@@AAE@XZ     00440830 f i UiStoreBox.obj
 0001:0003f910       ??_GKUiStoreBox@@EAEPAXI@Z 00440910 f i UiStoreBox.obj
 0001:0003f910       ??_EKUiStoreBox@@EAEPAXI@Z 00440910 f i UiStoreBox.obj
 0001:0003f940       ??1KUiStoreBox@@EAE@XZ     00440940 f i UiStoreBox.obj
 0001:0003fa20       ?OpenWindow@KUiStringBox@@SAPAV1@HPAD@Z 00440a20 f   UiStringBox.obj
 0001:0003fb08       ??0KUiStringBox@@AAE@XZ    00440b08 f   UiStringBox.obj
 0001:0003fbaa       ?GetIfVisible@KUiStringBox@@SAPAV1@XZ 00440baa f   UiStringBox.obj
 0001:0003fbd0       ?CloseWindow@KUiStringBox@@SAX_N@Z 00440bd0 f   UiStringBox.obj
 0001:0003fc12       ?Show@KUiStringBox@@EAEXXZ 00440c12 f   UiStringBox.obj
 0001:0003fca5       ?Hide@KUiStringBox@@EAEXXZ 00440ca5 f   UiStringBox.obj
 0001:0003fcc4       ?Initialize@KUiStringBox@@AAEXXZ 00440cc4 f   UiStringBox.obj
 0001:0003fd86       ?LoadScheme@KUiStringBox@@AAEXPBD@Z 00440d86 f   UiStringBox.obj
 0001:0003ff06       ?WndProc@KUiStringBox@@EAEHIIH@Z 00440f06 f   UiStringBox.obj
 0001:0003ffb9       ?OnOk@KUiStringBox@@AAEXXZ 00440fb9 f   UiStringBox.obj
 0001:00040034       ?OnCancel@KUiStringBox@@AAEXXZ 00441034 f   UiStringBox.obj
 0001:00040050       ??_EKUiStringBox@@EAEPAXI@Z 00441050 f i UiStringBox.obj
 0001:00040050       ??_GKUiStringBox@@EAEPAXI@Z 00441050 f i UiStringBox.obj
 0001:00040080       ??1KUiStringBox@@EAE@XZ    00441080 f i UiStringBox.obj
 0001:00040120       ??0KUiTopTKNew@@AAE@XZ     00441120 f   UiTopTKNew.obj
 0001:00040912       ?OpenWindow@KUiTopTKNew@@SAPAV1@XZ 00441912 f   UiTopTKNew.obj
 0001:000409d3       ?GetIfVisible@KUiTopTKNew@@SAPAV1@XZ 004419d3 f   UiTopTKNew.obj
 0001:000409f9       ?Initialize@KUiTopTKNew@@AAEXXZ 004419f9 f   UiTopTKNew.obj
 0001:0004144f       ?CloseWindow@KUiTopTKNew@@SAXXZ 0044244f f   UiTopTKNew.obj
 0001:00041472       ?UpdateDataTop@KUiTopTKNew@@SAXPAUKUiTopTKNewData@@@Z 00442472 f   UiTopTKNew.obj
 0001:00044211       ?LoadScheme@KUiTopTKNew@@SAXPBD@Z 00445211 f   UiTopTKNew.obj
 0001:000442b3       ?LoadScheme@KUiTopTKNew@@AAEXPAVKIniFile@@@Z 004452b3 f   UiTopTKNew.obj
 0001:00044fa5       ?WndProc@KUiTopTKNew@@EAEHIIH@Z 00445fa5 f   UiTopTKNew.obj
 0001:00044fc6       ?PaintWindow@KUiTopTKNew@@EAEXXZ 00445fc6 f   UiTopTKNew.obj
 0001:0004504e       ?Show@KUiTopTKNew@@UAEXXZ  0044604e f   UiTopTKNew.obj
 0001:00045061       ?Hide@KUiTopTKNew@@UAEXXZ  00446061 f   UiTopTKNew.obj
 0001:00045080       ??_GKUiTopTKNew@@EAEPAXI@Z 00446080 f i UiTopTKNew.obj
 0001:00045080       ??_EKUiTopTKNew@@EAEPAXI@Z 00446080 f i UiTopTKNew.obj
 0001:000450b0       ??1KUiTopTKNew@@EAE@XZ     004460b0 f i UiTopTKNew.obj
 0001:000458a0       ?OpenWindow@KUiESCDlg@@SAPAV1@XZ 004468a0 f   UiESCDlg.obj
 0001:00045961       ??1KUiESCDlg@@EAE@XZ       00446961 f   UiESCDlg.obj
 0001:00045a0c       ?CloseWindow@KUiESCDlg@@SAX_N@Z 00446a0c f   UiESCDlg.obj
 0001:00045a4e       ?GetIfVisible@KUiESCDlg@@SAPAV1@XZ 00446a4e f   UiESCDlg.obj
 0001:00045a74       ?Show@KUiESCDlg@@EAEXXZ    00446a74 f   UiESCDlg.obj
 0001:00045a93       ?Hide@KUiESCDlg@@EAEXXZ    00446a93 f   UiESCDlg.obj
 0001:00045ab2       ?Initialize@KUiESCDlg@@AAEHXZ 00446ab2 f   UiESCDlg.obj
 0001:00045b79       ?LoadScheme@KUiESCDlg@@AAEXPBD@Z 00446b79 f   UiESCDlg.obj
 0001:00045cec       ?WndProc@KUiESCDlg@@EAEHIIH@Z 00446cec f   UiESCDlg.obj
 0001:00045d55       ?OnKeyDown@KUiESCDlg@@AAEHI@Z 00446d55 f   UiESCDlg.obj
 0001:00045f39       ?OnClickButton@KUiESCDlg@@AAEXPAVKWndWindow@@@Z 00446f39 f   UiESCDlg.obj
 0001:0004603e       ?GetActiveBtn@KUiESCDlg@@AAEPAVKWndButton@@XZ 0044703e f   UiESCDlg.obj
 0001:000460e0       ??0KUiESCDlg@@AAE@XZ       004470e0 f i UiESCDlg.obj
 0001:00046190       ??_EKUiESCDlg@@EAEPAXI@Z   00447190 f i UiESCDlg.obj
 0001:00046190       ??_GKUiESCDlg@@EAEPAXI@Z   00447190 f i UiESCDlg.obj
 0001:000461c0       ??0KUiGetString@@AAE@XZ    004471c0 f   UiGetString.obj
 0001:0004625d       ?OpenWindow@KUiGetString@@SAPAV1@PBD0PAVKWndWindow@@IHH@Z 0044725d f   UiGetString.obj
 0001:000463c7       ?CloseWindow@KUiGetString@@SAX_N@Z 004473c7 f   UiGetString.obj
 0001:00046419       ?GetIfVisible@KUiGetString@@SAPAV1@XZ 00447419 f   UiGetString.obj
 0001:0004643f       ?Show@KUiGetString@@EAEXXZ 0044743f f   UiGetString.obj
 0001:000464a4       ?Hide@KUiGetString@@EAEXXZ 004474a4 f   UiGetString.obj
 0001:000464cd       ?Initialize@KUiGetString@@AAEXXZ 004474cd f   UiGetString.obj
 0001:00046574       ?LoadScheme@KUiGetString@@SAXPBD@Z 00447574 f   UiGetString.obj
 0001:000466c5       ?WndProc@KUiGetString@@EAEHIIH@Z 004476c5 f   UiGetString.obj
 0001:0004679b       ?OnOk@KUiGetString@@AAEXXZ 0044779b f   UiGetString.obj
 0001:00046857       ?OnCancel@KUiGetString@@AAEXXZ 00447857 f   UiGetString.obj
 0001:000468a0       ??_EKUiGetString@@EAEPAXI@Z 004478a0 f i UiGetString.obj
 0001:000468a0       ??_GKUiGetString@@EAEPAXI@Z 004478a0 f i UiGetString.obj
 0001:000468d0       ??1KUiGetString@@EAE@XZ    004478d0 f i UiGetString.obj
 0001:00046960       ??0KUiGetString3@@AAE@XZ   00447960 f   UiGetString3.obj
 0001:00046a2e       ?OpenWindow@KUiGetString3@@SAPAV1@HHPBDPAVKWndWindow@@I@Z 00447a2e f   UiGetString3.obj
 0001:00046b85       ?CloseWindow@KUiGetString3@@SAX_N@Z 00447b85 f   UiGetString3.obj
 0001:00046bd7       ?GetIfVisible@KUiGetString3@@SAPAV1@XZ 00447bd7 f   UiGetString3.obj
 0001:00046bfd       ?Show@KUiGetString3@@EAEXXZ 00447bfd f   UiGetString3.obj
 0001:00046c62       ?Hide@KUiGetString3@@EAEXXZ 00447c62 f   UiGetString3.obj
 0001:00046c8b       ?Initialize@KUiGetString3@@AAEXXZ 00447c8b f   UiGetString3.obj
 0001:00046d62       ?LoadScheme@KUiGetString3@@SAXPBD@Z 00447d62 f   UiGetString3.obj
 0001:00046f01       ?WndProc@KUiGetString3@@EAEHIIH@Z 00447f01 f   UiGetString3.obj
 0001:00046fe2       ?OnOk@KUiGetString3@@AAEXXZ 00447fe2 f   UiGetString3.obj
 0001:00047048       ?OnIncrease@KUiGetString3@@AAEXXZ 00448048 f   UiGetString3.obj
 0001:0004709b       ?OnDecrease@KUiGetString3@@AAEXXZ 0044809b f   UiGetString3.obj
 0001:000470e1       ?OnCancel@KUiGetString3@@AAEXXZ 004480e1 f   UiGetString3.obj
 0001:0004712a       ?OnCheckInput@KUiGetString3@@AAEXXZ 0044812a f   UiGetString3.obj
 0001:000471c0       ??_GKUiGetString3@@EAEPAXI@Z 004481c0 f i UiGetString3.obj
 0001:000471c0       ??_EKUiGetString3@@EAEPAXI@Z 004481c0 f i UiGetString3.obj
 0001:000471f0       ??1KUiGetString3@@EAE@XZ   004481f0 f i UiGetString3.obj
 0001:000472b0       ?OpenWindow@KUiMsgSel@@SAPAV1@PAUKUiQuestionAndAnswer@@@Z 004482b0 f   UiMsgSel.obj
 0001:0004736f       ?CloseWindow@KUiMsgSel@@SAX_N@Z 0044836f f   UiMsgSel.obj
 0001:000473d9       ?Initialize@KUiMsgSel@@AAEHXZ 004483d9 f   UiMsgSel.obj
 0001:0004746d       ?LoadScheme@KUiMsgSel@@SAXPBD@Z 0044846d f   UiMsgSel.obj
 0001:00047568       ?WndProc@KUiMsgSel@@EAEHIIH@Z 00448568 f   UiMsgSel.obj
 0001:000477f9       ?OnClickMsg@KUiMsgSel@@AAEXH@Z 004487f9 f   UiMsgSel.obj
 0001:0004783e       ?ChangeCurSel@KUiMsgSel@@AAEX_N@Z 0044883e f   UiMsgSel.obj
 0001:000478ce       ?Show@KUiMsgSel@@AAEXPAUKUiQuestionAndAnswer@@@Z 004488ce f   UiMsgSel.obj
 0001:00047a38       ?Breathe@KUiMsgSel@@EAEXXZ 00448a38 f   UiMsgSel.obj
 0001:00047ad0       ??0KUiMsgSel@@AAE@XZ       00448ad0 f i UiMsgSel.obj
 0001:00047b40       ??_EKUiMsgSel@@EAEPAXI@Z   00448b40 f i UiMsgSel.obj
 0001:00047b40       ??_GKUiMsgSel@@EAEPAXI@Z   00448b40 f i UiMsgSel.obj
 0001:00047b70       ??1KUiMsgSel@@EAE@XZ       00448b70 f i UiMsgSel.obj
 0001:00047be0       ?GetCurSel@KWndMessageListBox@@QAEHXZ 00448be0 f i UiMsgSel.obj
 0001:00047c00       ?GetMessageListBox@KScrollMessageListBox@@QAEPAVKWndMessageListBox@@XZ 00448c00 f i UiMsgSel.obj
 0001:00047c20       ?GetMsgCount@KWndMessageListBox@@QAEHXZ 00448c20 f i UiMsgSel.obj
 0001:00047c40       ?GetIfVisible@KUiParadeItem@@SAPAV1@XZ 00448c40 f   UiParadeItem.obj
 0001:00047c66       ?OpenWindow@KUiParadeItem@@SAPAV1@PAUKUiPlayerItem@@@Z 00448c66 f   UiParadeItem.obj
 0001:00047d76       ?CloseWindow@KUiParadeItem@@SAX_N@Z 00448d76 f   UiParadeItem.obj
 0001:00047dd7       ?Initialize@KUiParadeItem@@AAEXXZ 00448dd7 f   UiParadeItem.obj
 0001:00047f13       ?SwitchExpand@KUiParadeItem@@AAEXH@Z 00448f13 f   UiParadeItem.obj
 0001:00047fda       ?LoadScheme@KUiParadeItem@@SAXPBD@Z 00448fda f   UiParadeItem.obj
 0001:0004807c       ?LoadScheme@KUiParadeItem@@AAEXPAVKIniFile@@@Z 0044907c f   UiParadeItem.obj
 0001:00048250       ?WndProc@KUiParadeItem@@EAEHIIH@Z 00449250 f   UiParadeItem.obj
 0001:000482ac       ?UpdateBaseData@KUiParadeItem@@AAEXPAUKUiPlayerItem@@@Z 004492ac f   UiParadeItem.obj
 0001:000484a8       ?UpdateData@KUiParadeItem@@QAEXPAUKUiPlayerItem@@@Z 004494a8 f   UiParadeItem.obj
 0001:000484ec       ?UpdateAllEquips@KUiParadeItem@@AAEXPAUKUiPlayerItem@@@Z 004494ec f   UiParadeItem.obj
 0001:000485a7       ?UpdateEquip@KUiParadeItem@@AAEXPAUKUiObjAtRegion@@H@Z 004495a7 f   UiParadeItem.obj
 0001:00048650       ??0KUiParadeItem@@AAE@XZ   00449650 f i UiParadeItem.obj
 0001:00048790       ??_EKUiParadeItem@@EAEPAXI@Z 00449790 f i UiParadeItem.obj
 0001:00048790       ??_GKUiParadeItem@@EAEPAXI@Z 00449790 f i UiParadeItem.obj
 0001:000487c0       ??1KUiParadeItem@@EAE@XZ   004497c0 f i UiParadeItem.obj
 0001:00048900       ?OpenWindow@KUiSelPlayerNearby@@SAPAV1@XZ 00449900 f   UiSelPlayerNearby.obj
 0001:000489d2       ??0KUiSelPlayerNearby@@AAE@XZ 004499d2 f   UiSelPlayerNearby.obj
 0001:00048abe       ?DoesHaveVisibleWnd@KUiSelPlayerNearby@@SAHXZ 00449abe f   UiSelPlayerNearby.obj
 0001:00048ae4       ?Initialize@KUiSelPlayerNearby@@AAEXXZ 00449ae4 f   UiSelPlayerNearby.obj
 0001:00048c34       ?LoadActionList@KUiSelPlayerNearby@@AAEXPAVKIniFile@@@Z 00449c34 f   UiSelPlayerNearby.obj
 0001:00048de6       ?CloseWindow@KUiSelPlayerNearby@@SAX_N@Z 00449de6 f   UiSelPlayerNearby.obj
 0001:00048e33       ?LoadScheme@KUiSelPlayerNearby@@SAXPBD@Z 00449e33 f   UiSelPlayerNearby.obj
 0001:00048ed5       ?LoadScheme@KUiSelPlayerNearby@@AAEXPAVKIniFile@@@Z 00449ed5 f   UiSelPlayerNearby.obj
 0001:00049005       ?WndProc@KUiSelPlayerNearby@@EAEHIIH@Z 0044a005 f   UiSelPlayerNearby.obj
 0001:00049184       ?OnClickXButton@KUiSelPlayerNearby@@AAEXH@Z 0044a184 f   UiSelPlayerNearby.obj
 0001:000492f1       ?UpdateData@KUiSelPlayerNearby@@EAEXXZ 0044a2f1 f   UiSelPlayerNearby.obj
 0001:000493a0       ?Clear@KUiSelPlayerNearby@@AAEXXZ 0044a3a0 f   UiSelPlayerNearby.obj
 0001:00049400       ??_EKUiSelPlayerNearby@@EAEPAXI@Z 0044a400 f i UiSelPlayerNearby.obj
 0001:00049400       ??_GKUiSelPlayerNearby@@EAEPAXI@Z 0044a400 f i UiSelPlayerNearby.obj
 0001:00049430       ??1KUiSelPlayerNearby@@EAE@XZ 0044a430 f i UiSelPlayerNearby.obj
 0001:000494f0       ?PROP_GetTitleString@@YAPBDW4OBJ_ATTRIBYTE_TYPE@@@Z 0044a4f0 f   UiNewPlayer.obj
 0001:000494ff       ??0KUiNewPlayer@@AAE@XZ    0044a4ff f   UiNewPlayer.obj
 0001:000496b2       ?OpenWindow@KUiNewPlayer@@SAPAV1@H@Z 0044a6b2 f   UiNewPlayer.obj
 0001:00049799       ??1KUiNewPlayer@@EAE@XZ    0044a799 f   UiNewPlayer.obj
 0001:000498d7       ?CloseWindow@KUiNewPlayer@@SAX_N@Z 0044a8d7 f   UiNewPlayer.obj
 0001:0004992c       ?Initialize@KUiNewPlayer@@AAEXXZ 0044a92c f   UiNewPlayer.obj
 0001:00049c75       ?SelGender@KUiNewPlayer@@AAEXXZ 0044ac75 f   UiNewPlayer.obj
 0001:00049e45       ?LoadScheme@KUiNewPlayer@@AAEXPBD@Z 0044ae45 f   UiNewPlayer.obj
 0001:0004a168       ?WndProc@KUiNewPlayer@@EAEHIIH@Z 0044b168 f   UiNewPlayer.obj
 0001:0004a1ee       ?OnClickButton@KUiNewPlayer@@AAEXPAVKWndWindow@@@Z 0044b1ee f   UiNewPlayer.obj
 0001:0004a2e2       ?UpdateProperty@KUiNewPlayer@@AAEXXZ 0044b2e2 f   UiNewPlayer.obj
 0001:0004a468       ?OnOk@KUiNewPlayer@@AAEXXZ 0044b468 f   UiNewPlayer.obj
 0001:0004a4b5       ?OnCancel@KUiNewPlayer@@AAEXXZ 0044b4b5 f   UiNewPlayer.obj
 0001:0004a4df       ?GetInputInfo@KUiNewPlayer@@AAEHXZ 0044b4df f   UiNewPlayer.obj
 0001:0004a608       ?Breathe@KUiNewPlayer@@EAEXXZ 0044b608 f   UiNewPlayer.obj
 0001:0004a730       ??_GKUiNewPlayer@@EAEPAXI@Z 0044b730 f i UiNewPlayer.obj
 0001:0004a730       ??_EKUiNewPlayer@@EAEPAXI@Z 0044b730 f i UiNewPlayer.obj
 0001:0004a760       ??0KUiSelNativePlace@@AAE@XZ 0044b760 f   UiSelNativePlace.obj
 0001:0004a826       ??1KUiSelNativePlace@@EAE@XZ 0044b826 f   UiSelNativePlace.obj
 0001:0004a90b       ?OpenWindow@KUiSelNativePlace@@SAPAV1@H@Z 0044b90b f   UiSelNativePlace.obj
 0001:0004a9f3       ?CloseWindow@KUiSelNativePlace@@SAX_N@Z 0044b9f3 f   UiSelNativePlace.obj
 0001:0004aa35       ?Initialize@KUiSelNativePlace@@AAEXXZ 0044ba35 f   UiSelNativePlace.obj
 0001:0004aaf7       ?LoadList@KUiSelNativePlace@@AAEXH@Z 0044baf7 f   UiSelNativePlace.obj
 0001:0004affa       ?LoadScheme@KUiSelNativePlace@@AAEXPBD@Z 0044bffa f   UiSelNativePlace.obj
 0001:0004b191       ?WndProc@KUiSelNativePlace@@EAEHIIH@Z 0044c191 f   UiSelNativePlace.obj
 0001:0004b384       ?OnOk@KUiSelNativePlace@@AAEXXZ 0044c384 f   UiSelNativePlace.obj
 0001:0004b3e3       ?OnCancel@KUiSelNativePlace@@AAEXXZ 0044c3e3 f   UiSelNativePlace.obj
 0001:0004b3fd       ?UpdateData@KUiSelNativePlace@@EAEXXZ 0044c3fd f   UiSelNativePlace.obj
 0001:0004b4a0       ??_GKUiSelNativePlace@@EAEPAXI@Z 0044c4a0 f i UiSelNativePlace.obj
 0001:0004b4a0       ??_EKUiSelNativePlace@@EAEPAXI@Z 0044c4a0 f i UiSelNativePlace.obj
 0001:0004b4d0       ??0KUiSelPlayer@@AAE@XZ    0044c4d0 f   UiSelPlayer.obj
 0001:0004b677       ?OpenWindow@KUiSelPlayer@@SAPAV1@XZ 0044c677 f   UiSelPlayer.obj
 0001:0004b753       ?CloseWindow@KUiSelPlayer@@SAXXZ 0044c753 f   UiSelPlayer.obj
 0001:0004b785       ?Hide@KUiSelPlayer@@EAEXXZ 0044c785 f   UiSelPlayer.obj
 0001:0004b7a7       ?Initialize@KUiSelPlayer@@AAEXXZ 0044c7a7 f   UiSelPlayer.obj
 0001:0004b863       ?LoadScheme@KUiSelPlayer@@AAEXPBD@Z 0044c863 f   UiSelPlayer.obj
 0001:0004bcff       ?PaintWindow@KUiSelPlayer@@EAEXXZ 0044ccff f   UiSelPlayer.obj
 0001:0004be71       ?UpdateData@KUiSelPlayer@@EAEXXZ 0044ce71 f   UiSelPlayer.obj
 0001:0004ce7d       ?GetRoleImageName@KUiSelPlayer@@SAXPADPBDEEH@Z 0044de7d f   UiSelPlayer.obj
 0001:0004ced4       ?WndProc@KUiSelPlayer@@EAEHIIH@Z 0044ded4 f   UiSelPlayer.obj
 0001:0004cf58       ?OnKeyDown@KUiSelPlayer@@AAEHI@Z 0044df58 f   UiSelPlayer.obj
 0001:0004d246       ?OnSelectPlayer@KUiSelPlayer@@AAEXH_N@Z 0044e246 f   UiSelPlayer.obj
 0001:0004d440       ?OnClickButton@KUiSelPlayer@@AAEXPAVKWndButton@@_N@Z 0044e440 f   UiSelPlayer.obj
 0001:0004d517       ?OnEnterGame@KUiSelPlayer@@AAEXXZ 0044e517 f   UiSelPlayer.obj
 0001:0004d562       ?OnNew@KUiSelPlayer@@AAEXXZ 0044e562 f   UiSelPlayer.obj
 0001:0004d597       ?OnDel@KUiSelPlayer@@AAEXXZ 0044e597 f   UiSelPlayer.obj
 0001:0004d5d5       ?OnCancel@KUiSelPlayer@@AAEXXZ 0044e5d5 f   UiSelPlayer.obj
 0001:0004d5fa       ?GetActiveBtn@KUiSelPlayer@@AAEPAVKWndButton@@XZ 0044e5fa f   UiSelPlayer.obj
 0001:0004d690       ??_GKUiSelPlayer@@EAEPAXI@Z 0044e690 f i UiSelPlayer.obj
 0001:0004d690       ??_EKUiSelPlayer@@EAEPAXI@Z 0044e690 f i UiSelPlayer.obj
 0001:0004d6c0       ??1KUiSelPlayer@@EAE@XZ    0044e6c0 f i UiSelPlayer.obj
 0001:0004d7f0       ?GetAccountLifeTime@KLogin@@QAEKXZ 0044e7f0 f i UiSelPlayer.obj
 0001:0004d810       ??0KUiChannelSubscibe@@QAE@XZ 0044e810 f   UiChannelSubscibe.obj
 0001:0004d81e       ??1KUiChannelSubscibe@@QAE@XZ 0044e81e f   UiChannelSubscibe.obj
 0001:0004d849       ?CreateUnit@ServerNotify@@UAEHPBD@Z 0044e849 f   UiChatCentre.obj
 0001:0004d870       ?RenameUnitGroup@ServerNotify@@UAEHPBD00ABV?$list@V?$basic_string@DU?$char_traits@D@std@@V?$allocator@D@2@@std@@V?$allocator@V?$basic_string@DU?$char_traits@D@std@@V?$allocator@D@2@@std@@@2@@std@@@Z 0044e870 f   UiChatCentre.obj
 0001:0004d90d       ?DeleteUnitGroup@ServerNotify@@UAEHPBD0ABV?$list@V?$basic_string@DU?$char_traits@D@std@@V?$allocator@D@2@@std@@V?$allocator@V?$basic_string@DU?$char_traits@D@std@@V?$allocator@D@2@@std@@@2@@std@@@Z 0044e90d f   UiChatCentre.obj
 0001:0004d99e       ?MoveUnitGroup@ServerNotify@@UAEHPBD00ABV?$list@V?$basic_string@DU?$char_traits@D@std@@V?$allocator@D@2@@std@@V?$allocator@V?$basic_string@DU?$char_traits@D@std@@V?$allocator@D@2@@std@@@2@@std@@@Z 0044e99e f   UiChatCentre.obj
 0001:0004da3b       ?DeleteUnitMember@ServerNotify@@UAEHPBD0@Z 0044ea3b f   UiChatCentre.obj
 0001:0004da6a       ?MoveUnitMember@ServerNotify@@UAEHPBD00@Z 0044ea6a f   UiChatCentre.obj
 0001:0004db4c       ?SendSyncData@ServerNotify@@QAEXPBD@Z 0044eb4c f   UiChatCentre.obj
 0001:0004dc10       ?SendNotifyGroupFriend@ServerNotify@@QAEXPBDABV?$basic_string@DU?$char_traits@D@std@@V?$allocator@D@2@@std@@ABV?$list@V?$basic_string@DU?$char_traits@D@std@@V?$allocator@D@2@@std@@V?$allocator@V?$basic_string@DU?$char_traits@D@std@@V?$allocator@D@2@@std@@@2@@3@@Z 0044ec10 f   UiChatCentre.obj
 0001:0004deb0       ?SendNotifyDeleteFriend@ServerNotify@@QAEXPBD0@Z 0044eeb0 f   UiChatCentre.obj
 0001:0004df72       ??0KUiChatCentre@@AAE@XZ   0044ef72 f   UiChatCentre.obj
 0001:0004e35b       ?GetIfVisible@KUiChatCentre@@SAPAV1@XZ 0044f35b f   UiChatCentre.obj
 0001:0004e381       ?OpenWindow@KUiChatCentre@@SAPAV1@_N@Z 0044f381 f   UiChatCentre.obj
 0001:0004e481       ?Initialize@KUiChatCentre@@AAEXXZ 0044f481 f   UiChatCentre.obj
 0001:0004e60b       ?CloseWindow@KUiChatCentre@@SAX_N@Z 0044f60b f   UiChatCentre.obj
 0001:0004e658       ?LoadScheme@KUiChatCentre@@SAXPBD@Z 0044f658 f   UiChatCentre.obj
 0001:0004e6f5       ?LoadScheme@KUiChatCentre@@AAEXPAVKIniFile@@@Z 0044f6f5 f   UiChatCentre.obj
 0001:0004eb64       ?CreateSeverUnit@KUiChatCentre@@SAXXZ 0044fb64 f   UiChatCentre.obj
 0001:0004ec31       ?LoadPrivateSetting@KUiChatCentre@@SAHPAVKIniFile@@@Z 0044fc31 f   UiChatCentre.obj
 0001:0004ed37       ?SavePrivateSetting@KUiChatCentre@@SAHPAVKIniFile@@@Z 0044fd37 f   UiChatCentre.obj
 0001:0004ee2f       ?WndProc@KUiChatCentre@@EAEHIIH@Z 0044fe2f f   UiChatCentre.obj
 0001:0004f10e       ?OnMoveFriendToGroup@KUiChatCentre@@AAEXHH@Z 0045010e f   UiChatCentre.obj
 0001:0004f1ec       ?OnSelGroupMenu@KUiChatCentre@@AAEXHH@Z 004501ec f   UiChatCentre.obj
 0001:0004f2fc       ?DragWndSize@KUiChatCentre@@AAEXH@Z 004502fc f   UiChatCentre.obj
 0001:0004f47d       ?OnSelFriendMenu@KUiChatCentre@@AAEXHH@Z 0045047d f   UiChatCentre.obj
 0001:0004f51f       ?OnClickGroupBtn@KUiChatCentre@@AAE_NPAVKWndWindow@@_N@Z 0045051f f   UiChatCentre.obj
 0001:0004f5c5       ?SendFriendMsg@KUiChatCentre@@AAEXH_N@Z 004505c5 f   UiChatCentre.obj
 0001:0004f612       ?UpdateData@KUiChatCentre@@SAXW4UICHATCENTRE_UPDATE@@IH@Z 00450612 f   UiChatCentre.obj
 0001:0004f6ba       ?IsMyFriend@KUiChatCentre@@SA_NPAD@Z 004506ba f   UiChatCentre.obj
 0001:0004f7bc       ?AddFriendInfo@KUiChatCentre@@SA_NHPAD0@Z 004507bc f   UiChatCentre.obj
 0001:0004fbfb       ?FriendStatus@KUiChatCentre@@SA_NHPADE@Z 00450bfb f   UiChatCentre.obj
 0001:0004fe3c       ?NewGroup@KUiChatCentre@@SAXHPBD@Z 00450e3c f   UiChatCentre.obj
 0001:0005004b       ?ReplaceGroupName@KUiChatCentre@@SAXHPBD0@Z 0045104b f   UiChatCentre.obj
 0001:0005039c       ?MoveFriendToGroup@KUiChatCentre@@SAXHPBD0@Z 0045139c f   UiChatCentre.obj
 0001:00050644       ?MoveGroupToGroup@KUiChatCentre@@SAXHPBD0_N@Z 00451644 f   UiChatCentre.obj
 0001:00050a37       ?FindUnitIndex@KUiChatCentre@@SAHPBD@Z 00451a37 f   UiChatCentre.obj
 0001:00050ab3       ?FindUnitIndexByRoleNameAtServerUnit@KUiChatCentre@@SAHPAD@Z 00451ab3 f   UiChatCentre.obj
 0001:00050bcb       ?FindAddinUnitIndex@KUiChatCentre@@SAHPBD@Z 00451bcb f   UiChatCentre.obj
 0001:00050c60       ?AddAddinUnit@KUiChatCentre@@SAHPBDPAUFriendNotify@@@Z 00451c60 f   UiChatCentre.obj
 0001:00050d56       ?RemoveAddinUnit@KUiChatCentre@@SAHPBD@Z 00451d56 f   UiChatCentre.obj
 0001:00050edb       ?DeleteFriend@KUiChatCentre@@SAXHPAD_N@Z 00451edb f   UiChatCentre.obj
 0001:000510ed       ?OnClickButton@KUiChatCentre@@AAEXPAVKWndWindow@@@Z 004520ed f   UiChatCentre.obj
 0001:000511d7       ?OnSelUnit@KUiChatCentre@@AAEXH@Z 004521d7 f   UiChatCentre.obj
 0001:0005122b       ?OnScrollList@KUiChatCentre@@AAEX_N@Z 0045222b f   UiChatCentre.obj
 0001:0005128c       ?CancelMenu@KUiChatCentre@@AAEXXZ 0045228c f   UiChatCentre.obj
 0001:000512e1       ?PopupupGroupMenu@KUiChatCentre@@AAEXH@Z 004522e1 f   UiChatCentre.obj
 0001:00051362       ?PopupFriendMenu@KUiChatCentre@@AAEXH@Z 00452362 f   UiChatCentre.obj
 0001:000513f6       ?PopupSelGroupMenu@KUiChatCentre@@AAEXH@Z 004523f6 f   UiChatCentre.obj
 0001:000515aa       ?PopupSelUnitMenu@KUiChatCentre@@AAEXXZ 004525aa f   UiChatCentre.obj
 0001:000516be       ?ClearInterface@KUiChatCentre@@AAEXXZ 004526be f   UiChatCentre.obj
 0001:00051729       ?ClearFriendList@KUiChatCentre@@AAEXXZ 00452729 f   UiChatCentre.obj
 0001:00051783       ?ClearUnitData@KUiChatCentre@@AAEXH@Z 00452783 f   UiChatCentre.obj
 0001:0005183e       ?UpdateAll@KUiChatCentre@@AAEXH@Z 0045283e f   UiChatCentre.obj
 0001:00051a87       ?UpdateGroup@KUiChatCentre@@AAEXH@Z 00452a87 f   UiChatCentre.obj
 0001:0005201b       ?UpdateFriend@KUiChatCentre@@AAEXPAUKUiPlayerItem@@H@Z 0045301b f   UiChatCentre.obj
 0001:00052063       ?FindGroupIndex@FriendUnit@KUiChatCentre@@QAEHABV?$basic_string@DU?$char_traits@D@std@@V?$allocator@D@2@@std@@@Z 00453063 f   UiChatCentre.obj
 0001:000520ef       ?UpdateInterface@KUiChatCentre@@AAEXXZ 004530ef f   UiChatCentre.obj
 0001:000526f1       ?PaintWindow@KUiChatCentre@@EAEXXZ 004536f1 f   UiChatCentre.obj
 0001:00052793       ?AdjustSize@KUiChatCentre@@AAEXH@Z 00453793 f   UiChatCentre.obj
 0001:00052919       ?PtInWindow@KUiChatCentre@@EAEHHH@Z 00453919 f   UiChatCentre.obj
 0001:00052a00       ??0ServerNotify@@QAE@XZ    00453a00 f i UiChatCentre.obj
 0001:00052a20       ??0AddinNotify@@QAE@XZ     00453a20 f i UiChatCentre.obj
 0001:00052a40       ??0FriendNotify@@QAE@XZ    00453a40 f i UiChatCentre.obj
 0001:00052a60       ??_GKUiChatCentre@@EAEPAXI@Z 00453a60 f i UiChatCentre.obj
 0001:00052a60       ??_EKUiChatCentre@@EAEPAXI@Z 00453a60 f i UiChatCentre.obj
 0001:00052a90       ??1KUiChatCentre@@EAE@XZ   00453a90 f i UiChatCentre.obj
 0001:00052bd0       ??1FriendUnit@KUiChatCentre@@QAE@XZ 00453bd0 f i UiChatCentre.obj
 0001:00052c50       ??1?$map@V?$basic_string@DU?$char_traits@D@std@@V?$allocator@D@2@@std@@V12@U?$less@V?$basic_string@DU?$char_traits@D@std@@V?$allocator@D@2@@std@@@2@V?$allocator@V?$basic_string@DU?$char_traits@D@std@@V?$allocator@D@2@@std@@@2@@std@@QAE@XZ 00453c50 f i UiChatCentre.obj
 0001:00052c70       ??1?$map@V?$basic_string@DU?$char_traits@D@std@@V?$allocator@D@2@@std@@EU?$less@V?$basic_string@DU?$char_traits@D@std@@V?$allocator@D@2@@std@@@2@V?$allocator@E@2@@std@@QAE@XZ 00453c70 f i UiChatCentre.obj
 0001:00052c90       ??1GROUPINFO@KUiChatCentre@@QAE@XZ 00453c90 f i UiChatCentre.obj
 0001:00052cb0       ??0FriendUnit@KUiChatCentre@@QAE@XZ 00453cb0 f i UiChatCentre.obj
 0001:00052d50       ??0GROUPINFO@KUiChatCentre@@QAE@XZ 00453d50 f i UiChatCentre.obj
 0001:00052d70       ??4GROUPINFO@KUiChatCentre@@QAEAAU01@ABU01@@Z 00453d70 f i UiChatCentre.obj
 0001:00052da0       ??4FriendUnit@KUiChatCentre@@QAEAAU01@ABU01@@Z 00453da0 f i UiChatCentre.obj
 0001:00052e50       ??0?$map@V?$basic_string@DU?$char_traits@D@std@@V?$allocator@D@2@@std@@V12@U?$less@V?$basic_string@DU?$char_traits@D@std@@V?$allocator@D@2@@std@@@2@V?$allocator@V?$basic_string@DU?$char_traits@D@std@@V?$allocator@D@2@@std@@@2@@std@@QAE@ABU?$less@V?$basic_string@DU?$char_traits@D@std@@V?$allocator@D@2@@std@@@1@ABV?$allocator@V?$basic_string@DU?$char_traits@D@std@@V?$allocator@D@2@@std@@@1@@Z 00453e50 f i UiChatCentre.obj
 0001:00052e80       ??4?$map@V?$basic_string@DU?$char_traits@D@std@@V?$allocator@D@2@@std@@V12@U?$less@V?$basic_string@DU?$char_traits@D@std@@V?$allocator@D@2@@std@@@2@V?$allocator@V?$basic_string@DU?$char_traits@D@std@@V?$allocator@D@2@@std@@@2@@std@@QAEAAV01@ABV01@@Z 00453e80 f i UiChatCentre.obj
 0001:00052ea0       ?begin@?$map@V?$basic_string@DU?$char_traits@D@std@@V?$allocator@D@2@@std@@V12@U?$less@V?$basic_string@DU?$char_traits@D@std@@V?$allocator@D@2@@std@@@2@V?$allocator@V?$basic_string@DU?$char_traits@D@std@@V?$allocator@D@2@@std@@@2@@std@@QAE?AViterator@?$_Tree@V?$basic_string@DU?$char_traits@D@std@@V?$allocator@D@2@@std@@U?$pair@$$CBV?$basic_string@DU?$char_traits@D@std@@V?$allocator@D@2@@std@@V12@@2@U_Kfn@?$map@V?$basic_string@DU?$char_traits@D@std@@V?$allocator@D@2@@std@@V12@U?$less@V?$basic_string@DU?$char_traits@D@std@@V?$allocator@D@2@@std@@@2@V?$allocator@V?$basic_string@DU?$char_traits@D@std@@V?$allocator@D@2@@std@@@2@@2@U?$less@V?$basic_string@DU?$char_traits@D@std@@V?$allocator@D@2@@std@@@2@V?$allocator@V?$basic_string@DU?$char_traits@D@std@@V?$allocator@D@2@@std@@@2@@2@XZ 00453ea0 f i UiChatCentre.obj
 0001:00052ed0       ?end@?$map@V?$basic_string@DU?$char_traits@D@std@@V?$allocator@D@2@@std@@V12@U?$less@V?$basic_string@DU?$char_traits@D@std@@V?$allocator@D@2@@std@@@2@V?$allocator@V?$basic_string@DU?$char_traits@D@std@@V?$allocator@D@2@@std@@@2@@std@@QAE?AViterator@?$_Tree@V?$basic_string@DU?$char_traits@D@std@@V?$allocator@D@2@@std@@U?$pair@$$CBV?$basic_string@DU?$char_traits@D@std@@V?$allocator@D@2@@std@@V12@@2@U_Kfn@?$map@V?$basic_string@DU?$char_traits@D@std@@V?$allocator@D@2@@std@@V12@U?$less@V?$basic_string@DU?$char_traits@D@std@@V?$allocator@D@2@@std@@@2@V?$allocator@V?$basic_string@DU?$char_traits@D@std@@V?$allocator@D@2@@std@@@2@@2@U?$less@V?$basic_string@DU?$char_traits@D@std@@V?$allocator@D@2@@std@@@2@V?$allocator@V?$basic_string@DU?$char_traits@D@std@@V?$allocator@D@2@@std@@@2@@2@XZ 00453ed0 f i UiChatCentre.obj
 0001:00052f00       ??A?$map@V?$basic_string@DU?$char_traits@D@std@@V?$allocator@D@2@@std@@V12@U?$less@V?$basic_string@DU?$char_traits@D@std@@V?$allocator@D@2@@std@@@2@V?$allocator@V?$basic_string@DU?$char_traits@D@std@@V?$allocator@D@2@@std@@@2@@std@@QAEAAV?$basic_string@DU?$char_traits@D@std@@V?$allocator@D@2@@1@ABV21@@Z 00453f00 f i UiChatCentre.obj
 0001:00052fb0       ?erase@?$map@V?$basic_string@DU?$char_traits@D@std@@V?$allocator@D@2@@std@@V12@U?$less@V?$basic_string@DU?$char_traits@D@std@@V?$allocator@D@2@@std@@@2@V?$allocator@V?$basic_string@DU?$char_traits@D@std@@V?$allocator@D@2@@std@@@2@@std@@QAE?AViterator@?$_Tree@V?$basic_string@DU?$char_traits@D@std@@V?$allocator@D@2@@std@@U?$pair@$$CBV?$basic_string@DU?$char_traits@D@std@@V?$allocator@D@2@@std@@V12@@2@U_Kfn@?$map@V?$basic_string@DU?$char_traits@D@std@@V?$allocator@D@2@@std@@V12@U?$less@V?$basic_string@DU?$char_traits@D@std@@V?$allocator@D@2@@std@@@2@V?$allocator@V?$basic_string@DU?$char_traits@D@std@@V?$allocator@D@2@@std@@@2@@2@U?$less@V?$basic_string@DU?$char_traits@D@std@@V?$allocator@D@2@@std@@@2@V?$allocator@V?$basic_string@DU?$char_traits@D@std@@V?$allocator@D@2@@std@@@2@@2@V342@@Z 00453fb0 f i UiChatCentre.obj
 0001:00052fe0       ?clear@?$map@V?$basic_string@DU?$char_traits@D@std@@V?$allocator@D@2@@std@@V12@U?$less@V?$basic_string@DU?$char_traits@D@std@@V?$allocator@D@2@@std@@@2@V?$allocator@V?$basic_string@DU?$char_traits@D@std@@V?$allocator@D@2@@std@@@2@@std@@QAEXXZ 00453fe0 f i UiChatCentre.obj
 0001:00053000       ?find@?$map@V?$basic_string@DU?$char_traits@D@std@@V?$allocator@D@2@@std@@V12@U?$less@V?$basic_string@DU?$char_traits@D@std@@V?$allocator@D@2@@std@@@2@V?$allocator@V?$basic_string@DU?$char_traits@D@std@@V?$allocator@D@2@@std@@@2@@std@@QAE?AViterator@?$_Tree@V?$basic_string@DU?$char_traits@D@std@@V?$allocator@D@2@@std@@U?$pair@$$CBV?$basic_string@DU?$char_traits@D@std@@V?$allocator@D@2@@std@@V12@@2@U_Kfn@?$map@V?$basic_string@DU?$char_traits@D@std@@V?$allocator@D@2@@std@@V12@U?$less@V?$basic_string@DU?$char_traits@D@std@@V?$allocator@D@2@@std@@@2@V?$allocator@V?$basic_string@DU?$char_traits@D@std@@V?$allocator@D@2@@std@@@2@@2@U?$less@V?$basic_string@DU?$char_traits@D@std@@V?$allocator@D@2@@std@@@2@V?$allocator@V?$basic_string@DU?$char_traits@D@std@@V?$allocator@D@2@@std@@@2@@2@ABV?$basic_string@DU?$char_traits@D@std@@V?$allocator@D@2@@2@@Z 00454000 f i UiChatCentre.obj
 0001:00053030       ??1?$_Tree@V?$basic_string@DU?$char_traits@D@std@@V?$allocator@D@2@@std@@U?$pair@$$CBV?$basic_string@DU?$char_traits@D@std@@V?$allocator@D@2@@std@@V12@@2@U_Kfn@?$map@V?$basic_string@DU?$char_traits@D@std@@V?$allocator@D@2@@std@@V12@U?$less@V?$basic_string@DU?$char_traits@D@std@@V?$allocator@D@2@@std@@@2@V?$allocator@V?$basic_string@DU?$char_traits@D@std@@V?$allocator@D@2@@std@@@2@@2@U?$less@V?$basic_string@DU?$char_traits@D@std@@V?$allocator@D@2@@std@@@2@V?$allocator@V?$basic_string@DU?$char_traits@D@std@@V?$allocator@D@2@@std@@@2@@std@@QAE@XZ 00454030 f i UiChatCentre.obj
 0001:00053100       ??Citerator@?$_Tree@V?$basic_string@DU?$char_traits@D@std@@V?$allocator@D@2@@std@@U?$pair@$$CBV?$basic_string@DU?$char_traits@D@std@@V?$allocator@D@2@@std@@V12@@2@U_Kfn@?$map@V?$basic_string@DU?$char_traits@D@std@@V?$allocator@D@2@@std@@V12@U?$less@V?$basic_string@DU?$char_traits@D@std@@V?$allocator@D@2@@std@@@2@V?$allocator@V?$basic_string@DU?$char_traits@D@std@@V?$allocator@D@2@@std@@@2@@2@U?$less@V?$basic_string@DU?$char_traits@D@std@@V?$allocator@D@2@@std@@@2@V?$allocator@V?$basic_string@DU?$char_traits@D@std@@V?$allocator@D@2@@std@@@2@@std@@QBEPAU?$pair@$$CBV?$basic_string@DU?$char_traits@D@std@@V?$allocator@D@2@@std@@V12@@2@XZ 00454100 f i UiChatCentre.obj
 0001:00053120       ??Eiterator@?$_Tree@V?$basic_string@DU?$char_traits@D@std@@V?$allocator@D@2@@std@@U?$pair@$$CBV?$basic_string@DU?$char_traits@D@std@@V?$allocator@D@2@@std@@V12@@2@U_Kfn@?$map@V?$basic_string@DU?$char_traits@D@std@@V?$allocator@D@2@@std@@V12@U?$less@V?$basic_string@DU?$char_traits@D@std@@V?$allocator@D@2@@std@@@2@V?$allocator@V?$basic_string@DU?$char_traits@D@std@@V?$allocator@D@2@@std@@@2@@2@U?$less@V?$basic_string@DU?$char_traits@D@std@@V?$allocator@D@2@@std@@@2@V?$allocator@V?$basic_string@DU?$char_traits@D@std@@V?$allocator@D@2@@std@@@2@@std@@QAE?AV012@H@Z 00454120 f i UiChatCentre.obj
 0001:00053150       ??9iterator@?$_Tree@V?$basic_string@DU?$char_traits@D@std@@V?$allocator@D@2@@std@@U?$pair@$$CBV?$basic_string@DU?$char_traits@D@std@@V?$allocator@D@2@@std@@V12@@2@U_Kfn@?$map@V?$basic_string@DU?$char_traits@D@std@@V?$allocator@D@2@@std@@V12@U?$less@V?$basic_string@DU?$char_traits@D@std@@V?$allocator@D@2@@std@@@2@V?$allocator@V?$basic_string@DU?$char_traits@D@std@@V?$allocator@D@2@@std@@@2@@2@U?$less@V?$basic_string@DU?$char_traits@D@std@@V?$allocator@D@2@@std@@@2@V?$allocator@V?$basic_string@DU?$char_traits@D@std@@V?$allocator@D@2@@std@@@2@@std@@QBE_NABV012@@Z 00454150 f i UiChatCentre.obj
 0001:00053180       ??0?$map@V?$basic_string@DU?$char_traits@D@std@@V?$allocator@D@2@@std@@EU?$less@V?$basic_string@DU?$char_traits@D@std@@V?$allocator@D@2@@std@@@2@V?$allocator@E@2@@std@@QAE@ABU?$less@V?$basic_string@DU?$char_traits@D@std@@V?$allocator@D@2@@std@@@1@ABV?$allocator@E@1@@Z 00454180 f i UiChatCentre.obj
 0001:000531b0       ??4?$map@V?$basic_string@DU?$char_traits@D@std@@V?$allocator@D@2@@std@@EU?$less@V?$basic_string@DU?$char_traits@D@std@@V?$allocator@D@2@@std@@@2@V?$allocator@E@2@@std@@QAEAAV01@ABV01@@Z 004541b0 f i UiChatCentre.obj
 0001:000531d0       ?end@?$map@V?$basic_string@DU?$char_traits@D@std@@V?$allocator@D@2@@std@@EU?$less@V?$basic_string@DU?$char_traits@D@std@@V?$allocator@D@2@@std@@@2@V?$allocator@E@2@@std@@QAE?AViterator@?$_Tree@V?$basic_string@DU?$char_traits@D@std@@V?$allocator@D@2@@std@@U?$pair@$$CBV?$basic_string@DU?$char_traits@D@std@@V?$allocator@D@2@@std@@E@2@U_Kfn@?$map@V?$basic_string@DU?$char_traits@D@std@@V?$allocator@D@2@@std@@EU?$less@V?$basic_string@DU?$char_traits@D@std@@V?$allocator@D@2@@std@@@2@V?$allocator@E@2@@2@U?$less@V?$basic_string@DU?$char_traits@D@std@@V?$allocator@D@2@@std@@@2@V?$allocator@E@2@@2@XZ 004541d0 f i UiChatCentre.obj
 0001:00053200       ??A?$map@V?$basic_string@DU?$char_traits@D@std@@V?$allocator@D@2@@std@@EU?$less@V?$basic_string@DU?$char_traits@D@std@@V?$allocator@D@2@@std@@@2@V?$allocator@E@2@@std@@QAEAAEABV?$basic_string@DU?$char_traits@D@std@@V?$allocator@D@2@@1@@Z 00454200 f i UiChatCentre.obj
 0001:00053290       ?clear@?$map@V?$basic_string@DU?$char_traits@D@std@@V?$allocator@D@2@@std@@EU?$less@V?$basic_string@DU?$char_traits@D@std@@V?$allocator@D@2@@std@@@2@V?$allocator@E@2@@std@@QAEXXZ 00454290 f i UiChatCentre.obj
 0001:000532b0       ?find@?$map@V?$basic_string@DU?$char_traits@D@std@@V?$allocator@D@2@@std@@EU?$less@V?$basic_string@DU?$char_traits@D@std@@V?$allocator@D@2@@std@@@2@V?$allocator@E@2@@std@@QAE?AViterator@?$_Tree@V?$basic_string@DU?$char_traits@D@std@@V?$allocator@D@2@@std@@U?$pair@$$CBV?$basic_string@DU?$char_traits@D@std@@V?$allocator@D@2@@std@@E@2@U_Kfn@?$map@V?$basic_string@DU?$char_traits@D@std@@V?$allocator@D@2@@std@@EU?$less@V?$basic_string@DU?$char_traits@D@std@@V?$allocator@D@2@@std@@@2@V?$allocator@E@2@@2@U?$less@V?$basic_string@DU?$char_traits@D@std@@V?$allocator@D@2@@std@@@2@V?$allocator@E@2@@2@ABV?$basic_string@DU?$char_traits@D@std@@V?$allocator@D@2@@2@@Z 004542b0 f i UiChatCentre.obj
 0001:000532e0       ??1?$_Tree@V?$basic_string@DU?$char_traits@D@std@@V?$allocator@D@2@@std@@U?$pair@$$CBV?$basic_string@DU?$char_traits@D@std@@V?$allocator@D@2@@std@@E@2@U_Kfn@?$map@V?$basic_string@DU?$char_traits@D@std@@V?$allocator@D@2@@std@@EU?$less@V?$basic_string@DU?$char_traits@D@std@@V?$allocator@D@2@@std@@@2@V?$allocator@E@2@@2@U?$less@V?$basic_string@DU?$char_traits@D@std@@V?$allocator@D@2@@std@@@2@V?$allocator@E@2@@std@@QAE@XZ 004542e0 f i UiChatCentre.obj
 0001:000533b0       ??9iterator@?$_Tree@V?$basic_string@DU?$char_traits@D@std@@V?$allocator@D@2@@std@@U?$pair@$$CBV?$basic_string@DU?$char_traits@D@std@@V?$allocator@D@2@@std@@E@2@U_Kfn@?$map@V?$basic_string@DU?$char_traits@D@std@@V?$allocator@D@2@@std@@EU?$less@V?$basic_string@DU?$char_traits@D@std@@V?$allocator@D@2@@std@@@2@V?$allocator@E@2@@2@U?$less@V?$basic_string@DU?$char_traits@D@std@@V?$allocator@D@2@@std@@@2@V?$allocator@E@2@@std@@QBE_NABV012@@Z 004543b0 f i UiChatCentre.obj
 0001:000533e0       ??0?$list@V?$basic_string@DU?$char_traits@D@std@@V?$allocator@D@2@@std@@V?$allocator@V?$basic_string@DU?$char_traits@D@std@@V?$allocator@D@2@@std@@@2@@std@@QAE@ABV?$allocator@V?$basic_string@DU?$char_traits@D@std@@V?$allocator@D@2@@std@@@1@@Z 004543e0 f i UiChatCentre.obj
 0001:00053420       ??1?$list@V?$basic_string@DU?$char_traits@D@std@@V?$allocator@D@2@@std@@V?$allocator@V?$basic_string@DU?$char_traits@D@std@@V?$allocator@D@2@@std@@@2@@std@@QAE@XZ 00454420 f i UiChatCentre.obj
 0001:00053480       ?begin@?$list@V?$basic_string@DU?$char_traits@D@std@@V?$allocator@D@2@@std@@V?$allocator@V?$basic_string@DU?$char_traits@D@std@@V?$allocator@D@2@@std@@@2@@std@@QBE?AVconst_iterator@12@XZ 00454480 f i UiChatCentre.obj
 0001:000534c0       ?end@?$list@V?$basic_string@DU?$char_traits@D@std@@V?$allocator@D@2@@std@@V?$allocator@V?$basic_string@DU?$char_traits@D@std@@V?$allocator@D@2@@std@@@2@@std@@QBE?AVconst_iterator@12@XZ 004544c0 f i UiChatCentre.obj
 0001:000534f0       ?empty@?$list@V?$basic_string@DU?$char_traits@D@std@@V?$allocator@D@2@@std@@V?$allocator@V?$basic_string@DU?$char_traits@D@std@@V?$allocator@D@2@@std@@@2@@std@@QBE_NXZ 004544f0 f i UiChatCentre.obj
 0001:00053510       ?push_back@?$list@V?$basic_string@DU?$char_traits@D@std@@V?$allocator@D@2@@std@@V?$allocator@V?$basic_string@DU?$char_traits@D@std@@V?$allocator@D@2@@std@@@2@@std@@QAEXABV?$basic_string@DU?$char_traits@D@std@@V?$allocator@D@2@@2@@Z 00454510 f i UiChatCentre.obj
 0001:00053540       ??Dconst_iterator@?$list@V?$basic_string@DU?$char_traits@D@std@@V?$allocator@D@2@@std@@V?$allocator@V?$basic_string@DU?$char_traits@D@std@@V?$allocator@D@2@@std@@@2@@std@@QBEABV?$basic_string@DU?$char_traits@D@std@@V?$allocator@D@2@@2@XZ 00454540 f i UiChatCentre.obj
 0001:00053560       ??Econst_iterator@?$list@V?$basic_string@DU?$char_traits@D@std@@V?$allocator@D@2@@std@@V?$allocator@V?$basic_string@DU?$char_traits@D@std@@V?$allocator@D@2@@std@@@2@@std@@QAE?AV012@H@Z 00454560 f i UiChatCentre.obj
 0001:00053590       ??9const_iterator@?$list@V?$basic_string@DU?$char_traits@D@std@@V?$allocator@D@2@@std@@V?$allocator@V?$basic_string@DU?$char_traits@D@std@@V?$allocator@D@2@@std@@@2@@std@@QBE_NABV012@@Z 00454590 f i UiChatCentre.obj
 0001:000535c0       ??1?$pair@$$CBV?$basic_string@DU?$char_traits@D@std@@V?$allocator@D@2@@std@@V12@@std@@QAE@XZ 004545c0 f i UiChatCentre.obj
 0001:00053610       ??1?$pair@$$CBV?$basic_string@DU?$char_traits@D@std@@V?$allocator@D@2@@std@@E@std@@QAE@XZ 00454610 f i UiChatCentre.obj
 0001:00053630       ?insert@?$map@V?$basic_string@DU?$char_traits@D@std@@V?$allocator@D@2@@std@@V12@U?$less@V?$basic_string@DU?$char_traits@D@std@@V?$allocator@D@2@@std@@@2@V?$allocator@V?$basic_string@DU?$char_traits@D@std@@V?$allocator@D@2@@std@@@2@@std@@QAE?AU?$pair@Viterator@?$_Tree@V?$basic_string@DU?$char_traits@D@std@@V?$allocator@D@2@@std@@U?$pair@$$CBV?$basic_string@DU?$char_traits@D@std@@V?$allocator@D@2@@std@@V12@@2@U_Kfn@?$map@V?$basic_string@DU?$char_traits@D@std@@V?$allocator@D@2@@std@@V12@U?$less@V?$basic_string@DU?$char_traits@D@std@@V?$allocator@D@2@@std@@@2@V?$allocator@V?$basic_string@DU?$char_traits@D@std@@V?$allocator@D@2@@std@@@2@@2@U?$less@V?$basic_string@DU?$char_traits@D@std@@V?$allocator@D@2@@std@@@2@V?$allocator@V?$basic_string@DU?$char_traits@D@std@@V?$allocator@D@2@@std@@@2@@std@@_N@2@ABU?$pair@$$CBV?$basic_string@DU?$char_traits@D@std@@V?$allocator@D@2@@std@@V12@@2@@Z 00454630 f i UiChatCentre.obj
 0001:00053680       ??0?$_Tree@V?$basic_string@DU?$char_traits@D@std@@V?$allocator@D@2@@std@@U?$pair@$$CBV?$basic_string@DU?$char_traits@D@std@@V?$allocator@D@2@@std@@V12@@2@U_Kfn@?$map@V?$basic_string@DU?$char_traits@D@std@@V?$allocator@D@2@@std@@V12@U?$less@V?$basic_string@DU?$char_traits@D@std@@V?$allocator@D@2@@std@@@2@V?$allocator@V?$basic_string@DU?$char_traits@D@std@@V?$allocator@D@2@@std@@@2@@2@U?$less@V?$basic_string@DU?$char_traits@D@std@@V?$allocator@D@2@@std@@@2@V?$allocator@V?$basic_string@DU?$char_traits@D@std@@V?$allocator@D@2@@std@@@2@@std@@QAE@ABU?$less@V?$basic_string@DU?$char_traits@D@std@@V?$allocator@D@2@@std@@@1@_NABV?$allocator@V?$basic_string@DU?$char_traits@D@std@@V?$allocator@D@2@@std@@@1@@Z 00454680 f i UiChatCentre.obj
 0001:000536c0       ??4?$_Tree@V?$basic_string@DU?$char_traits@D@std@@V?$allocator@D@2@@std@@U?$pair@$$CBV?$basic_string@DU?$char_traits@D@std@@V?$allocator@D@2@@std@@V12@@2@U_Kfn@?$map@V?$basic_string@DU?$char_traits@D@std@@V?$allocator@D@2@@std@@V12@U?$less@V?$basic_string@DU?$char_traits@D@std@@V?$allocator@D@2@@std@@@2@V?$allocator@V?$basic_string@DU?$char_traits@D@std@@V?$allocator@D@2@@std@@@2@@2@U?$less@V?$basic_string@DU?$char_traits@D@std@@V?$allocator@D@2@@std@@@2@V?$allocator@V?$basic_string@DU?$char_traits@D@std@@V?$allocator@D@2@@std@@@2@@std@@QAEAAV01@ABV01@@Z 004546c0 f i UiChatCentre.obj
 0001:00053720       ?begin@?$_Tree@V?$basic_string@DU?$char_traits@D@std@@V?$allocator@D@2@@std@@U?$pair@$$CBV?$basic_string@DU?$char_traits@D@std@@V?$allocator@D@2@@std@@V12@@2@U_Kfn@?$map@V?$basic_string@DU?$char_traits@D@std@@V?$allocator@D@2@@std@@V12@U?$less@V?$basic_string@DU?$char_traits@D@std@@V?$allocator@D@2@@std@@@2@V?$allocator@V?$basic_string@DU?$char_traits@D@std@@V?$allocator@D@2@@std@@@2@@2@U?$less@V?$basic_string@DU?$char_traits@D@std@@V?$allocator@D@2@@std@@@2@V?$allocator@V?$basic_string@DU?$char_traits@D@std@@V?$allocator@D@2@@std@@@2@@std@@QAE?AViterator@12@XZ 00454720 f i UiChatCentre.obj
 0001:00053750       ?end@?$_Tree@V?$basic_string@DU?$char_traits@D@std@@V?$allocator@D@2@@std@@U?$pair@$$CBV?$basic_string@DU?$char_traits@D@std@@V?$allocator@D@2@@std@@V12@@2@U_Kfn@?$map@V?$basic_string@DU?$char_traits@D@std@@V?$allocator@D@2@@std@@V12@U?$less@V?$basic_string@DU?$char_traits@D@std@@V?$allocator@D@2@@std@@@2@V?$allocator@V?$basic_string@DU?$char_traits@D@std@@V?$allocator@D@2@@std@@@2@@2@U?$less@V?$basic_string@DU?$char_traits@D@std@@V?$allocator@D@2@@std@@@2@V?$allocator@V?$basic_string@DU?$char_traits@D@std@@V?$allocator@D@2@@std@@@2@@std@@QAE?AViterator@12@XZ 00454750 f i UiChatCentre.obj
 0001:00053780       ?erase@?$_Tree@V?$basic_string@DU?$char_traits@D@std@@V?$allocator@D@2@@std@@U?$pair@$$CBV?$basic_string@DU?$char_traits@D@std@@V?$allocator@D@2@@std@@V12@@2@U_Kfn@?$map@V?$basic_string@DU?$char_traits@D@std@@V?$allocator@D@2@@std@@V12@U?$less@V?$basic_string@DU?$char_traits@D@std@@V?$allocator@D@2@@std@@@2@V?$allocator@V?$basic_string@DU?$char_traits@D@std@@V?$allocator@D@2@@std@@@2@@2@U?$less@V?$basic_string@DU?$char_traits@D@std@@V?$allocator@D@2@@std@@@2@V?$allocator@V?$basic_string@DU?$char_traits@D@std@@V?$allocator@D@2@@std@@@2@@std@@QAE?AViterator@12@V312@@Z 00454780 f i UiChatCentre.obj
 0001:00053fd0       ?erase@?$_Tree@V?$basic_string@DU?$char_traits@D@std@@V?$allocator@D@2@@std@@U?$pair@$$CBV?$basic_string@DU?$char_traits@D@std@@V?$allocator@D@2@@std@@V12@@2@U_Kfn@?$map@V?$basic_string@DU?$char_traits@D@std@@V?$allocator@D@2@@std@@V12@U?$less@V?$basic_string@DU?$char_traits@D@std@@V?$allocator@D@2@@std@@@2@V?$allocator@V?$basic_string@DU?$char_traits@D@std@@V?$allocator@D@2@@std@@@2@@2@U?$less@V?$basic_string@DU?$char_traits@D@std@@V?$allocator@D@2@@std@@@2@V?$allocator@V?$basic_string@DU?$char_traits@D@std@@V?$allocator@D@2@@std@@@2@@std@@QAE?AViterator@12@V312@0@Z 00454fd0 f i UiChatCentre.obj
 0001:00054110       ?clear@?$_Tree@V?$basic_string@DU?$char_traits@D@std@@V?$allocator@D@2@@std@@U?$pair@$$CBV?$basic_string@DU?$char_traits@D@std@@V?$allocator@D@2@@std@@V12@@2@U_Kfn@?$map@V?$basic_string@DU?$char_traits@D@std@@V?$allocator@D@2@@std@@V12@U?$less@V?$basic_string@DU?$char_traits@D@std@@V?$allocator@D@2@@std@@@2@V?$allocator@V?$basic_string@DU?$char_traits@D@std@@V?$allocator@D@2@@std@@@2@@2@U?$less@V?$basic_string@DU?$char_traits@D@std@@V?$allocator@D@2@@std@@@2@V?$allocator@V?$basic_string@DU?$char_traits@D@std@@V?$allocator@D@2@@std@@@2@@std@@QAEXXZ 00455110 f i UiChatCentre.obj
 0001:00054150       ?find@?$_Tree@V?$basic_string@DU?$char_traits@D@std@@V?$allocator@D@2@@std@@U?$pair@$$CBV?$basic_string@DU?$char_traits@D@std@@V?$allocator@D@2@@std@@V12@@2@U_Kfn@?$map@V?$basic_string@DU?$char_traits@D@std@@V?$allocator@D@2@@std@@V12@U?$less@V?$basic_string@DU?$char_traits@D@std@@V?$allocator@D@2@@std@@@2@V?$allocator@V?$basic_string@DU?$char_traits@D@std@@V?$allocator@D@2@@std@@@2@@2@U?$less@V?$basic_string@DU?$char_traits@D@std@@V?$allocator@D@2@@std@@@2@V?$allocator@V?$basic_string@DU?$char_traits@D@std@@V?$allocator@D@2@@std@@@2@@std@@QAE?AViterator@12@ABV?$basic_string@DU?$char_traits@D@std@@V?$allocator@D@2@@2@@Z 00455150 f i UiChatCentre.obj
 0001:000541f0       ?_Freenode@?$_Tree@V?$basic_string@DU?$char_traits@D@std@@V?$allocator@D@2@@std@@U?$pair@$$CBV?$basic_string@DU?$char_traits@D@std@@V?$allocator@D@2@@std@@V12@@2@U_Kfn@?$map@V?$basic_string@DU?$char_traits@D@std@@V?$allocator@D@2@@std@@V12@U?$less@V?$basic_string@DU?$char_traits@D@std@@V?$allocator@D@2@@std@@@2@V?$allocator@V?$basic_string@DU?$char_traits@D@std@@V?$allocator@D@2@@std@@@2@@2@U?$less@V?$basic_string@DU?$char_traits@D@std@@V?$allocator@D@2@@std@@@2@V?$allocator@V?$basic_string@DU?$char_traits@D@std@@V?$allocator@D@2@@std@@@2@@std@@IAEXPAU_Node@12@@Z 004551f0 f i UiChatCentre.obj
 0001:00054210       ??0?$pair@$$CBV?$basic_string@DU?$char_traits@D@std@@V?$allocator@D@2@@std@@V12@@std@@QAE@ABV?$basic_string@DU?$char_traits@D@std@@V?$allocator@D@2@@1@0@Z 00455210 f i UiChatCentre.obj
 0001:00054270       ??Diterator@?$_Tree@V?$basic_string@DU?$char_traits@D@std@@V?$allocator@D@2@@std@@U?$pair@$$CBV?$basic_string@DU?$char_traits@D@std@@V?$allocator@D@2@@std@@V12@@2@U_Kfn@?$map@V?$basic_string@DU?$char_traits@D@std@@V?$allocator@D@2@@std@@V12@U?$less@V?$basic_string@DU?$char_traits@D@std@@V?$allocator@D@2@@std@@@2@V?$allocator@V?$basic_string@DU?$char_traits@D@std@@V?$allocator@D@2@@std@@@2@@2@U?$less@V?$basic_string@DU?$char_traits@D@std@@V?$allocator@D@2@@std@@@2@V?$allocator@V?$basic_string@DU?$char_traits@D@std@@V?$allocator@D@2@@std@@@2@@std@@QBEAAU?$pair@$$CBV?$basic_string@DU?$char_traits@D@std@@V?$allocator@D@2@@std@@V12@@2@XZ 00455270 f i UiChatCentre.obj
 0001:00054290       ??Eiterator@?$_Tree@V?$basic_string@DU?$char_traits@D@std@@V?$allocator@D@2@@std@@U?$pair@$$CBV?$basic_string@DU?$char_traits@D@std@@V?$allocator@D@2@@std@@V12@@2@U_Kfn@?$map@V?$basic_string@DU?$char_traits@D@std@@V?$allocator@D@2@@std@@V12@U?$less@V?$basic_string@DU?$char_traits@D@std@@V?$allocator@D@2@@std@@@2@V?$allocator@V?$basic_string@DU?$char_traits@D@std@@V?$allocator@D@2@@std@@@2@@2@U?$less@V?$basic_string@DU?$char_traits@D@std@@V?$allocator@D@2@@std@@@2@V?$allocator@V?$basic_string@DU?$char_traits@D@std@@V?$allocator@D@2@@std@@@2@@std@@QAEAAV012@XZ 00455290 f i UiChatCentre.obj
 0001:000542b0       ??8iterator@?$_Tree@V?$basic_string@DU?$char_traits@D@std@@V?$allocator@D@2@@std@@U?$pair@$$CBV?$basic_string@DU?$char_traits@D@std@@V?$allocator@D@2@@std@@V12@@2@U_Kfn@?$map@V?$basic_string@DU?$char_traits@D@std@@V?$allocator@D@2@@std@@V12@U?$less@V?$basic_string@DU?$char_traits@D@std@@V?$allocator@D@2@@std@@@2@V?$allocator@V?$basic_string@DU?$char_traits@D@std@@V?$allocator@D@2@@std@@@2@@2@U?$less@V?$basic_string@DU?$char_traits@D@std@@V?$allocator@D@2@@std@@@2@V?$allocator@V?$basic_string@DU?$char_traits@D@std@@V?$allocator@D@2@@std@@@2@@std@@QBE_NABV012@@Z 004552b0 f i UiChatCentre.obj
 0001:000542d0       ?insert@?$map@V?$basic_string@DU?$char_traits@D@std@@V?$allocator@D@2@@std@@EU?$less@V?$basic_string@DU?$char_traits@D@std@@V?$allocator@D@2@@std@@@2@V?$allocator@E@2@@std@@QAE?AU?$pair@Viterator@?$_Tree@V?$basic_string@DU?$char_traits@D@std@@V?$allocator@D@2@@std@@U?$pair@$$CBV?$basic_string@DU?$char_traits@D@std@@V?$allocator@D@2@@std@@E@2@U_Kfn@?$map@V?$basic_string@DU?$char_traits@D@std@@V?$allocator@D@2@@std@@EU?$less@V?$basic_string@DU?$char_traits@D@std@@V?$allocator@D@2@@std@@@2@V?$allocator@E@2@@2@U?$less@V?$basic_string@DU?$char_traits@D@std@@V?$allocator@D@2@@std@@@2@V?$allocator@E@2@@std@@_N@2@ABU?$pair@$$CBV?$basic_string@DU?$char_traits@D@std@@V?$allocator@D@2@@std@@E@2@@Z 004552d0 f i UiChatCentre.obj
 0001:00054320       ??0?$_Tree@V?$basic_string@DU?$char_traits@D@std@@V?$allocator@D@2@@std@@U?$pair@$$CBV?$basic_string@DU?$char_traits@D@std@@V?$allocator@D@2@@std@@E@2@U_Kfn@?$map@V?$basic_string@DU?$char_traits@D@std@@V?$allocator@D@2@@std@@EU?$less@V?$basic_string@DU?$char_traits@D@std@@V?$allocator@D@2@@std@@@2@V?$allocator@E@2@@2@U?$less@V?$basic_string@DU?$char_traits@D@std@@V?$allocator@D@2@@std@@@2@V?$allocator@E@2@@std@@QAE@ABU?$less@V?$basic_string@DU?$char_traits@D@std@@V?$allocator@D@2@@std@@@1@_NABV?$allocator@E@1@@Z 00455320 f i UiChatCentre.obj
 0001:00054360       ??4?$_Tree@V?$basic_string@DU?$char_traits@D@std@@V?$allocator@D@2@@std@@U?$pair@$$CBV?$basic_string@DU?$char_traits@D@std@@V?$allocator@D@2@@std@@E@2@U_Kfn@?$map@V?$basic_string@DU?$char_traits@D@std@@V?$allocator@D@2@@std@@EU?$less@V?$basic_string@DU?$char_traits@D@std@@V?$allocator@D@2@@std@@@2@V?$allocator@E@2@@2@U?$less@V?$basic_string@DU?$char_traits@D@std@@V?$allocator@D@2@@std@@@2@V?$allocator@E@2@@std@@QAEAAV01@ABV01@@Z 00455360 f i UiChatCentre.obj
 0001:000543c0       ?begin@?$_Tree@V?$basic_string@DU?$char_traits@D@std@@V?$allocator@D@2@@std@@U?$pair@$$CBV?$basic_string@DU?$char_traits@D@std@@V?$allocator@D@2@@std@@E@2@U_Kfn@?$map@V?$basic_string@DU?$char_traits@D@std@@V?$allocator@D@2@@std@@EU?$less@V?$basic_string@DU?$char_traits@D@std@@V?$allocator@D@2@@std@@@2@V?$allocator@E@2@@2@U?$less@V?$basic_string@DU?$char_traits@D@std@@V?$allocator@D@2@@std@@@2@V?$allocator@E@2@@std@@QAE?AViterator@12@XZ 004553c0 f i UiChatCentre.obj
 0001:000543f0       ?end@?$_Tree@V?$basic_string@DU?$char_traits@D@std@@V?$allocator@D@2@@std@@U?$pair@$$CBV?$basic_string@DU?$char_traits@D@std@@V?$allocator@D@2@@std@@E@2@U_Kfn@?$map@V?$basic_string@DU?$char_traits@D@std@@V?$allocator@D@2@@std@@EU?$less@V?$basic_string@DU?$char_traits@D@std@@V?$allocator@D@2@@std@@@2@V?$allocator@E@2@@2@U?$less@V?$basic_string@DU?$char_traits@D@std@@V?$allocator@D@2@@std@@@2@V?$allocator@E@2@@std@@QAE?AViterator@12@XZ 004553f0 f i UiChatCentre.obj
 0001:00054420       ?erase@?$_Tree@V?$basic_string@DU?$char_traits@D@std@@V?$allocator@D@2@@std@@U?$pair@$$CBV?$basic_string@DU?$char_traits@D@std@@V?$allocator@D@2@@std@@E@2@U_Kfn@?$map@V?$basic_string@DU?$char_traits@D@std@@V?$allocator@D@2@@std@@EU?$less@V?$basic_string@DU?$char_traits@D@std@@V?$allocator@D@2@@std@@@2@V?$allocator@E@2@@2@U?$less@V?$basic_string@DU?$char_traits@D@std@@V?$allocator@D@2@@std@@@2@V?$allocator@E@2@@std@@QAE?AViterator@12@V312@0@Z 00455420 f i UiChatCentre.obj
 0001:00054560       ?clear@?$_Tree@V?$basic_string@DU?$char_traits@D@std@@V?$allocator@D@2@@std@@U?$pair@$$CBV?$basic_string@DU?$char_traits@D@std@@V?$allocator@D@2@@std@@E@2@U_Kfn@?$map@V?$basic_string@DU?$char_traits@D@std@@V?$allocator@D@2@@std@@EU?$less@V?$basic_string@DU?$char_traits@D@std@@V?$allocator@D@2@@std@@@2@V?$allocator@E@2@@2@U?$less@V?$basic_string@DU?$char_traits@D@std@@V?$allocator@D@2@@std@@@2@V?$allocator@E@2@@std@@QAEXXZ 00455560 f i UiChatCentre.obj
 0001:000545a0       ?find@?$_Tree@V?$basic_string@DU?$char_traits@D@std@@V?$allocator@D@2@@std@@U?$pair@$$CBV?$basic_string@DU?$char_traits@D@std@@V?$allocator@D@2@@std@@E@2@U_Kfn@?$map@V?$basic_string@DU?$char_traits@D@std@@V?$allocator@D@2@@std@@EU?$less@V?$basic_string@DU?$char_traits@D@std@@V?$allocator@D@2@@std@@@2@V?$allocator@E@2@@2@U?$less@V?$basic_string@DU?$char_traits@D@std@@V?$allocator@D@2@@std@@@2@V?$allocator@E@2@@std@@QAE?AViterator@12@ABV?$basic_string@DU?$char_traits@D@std@@V?$allocator@D@2@@2@@Z 004555a0 f i UiChatCentre.obj
 0001:00054640       ?_Freenode@?$_Tree@V?$basic_string@DU?$char_traits@D@std@@V?$allocator@D@2@@std@@U?$pair@$$CBV?$basic_string@DU?$char_traits@D@std@@V?$allocator@D@2@@std@@E@2@U_Kfn@?$map@V?$basic_string@DU?$char_traits@D@std@@V?$allocator@D@2@@std@@EU?$less@V?$basic_string@DU?$char_traits@D@std@@V?$allocator@D@2@@std@@@2@V?$allocator@E@2@@2@U?$less@V?$basic_string@DU?$char_traits@D@std@@V?$allocator@D@2@@std@@@2@V?$allocator@E@2@@std@@IAEXPAU_Node@12@@Z 00455640 f i UiChatCentre.obj
 0001:00054660       ??0?$pair@$$CBV?$basic_string@DU?$char_traits@D@std@@V?$allocator@D@2@@std@@E@std@@QAE@ABV?$basic_string@DU?$char_traits@D@std@@V?$allocator@D@2@@1@ABE@Z 00455660 f i UiChatCentre.obj
 0001:00054690       ??Diterator@?$_Tree@V?$basic_string@DU?$char_traits@D@std@@V?$allocator@D@2@@std@@U?$pair@$$CBV?$basic_string@DU?$char_traits@D@std@@V?$allocator@D@2@@std@@E@2@U_Kfn@?$map@V?$basic_string@DU?$char_traits@D@std@@V?$allocator@D@2@@std@@EU?$less@V?$basic_string@DU?$char_traits@D@std@@V?$allocator@D@2@@std@@@2@V?$allocator@E@2@@2@U?$less@V?$basic_string@DU?$char_traits@D@std@@V?$allocator@D@2@@std@@@2@V?$allocator@E@2@@std@@QBEAAU?$pair@$$CBV?$basic_string@DU?$char_traits@D@std@@V?$allocator@D@2@@std@@E@2@XZ 00455690 f i UiChatCentre.obj
 0001:000546b0       ??8iterator@?$_Tree@V?$basic_string@DU?$char_traits@D@std@@V?$allocator@D@2@@std@@U?$pair@$$CBV?$basic_string@DU?$char_traits@D@std@@V?$allocator@D@2@@std@@E@2@U_Kfn@?$map@V?$basic_string@DU?$char_traits@D@std@@V?$allocator@D@2@@std@@EU?$less@V?$basic_string@DU?$char_traits@D@std@@V?$allocator@D@2@@std@@@2@V?$allocator@E@2@@2@U?$less@V?$basic_string@DU?$char_traits@D@std@@V?$allocator@D@2@@std@@@2@V?$allocator@E@2@@std@@QBE_NABV012@@Z 004556b0 f i UiChatCentre.obj
 0001:000546d0       ?begin@?$list@V?$basic_string@DU?$char_traits@D@std@@V?$allocator@D@2@@std@@V?$allocator@V?$basic_string@DU?$char_traits@D@std@@V?$allocator@D@2@@std@@@2@@std@@QAE?AViterator@12@XZ 004556d0 f i UiChatCentre.obj
 0001:00054710       ?end@?$list@V?$basic_string@DU?$char_traits@D@std@@V?$allocator@D@2@@std@@V?$allocator@V?$basic_string@DU?$char_traits@D@std@@V?$allocator@D@2@@std@@@2@@std@@QAE?AViterator@12@XZ 00455710 f i UiChatCentre.obj
 0001:00054740       ?size@?$list@V?$basic_string@DU?$char_traits@D@std@@V?$allocator@D@2@@std@@V?$allocator@V?$basic_string@DU?$char_traits@D@std@@V?$allocator@D@2@@std@@@2@@std@@QBEIXZ 00455740 f i UiChatCentre.obj
 0001:00054760       ?insert@?$list@V?$basic_string@DU?$char_traits@D@std@@V?$allocator@D@2@@std@@V?$allocator@V?$basic_string@DU?$char_traits@D@std@@V?$allocator@D@2@@std@@@2@@std@@QAE?AViterator@12@V312@ABV?$basic_string@DU?$char_traits@D@std@@V?$allocator@D@2@@2@@Z 00455760 f i UiChatCentre.obj
 0001:00054820       ?erase@?$list@V?$basic_string@DU?$char_traits@D@std@@V?$allocator@D@2@@std@@V?$allocator@V?$basic_string@DU?$char_traits@D@std@@V?$allocator@D@2@@std@@@2@@std@@QAE?AViterator@12@V312@0@Z 00455820 f i UiChatCentre.obj
 0001:00054870       ?_Buynode@?$list@V?$basic_string@DU?$char_traits@D@std@@V?$allocator@D@2@@std@@V?$allocator@V?$basic_string@DU?$char_traits@D@std@@V?$allocator@D@2@@std@@@2@@std@@IAEPAU_Node@12@PAU312@0@Z 00455870 f i UiChatCentre.obj
 0001:000548e0       ?_Freenode@?$list@V?$basic_string@DU?$char_traits@D@std@@V?$allocator@D@2@@std@@V?$allocator@V?$basic_string@DU?$char_traits@D@std@@V?$allocator@D@2@@std@@@2@@std@@IAEXPAU_Node@12@@Z 004558e0 f i UiChatCentre.obj
 0001:00054900       ?_Next@_Acc@?$list@V?$basic_string@DU?$char_traits@D@std@@V?$allocator@D@2@@std@@V?$allocator@V?$basic_string@DU?$char_traits@D@std@@V?$allocator@D@2@@std@@@2@@std@@SAAAPAU_Node@23@PAU423@@Z 00455900 f i UiChatCentre.obj
 0001:00054910       ?_Value@_Acc@?$list@V?$basic_string@DU?$char_traits@D@std@@V?$allocator@D@2@@std@@V?$allocator@V?$basic_string@DU?$char_traits@D@std@@V?$allocator@D@2@@std@@@2@@std@@SAAAV?$basic_string@DU?$char_traits@D@std@@V?$allocator@D@2@@3@PAU_Node@23@@Z 00455910 f i UiChatCentre.obj
 0001:00054920       ??0const_iterator@?$list@V?$basic_string@DU?$char_traits@D@std@@V?$allocator@D@2@@std@@V?$allocator@V?$basic_string@DU?$char_traits@D@std@@V?$allocator@D@2@@std@@@2@@std@@QAE@PAU_Node@12@@Z 00455920 f i UiChatCentre.obj
 0001:00054940       ??Econst_iterator@?$list@V?$basic_string@DU?$char_traits@D@std@@V?$allocator@D@2@@std@@V?$allocator@V?$basic_string@DU?$char_traits@D@std@@V?$allocator@D@2@@std@@@2@@std@@QAEAAV012@XZ 00455940 f i UiChatCentre.obj
 0001:00054970       ??8const_iterator@?$list@V?$basic_string@DU?$char_traits@D@std@@V?$allocator@D@2@@std@@V?$allocator@V?$basic_string@DU?$char_traits@D@std@@V?$allocator@D@2@@std@@@2@@std@@QBE_NABV012@@Z 00455970 f i UiChatCentre.obj
 0001:00054990       ??R?$less@V?$basic_string@DU?$char_traits@D@std@@V?$allocator@D@2@@std@@@std@@QBE_NABV?$basic_string@DU?$char_traits@D@std@@V?$allocator@D@2@@1@0@Z 00455990 f i UiChatCentre.obj
 0001:000549b0       ?_Charalloc@?$allocator@V?$basic_string@DU?$char_traits@D@std@@V?$allocator@D@2@@std@@@std@@QAEPADI@Z 004559b0 f i UiChatCentre.obj
 0001:000549d0       ?deallocate@?$allocator@V?$basic_string@DU?$char_traits@D@std@@V?$allocator@D@2@@std@@@std@@QAEXPAXI@Z 004559d0 f i UiChatCentre.obj
 0001:000549f0       ?construct@?$allocator@V?$basic_string@DU?$char_traits@D@std@@V?$allocator@D@2@@std@@@std@@QAEXPAV?$basic_string@DU?$char_traits@D@std@@V?$allocator@D@2@@2@ABV32@@Z 004559f0 f i UiChatCentre.obj
 0001:00054a10       ?_Color@?$_Tree@V?$basic_string@DU?$char_traits@D@std@@V?$allocator@D@2@@std@@U?$pair@$$CBV?$basic_string@DU?$char_traits@D@std@@V?$allocator@D@2@@std@@V12@@2@U_Kfn@?$map@V?$basic_string@DU?$char_traits@D@std@@V?$allocator@D@2@@std@@V12@U?$less@V?$basic_string@DU?$char_traits@D@std@@V?$allocator@D@2@@std@@@2@V?$allocator@V?$basic_string@DU?$char_traits@D@std@@V?$allocator@D@2@@std@@@2@@2@U?$less@V?$basic_string@DU?$char_traits@D@std@@V?$allocator@D@2@@std@@@2@V?$allocator@V?$basic_string@DU?$char_traits@D@std@@V?$allocator@D@2@@std@@@2@@std@@KAAAW4_Redbl@12@PAU_Node@12@@Z 00455a10 f i UiChatCentre.obj
 0001:00054a20       ?_Key@?$_Tree@V?$basic_string@DU?$char_traits@D@std@@V?$allocator@D@2@@std@@U?$pair@$$CBV?$basic_string@DU?$char_traits@D@std@@V?$allocator@D@2@@std@@V12@@2@U_Kfn@?$map@V?$basic_string@DU?$char_traits@D@std@@V?$allocator@D@2@@std@@V12@U?$less@V?$basic_string@DU?$char_traits@D@std@@V?$allocator@D@2@@std@@@2@V?$allocator@V?$basic_string@DU?$char_traits@D@std@@V?$allocator@D@2@@std@@@2@@2@U?$less@V?$basic_string@DU?$char_traits@D@std@@V?$allocator@D@2@@std@@@2@V?$allocator@V?$basic_string@DU?$char_traits@D@std@@V?$allocator@D@2@@std@@@2@@std@@KAABV?$basic_string@DU?$char_traits@D@std@@V?$allocator@D@2@@2@PAU_Node@12@@Z 00455a20 f i UiChatCentre.obj
 0001:00054a40       ?_Left@?$_Tree@V?$basic_string@DU?$char_traits@D@std@@V?$allocator@D@2@@std@@U?$pair@$$CBV?$basic_string@DU?$char_traits@D@std@@V?$allocator@D@2@@std@@V12@@2@U_Kfn@?$map@V?$basic_string@DU?$char_traits@D@std@@V?$allocator@D@2@@std@@V12@U?$less@V?$basic_string@DU?$char_traits@D@std@@V?$allocator@D@2@@std@@@2@V?$allocator@V?$basic_string@DU?$char_traits@D@std@@V?$allocator@D@2@@std@@@2@@2@U?$less@V?$basic_string@DU?$char_traits@D@std@@V?$allocator@D@2@@std@@@2@V?$allocator@V?$basic_string@DU?$char_traits@D@std@@V?$allocator@D@2@@std@@@2@@std@@KAAAPAU_Node@12@PAU312@@Z 00455a40 f i UiChatCentre.obj
 0001:00054a50       ?_Parent@?$_Tree@V?$basic_string@DU?$char_traits@D@std@@V?$allocator@D@2@@std@@U?$pair@$$CBV?$basic_string@DU?$char_traits@D@std@@V?$allocator@D@2@@std@@V12@@2@U_Kfn@?$map@V?$basic_string@DU?$char_traits@D@std@@V?$allocator@D@2@@std@@V12@U?$less@V?$basic_string@DU?$char_traits@D@std@@V?$allocator@D@2@@std@@@2@V?$allocator@V?$basic_string@DU?$char_traits@D@std@@V?$allocator@D@2@@std@@@2@@2@U?$less@V?$basic_string@DU?$char_traits@D@std@@V?$allocator@D@2@@std@@@2@V?$allocator@V?$basic_string@DU?$char_traits@D@std@@V?$allocator@D@2@@std@@@2@@std@@KAAAPAU_Node@12@PAU312@@Z 00455a50 f i UiChatCentre.obj
 0001:00054a60       ?_Right@?$_Tree@V?$basic_string@DU?$char_traits@D@std@@V?$allocator@D@2@@std@@U?$pair@$$CBV?$basic_string@DU?$char_traits@D@std@@V?$allocator@D@2@@std@@V12@@2@U_Kfn@?$map@V?$basic_string@DU?$char_traits@D@std@@V?$allocator@D@2@@std@@V12@U?$less@V?$basic_string@DU?$char_traits@D@std@@V?$allocator@D@2@@std@@@2@V?$allocator@V?$basic_string@DU?$char_traits@D@std@@V?$allocator@D@2@@std@@@2@@2@U?$less@V?$basic_string@DU?$char_traits@D@std@@V?$allocator@D@2@@std@@@2@V?$allocator@V?$basic_string@DU?$char_traits@D@std@@V?$allocator@D@2@@std@@@2@@std@@KAAAPAU_Node@12@PAU312@@Z 00455a60 f i UiChatCentre.obj
 0001:00054a70       ?_Value@?$_Tree@V?$basic_string@DU?$char_traits@D@std@@V?$allocator@D@2@@std@@U?$pair@$$CBV?$basic_string@DU?$char_traits@D@std@@V?$allocator@D@2@@std@@V12@@2@U_Kfn@?$map@V?$basic_string@DU?$char_traits@D@std@@V?$allocator@D@2@@std@@V12@U?$less@V?$basic_string@DU?$char_traits@D@std@@V?$allocator@D@2@@std@@@2@V?$allocator@V?$basic_string@DU?$char_traits@D@std@@V?$allocator@D@2@@std@@@2@@2@U?$less@V?$basic_string@DU?$char_traits@D@std@@V?$allocator@D@2@@std@@@2@V?$allocator@V?$basic_string@DU?$char_traits@D@std@@V?$allocator@D@2@@std@@@2@@std@@KAAAU?$pair@$$CBV?$basic_string@DU?$char_traits@D@std@@V?$allocator@D@2@@std@@V12@@2@PAU_Node@12@@Z 00455a70 f i UiChatCentre.obj
 0001:00054a80       ?size@?$_Tree@V?$basic_string@DU?$char_traits@D@std@@V?$allocator@D@2@@std@@U?$pair@$$CBV?$basic_string@DU?$char_traits@D@std@@V?$allocator@D@2@@std@@V12@@2@U_Kfn@?$map@V?$basic_string@DU?$char_traits@D@std@@V?$allocator@D@2@@std@@V12@U?$less@V?$basic_string@DU?$char_traits@D@std@@V?$allocator@D@2@@std@@@2@V?$allocator@V?$basic_string@DU?$char_traits@D@std@@V?$allocator@D@2@@std@@@2@@2@U?$less@V?$basic_string@DU?$char_traits@D@std@@V?$allocator@D@2@@std@@@2@V?$allocator@V?$basic_string@DU?$char_traits@D@std@@V?$allocator@D@2@@std@@@2@@std@@QBEIXZ 00455a80 f i UiChatCentre.obj
 0001:00054aa0       ?insert@?$_Tree@V?$basic_string@DU?$char_traits@D@std@@V?$allocator@D@2@@std@@U?$pair@$$CBV?$basic_string@DU?$char_traits@D@std@@V?$allocator@D@2@@std@@V12@@2@U_Kfn@?$map@V?$basic_string@DU?$char_traits@D@std@@V?$allocator@D@2@@std@@V12@U?$less@V?$basic_string@DU?$char_traits@D@std@@V?$allocator@D@2@@std@@@2@V?$allocator@V?$basic_string@DU?$char_traits@D@std@@V?$allocator@D@2@@std@@@2@@2@U?$less@V?$basic_string@DU?$char_traits@D@std@@V?$allocator@D@2@@std@@@2@V?$allocator@V?$basic_string@DU?$char_traits@D@std@@V?$allocator@D@2@@std@@@2@@std@@QAE?AU?$pair@Viterator@?$_Tree@V?$basic_string@DU?$char_traits@D@std@@V?$allocator@D@2@@std@@U?$pair@$$CBV?$basic_string@DU?$char_traits@D@std@@V?$allocator@D@2@@std@@V12@@2@U_Kfn@?$map@V?$basic_string@DU?$char_traits@D@std@@V?$allocator@D@2@@std@@V12@U?$less@V?$basic_string@DU?$char_traits@D@std@@V?$allocator@D@2@@std@@@2@V?$allocator@V?$basic_string@DU?$char_traits@D@std@@V?$allocator@D@2@@std@@@2@@2@U?$less@V?$basic_string@DU?$char_traits@D@std@@V?$allocator@D@2@@std@@@2@V?$allocator@V?$basic_string@DU?$char_traits@D@std@@V?$allocator@D@2@@std@@@2@@std@@_N@2@ABU?$pair@$$CBV?$basic_string@DU?$char_traits@D@std@@V?$allocator@D@2@@std@@V12@@2@@Z 00455aa0 f i UiChatCentre.obj
 0001:00054ce0       ?lower_bound@?$_Tree@V?$basic_string@DU?$char_traits@D@std@@V?$allocator@D@2@@std@@U?$pair@$$CBV?$basic_string@DU?$char_traits@D@std@@V?$allocator@D@2@@std@@V12@@2@U_Kfn@?$map@V?$basic_string@DU?$char_traits@D@std@@V?$allocator@D@2@@std@@V12@U?$less@V?$basic_string@DU?$char_traits@D@std@@V?$allocator@D@2@@std@@@2@V?$allocator@V?$basic_string@DU?$char_traits@D@std@@V?$allocator@D@2@@std@@@2@@2@U?$less@V?$basic_string@DU?$char_traits@D@std@@V?$allocator@D@2@@std@@@2@V?$allocator@V?$basic_string@DU?$char_traits@D@std@@V?$allocator@D@2@@std@@@2@@std@@QAE?AViterator@12@ABV?$basic_string@DU?$char_traits@D@std@@V?$allocator@D@2@@2@@Z 00455ce0 f i UiChatCentre.obj
 0001:00054d10       ?_Copy@?$_Tree@V?$basic_string@DU?$char_traits@D@std@@V?$allocator@D@2@@std@@U?$pair@$$CBV?$basic_string@DU?$char_traits@D@std@@V?$allocator@D@2@@std@@V12@@2@U_Kfn@?$map@V?$basic_string@DU?$char_traits@D@std@@V?$allocator@D@2@@std@@V12@U?$less@V?$basic_string@DU?$char_traits@D@std@@V?$allocator@D@2@@std@@@2@V?$allocator@V?$basic_string@DU?$char_traits@D@std@@V?$allocator@D@2@@std@@@2@@2@U?$less@V?$basic_string@DU?$char_traits@D@std@@V?$allocator@D@2@@std@@@2@V?$allocator@V?$basic_string@DU?$char_traits@D@std@@V?$allocator@D@2@@std@@@2@@std@@IAEXABV12@@Z 00455d10 f i UiChatCentre.obj
 0001:00054e10       ?_Erase@?$_Tree@V?$basic_string@DU?$char_traits@D@std@@V?$allocator@D@2@@std@@U?$pair@$$CBV?$basic_string@DU?$char_traits@D@std@@V?$allocator@D@2@@std@@V12@@2@U_Kfn@?$map@V?$basic_string@DU?$char_traits@D@std@@V?$allocator@D@2@@std@@V12@U?$less@V?$basic_string@DU?$char_traits@D@std@@V?$allocator@D@2@@std@@@2@V?$allocator@V?$basic_string@DU?$char_traits@D@std@@V?$allocator@D@2@@std@@@2@@2@U?$less@V?$basic_string@DU?$char_traits@D@std@@V?$allocator@D@2@@std@@@2@V?$allocator@V?$basic_string@DU?$char_traits@D@std@@V?$allocator@D@2@@std@@@2@@std@@IAEXPAU_Node@12@@Z 00455e10 f i UiChatCentre.obj
 0001:00054ed0       ?_Init@?$_Tree@V?$basic_string@DU?$char_traits@D@std@@V?$allocator@D@2@@std@@U?$pair@$$CBV?$basic_string@DU?$char_traits@D@std@@V?$allocator@D@2@@std@@V12@@2@U_Kfn@?$map@V?$basic_string@DU?$char_traits@D@std@@V?$allocator@D@2@@std@@V12@U?$less@V?$basic_string@DU?$char_traits@D@std@@V?$allocator@D@2@@std@@@2@V?$allocator@V?$basic_string@DU?$char_traits@D@std@@V?$allocator@D@2@@std@@@2@@2@U?$less@V?$basic_string@DU?$char_traits@D@std@@V?$allocator@D@2@@std@@@2@V?$allocator@V?$basic_string@DU?$char_traits@D@std@@V?$allocator@D@2@@std@@@2@@std@@IAEXXZ 00455ed0 f i UiChatCentre.obj
 0001:00054fb0       ?_Lmost@?$_Tree@V?$basic_string@DU?$char_traits@D@std@@V?$allocator@D@2@@std@@U?$pair@$$CBV?$basic_string@DU?$char_traits@D@std@@V?$allocator@D@2@@std@@V12@@2@U_Kfn@?$map@V?$basic_string@DU?$char_traits@D@std@@V?$allocator@D@2@@std@@V12@U?$less@V?$basic_string@DU?$char_traits@D@std@@V?$allocator@D@2@@std@@@2@V?$allocator@V?$basic_string@DU?$char_traits@D@std@@V?$allocator@D@2@@std@@@2@@2@U?$less@V?$basic_string@DU?$char_traits@D@std@@V?$allocator@D@2@@std@@@2@V?$allocator@V?$basic_string@DU?$char_traits@D@std@@V?$allocator@D@2@@std@@@2@@std@@IAEAAPAU_Node@12@XZ 00455fb0 f i UiChatCentre.obj
 0001:00054fd0       ?_Lrotate@?$_Tree@V?$basic_string@DU?$char_traits@D@std@@V?$allocator@D@2@@std@@U?$pair@$$CBV?$basic_string@DU?$char_traits@D@std@@V?$allocator@D@2@@std@@V12@@2@U_Kfn@?$map@V?$basic_string@DU?$char_traits@D@std@@V?$allocator@D@2@@std@@V12@U?$less@V?$basic_string@DU?$char_traits@D@std@@V?$allocator@D@2@@std@@@2@V?$allocator@V?$basic_string@DU?$char_traits@D@std@@V?$allocator@D@2@@std@@@2@@2@U?$less@V?$basic_string@DU?$char_traits@D@std@@V?$allocator@D@2@@std@@@2@V?$allocator@V?$basic_string@DU?$char_traits@D@std@@V?$allocator@D@2@@std@@@2@@std@@IAEXPAU_Node@12@@Z 00455fd0 f i UiChatCentre.obj
 0001:00055140       ?_Max@?$_Tree@V?$basic_string@DU?$char_traits@D@std@@V?$allocator@D@2@@std@@U?$pair@$$CBV?$basic_string@DU?$char_traits@D@std@@V?$allocator@D@2@@std@@V12@@2@U_Kfn@?$map@V?$basic_string@DU?$char_traits@D@std@@V?$allocator@D@2@@std@@V12@U?$less@V?$basic_string@DU?$char_traits@D@std@@V?$allocator@D@2@@std@@@2@V?$allocator@V?$basic_string@DU?$char_traits@D@std@@V?$allocator@D@2@@std@@@2@@2@U?$less@V?$basic_string@DU?$char_traits@D@std@@V?$allocator@D@2@@std@@@2@V?$allocator@V?$basic_string@DU?$char_traits@D@std@@V?$allocator@D@2@@std@@@2@@std@@KAPAU_Node@12@PAU312@@Z 00456140 f i UiChatCentre.obj
 0001:000551c0       ?_Min@?$_Tree@V?$basic_string@DU?$char_traits@D@std@@V?$allocator@D@2@@std@@U?$pair@$$CBV?$basic_string@DU?$char_traits@D@std@@V?$allocator@D@2@@std@@V12@@2@U_Kfn@?$map@V?$basic_string@DU?$char_traits@D@std@@V?$allocator@D@2@@std@@V12@U?$less@V?$basic_string@DU?$char_traits@D@std@@V?$allocator@D@2@@std@@@2@V?$allocator@V?$basic_string@DU?$char_traits@D@std@@V?$allocator@D@2@@std@@@2@@2@U?$less@V?$basic_string@DU?$char_traits@D@std@@V?$allocator@D@2@@std@@@2@V?$allocator@V?$basic_string@DU?$char_traits@D@std@@V?$allocator@D@2@@std@@@2@@std@@KAPAU_Node@12@PAU312@@Z 004561c0 f i UiChatCentre.obj
 0001:00055240       ?_Rmost@?$_Tree@V?$basic_string@DU?$char_traits@D@std@@V?$allocator@D@2@@std@@U?$pair@$$CBV?$basic_string@DU?$char_traits@D@std@@V?$allocator@D@2@@std@@V12@@2@U_Kfn@?$map@V?$basic_string@DU?$char_traits@D@std@@V?$allocator@D@2@@std@@V12@U?$less@V?$basic_string@DU?$char_traits@D@std@@V?$allocator@D@2@@std@@@2@V?$allocator@V?$basic_string@DU?$char_traits@D@std@@V?$allocator@D@2@@std@@@2@@2@U?$less@V?$basic_string@DU?$char_traits@D@std@@V?$allocator@D@2@@std@@@2@V?$allocator@V?$basic_string@DU?$char_traits@D@std@@V?$allocator@D@2@@std@@@2@@std@@IAEAAPAU_Node@12@XZ 00456240 f i UiChatCentre.obj
 0001:00055260       ?_Root@?$_Tree@V?$basic_string@DU?$char_traits@D@std@@V?$allocator@D@2@@std@@U?$pair@$$CBV?$basic_string@DU?$char_traits@D@std@@V?$allocator@D@2@@std@@V12@@2@U_Kfn@?$map@V?$basic_string@DU?$char_traits@D@std@@V?$allocator@D@2@@std@@V12@U?$less@V?$basic_string@DU?$char_traits@D@std@@V?$allocator@D@2@@std@@@2@V?$allocator@V?$basic_string@DU?$char_traits@D@std@@V?$allocator@D@2@@std@@@2@@2@U?$less@V?$basic_string@DU?$char_traits@D@std@@V?$allocator@D@2@@std@@@2@V?$allocator@V?$basic_string@DU?$char_traits@D@std@@V?$allocator@D@2@@std@@@2@@std@@IAEAAPAU_Node@12@XZ 00456260 f i UiChatCentre.obj
 0001:00055280       ?_Rrotate@?$_Tree@V?$basic_string@DU?$char_traits@D@std@@V?$allocator@D@2@@std@@U?$pair@$$CBV?$basic_string@DU?$char_traits@D@std@@V?$allocator@D@2@@std@@V12@@2@U_Kfn@?$map@V?$basic_string@DU?$char_traits@D@std@@V?$allocator@D@2@@std@@V12@U?$less@V?$basic_string@DU?$char_traits@D@std@@V?$allocator@D@2@@std@@@2@V?$allocator@V?$basic_string@DU?$char_traits@D@std@@V?$allocator@D@2@@std@@@2@@2@U?$less@V?$basic_string@DU?$char_traits@D@std@@V?$allocator@D@2@@std@@@2@V?$allocator@V?$basic_string@DU?$char_traits@D@std@@V?$allocator@D@2@@std@@@2@@std@@IAEXPAU_Node@12@@Z 00456280 f i UiChatCentre.obj
 0001:000553f0       ?_Destval@?$_Tree@V?$basic_string@DU?$char_traits@D@std@@V?$allocator@D@2@@std@@U?$pair@$$CBV?$basic_string@DU?$char_traits@D@std@@V?$allocator@D@2@@std@@V12@@2@U_Kfn@?$map@V?$basic_string@DU?$char_traits@D@std@@V?$allocator@D@2@@std@@V12@U?$less@V?$basic_string@DU?$char_traits@D@std@@V?$allocator@D@2@@std@@@2@V?$allocator@V?$basic_string@DU?$char_traits@D@std@@V?$allocator@D@2@@std@@@2@@2@U?$less@V?$basic_string@DU?$char_traits@D@std@@V?$allocator@D@2@@std@@@2@V?$allocator@V?$basic_string@DU?$char_traits@D@std@@V?$allocator@D@2@@std@@@2@@std@@IAEXPAU?$pair@$$CBV?$basic_string@DU?$char_traits@D@std@@V?$allocator@D@2@@std@@V12@@2@@Z 004563f0 f i UiChatCentre.obj
 0001:00055410       ?_Inc@const_iterator@?$_Tree@V?$basic_string@DU?$char_traits@D@std@@V?$allocator@D@2@@std@@U?$pair@$$CBV?$basic_string@DU?$char_traits@D@std@@V?$allocator@D@2@@std@@V12@@2@U_Kfn@?$map@V?$basic_string@DU?$char_traits@D@std@@V?$allocator@D@2@@std@@V12@U?$less@V?$basic_string@DU?$char_traits@D@std@@V?$allocator@D@2@@std@@@2@V?$allocator@V?$basic_string@DU?$char_traits@D@std@@V?$allocator@D@2@@std@@@2@@2@U?$less@V?$basic_string@DU?$char_traits@D@std@@V?$allocator@D@2@@std@@@2@V?$allocator@V?$basic_string@DU?$char_traits@D@std@@V?$allocator@D@2@@std@@@2@@std@@QAEXXZ 00456410 f i UiChatCentre.obj
 0001:000554f0       ?_Mynode@const_iterator@?$_Tree@V?$basic_string@DU?$char_traits@D@std@@V?$allocator@D@2@@std@@U?$pair@$$CBV?$basic_string@DU?$char_traits@D@std@@V?$allocator@D@2@@std@@V12@@2@U_Kfn@?$map@V?$basic_string@DU?$char_traits@D@std@@V?$allocator@D@2@@std@@V12@U?$less@V?$basic_string@DU?$char_traits@D@std@@V?$allocator@D@2@@std@@@2@V?$allocator@V?$basic_string@DU?$char_traits@D@std@@V?$allocator@D@2@@std@@@2@@2@U?$less@V?$basic_string@DU?$char_traits@D@std@@V?$allocator@D@2@@std@@@2@V?$allocator@V?$basic_string@DU?$char_traits@D@std@@V?$allocator@D@2@@std@@@2@@std@@QBEPAU_Node@23@XZ 004564f0 f i UiChatCentre.obj
 0001:00055500       ??0iterator@?$_Tree@V?$basic_string@DU?$char_traits@D@std@@V?$allocator@D@2@@std@@U?$pair@$$CBV?$basic_string@DU?$char_traits@D@std@@V?$allocator@D@2@@std@@V12@@2@U_Kfn@?$map@V?$basic_string@DU?$char_traits@D@std@@V?$allocator@D@2@@std@@V12@U?$less@V?$basic_string@DU?$char_traits@D@std@@V?$allocator@D@2@@std@@@2@V?$allocator@V?$basic_string@DU?$char_traits@D@std@@V?$allocator@D@2@@std@@@2@@2@U?$less@V?$basic_string@DU?$char_traits@D@std@@V?$allocator@D@2@@std@@@2@V?$allocator@V?$basic_string@DU?$char_traits@D@std@@V?$allocator@D@2@@std@@@2@@std@@QAE@PAU_Node@12@@Z 00456500 f i UiChatCentre.obj
 0001:00055520       ?deallocate@?$allocator@E@std@@QAEXPAXI@Z 00456520 f i UiChatCentre.obj
 0001:00055540       ?_Key@?$_Tree@V?$basic_string@DU?$char_traits@D@std@@V?$allocator@D@2@@std@@U?$pair@$$CBV?$basic_string@DU?$char_traits@D@std@@V?$allocator@D@2@@std@@E@2@U_Kfn@?$map@V?$basic_string@DU?$char_traits@D@std@@V?$allocator@D@2@@std@@EU?$less@V?$basic_string@DU?$char_traits@D@std@@V?$allocator@D@2@@std@@@2@V?$allocator@E@2@@2@U?$less@V?$basic_string@DU?$char_traits@D@std@@V?$allocator@D@2@@std@@@2@V?$allocator@E@2@@std@@KAABV?$basic_string@DU?$char_traits@D@std@@V?$allocator@D@2@@2@PAU_Node@12@@Z 00456540 f i UiChatCentre.obj
 0001:00055560       ?_Value@?$_Tree@V?$basic_string@DU?$char_traits@D@std@@V?$allocator@D@2@@std@@U?$pair@$$CBV?$basic_string@DU?$char_traits@D@std@@V?$allocator@D@2@@std@@E@2@U_Kfn@?$map@V?$basic_string@DU?$char_traits@D@std@@V?$allocator@D@2@@std@@EU?$less@V?$basic_string@DU?$char_traits@D@std@@V?$allocator@D@2@@std@@@2@V?$allocator@E@2@@2@U?$less@V?$basic_string@DU?$char_traits@D@std@@V?$allocator@D@2@@std@@@2@V?$allocator@E@2@@std@@KAAAU?$pair@$$CBV?$basic_string@DU?$char_traits@D@std@@V?$allocator@D@2@@std@@E@2@PAU_Node@12@@Z 00456560 f i UiChatCentre.obj
 0001:00055570       ?size@?$_Tree@V?$basic_string@DU?$char_traits@D@std@@V?$allocator@D@2@@std@@U?$pair@$$CBV?$basic_string@DU?$char_traits@D@std@@V?$allocator@D@2@@std@@E@2@U_Kfn@?$map@V?$basic_string@DU?$char_traits@D@std@@V?$allocator@D@2@@std@@EU?$less@V?$basic_string@DU?$char_traits@D@std@@V?$allocator@D@2@@std@@@2@V?$allocator@E@2@@2@U?$less@V?$basic_string@DU?$char_traits@D@std@@V?$allocator@D@2@@std@@@2@V?$allocator@E@2@@std@@QBEIXZ 00456570 f i UiChatCentre.obj
 0001:00055590       ?insert@?$_Tree@V?$basic_string@DU?$char_traits@D@std@@V?$allocator@D@2@@std@@U?$pair@$$CBV?$basic_string@DU?$char_traits@D@std@@V?$allocator@D@2@@std@@E@2@U_Kfn@?$map@V?$basic_string@DU?$char_traits@D@std@@V?$allocator@D@2@@std@@EU?$less@V?$basic_string@DU?$char_traits@D@std@@V?$allocator@D@2@@std@@@2@V?$allocator@E@2@@2@U?$less@V?$basic_string@DU?$char_traits@D@std@@V?$allocator@D@2@@std@@@2@V?$allocator@E@2@@std@@QAE?AU?$pair@Viterator@?$_Tree@V?$basic_string@DU?$char_traits@D@std@@V?$allocator@D@2@@std@@U?$pair@$$CBV?$basic_string@DU?$char_traits@D@std@@V?$allocator@D@2@@std@@E@2@U_Kfn@?$map@V?$basic_string@DU?$char_traits@D@std@@V?$allocator@D@2@@std@@EU?$less@V?$basic_string@DU?$char_traits@D@std@@V?$allocator@D@2@@std@@@2@V?$allocator@E@2@@2@U?$less@V?$basic_string@DU?$char_traits@D@std@@V?$allocator@D@2@@std@@@2@V?$allocator@E@2@@std@@_N@2@ABU?$pair@$$CBV?$basic_string@DU?$char_traits@D@std@@V?$allocator@D@2@@std@@E@2@@Z 00456590 f i UiChatCentre.obj
 0001:000557d0       ?erase@?$_Tree@V?$basic_string@DU?$char_traits@D@std@@V?$allocator@D@2@@std@@U?$pair@$$CBV?$basic_string@DU?$char_traits@D@std@@V?$allocator@D@2@@std@@E@2@U_Kfn@?$map@V?$basic_string@DU?$char_traits@D@std@@V?$allocator@D@2@@std@@EU?$less@V?$basic_string@DU?$char_traits@D@std@@V?$allocator@D@2@@std@@@2@V?$allocator@E@2@@2@U?$less@V?$basic_string@DU?$char_traits@D@std@@V?$allocator@D@2@@std@@@2@V?$allocator@E@2@@std@@QAE?AViterator@12@V312@@Z 004567d0 f i UiChatCentre.obj
 0001:00056020       ?lower_bound@?$_Tree@V?$basic_string@DU?$char_traits@D@std@@V?$allocator@D@2@@std@@U?$pair@$$CBV?$basic_string@DU?$char_traits@D@std@@V?$allocator@D@2@@std@@E@2@U_Kfn@?$map@V?$basic_string@DU?$char_traits@D@std@@V?$allocator@D@2@@std@@EU?$less@V?$basic_string@DU?$char_traits@D@std@@V?$allocator@D@2@@std@@@2@V?$allocator@E@2@@2@U?$less@V?$basic_string@DU?$char_traits@D@std@@V?$allocator@D@2@@std@@@2@V?$allocator@E@2@@std@@QAE?AViterator@12@ABV?$basic_string@DU?$char_traits@D@std@@V?$allocator@D@2@@2@@Z 00457020 f i UiChatCentre.obj
 0001:00056050       ?_Copy@?$_Tree@V?$basic_string@DU?$char_traits@D@std@@V?$allocator@D@2@@std@@U?$pair@$$CBV?$basic_string@DU?$char_traits@D@std@@V?$allocator@D@2@@std@@E@2@U_Kfn@?$map@V?$basic_string@DU?$char_traits@D@std@@V?$allocator@D@2@@std@@EU?$less@V?$basic_string@DU?$char_traits@D@std@@V?$allocator@D@2@@std@@@2@V?$allocator@E@2@@2@U?$less@V?$basic_string@DU?$char_traits@D@std@@V?$allocator@D@2@@std@@@2@V?$allocator@E@2@@std@@IAEXABV12@@Z 00457050 f i UiChatCentre.obj
 0001:00056150       ?_Erase@?$_Tree@V?$basic_string@DU?$char_traits@D@std@@V?$allocator@D@2@@std@@U?$pair@$$CBV?$basic_string@DU?$char_traits@D@std@@V?$allocator@D@2@@std@@E@2@U_Kfn@?$map@V?$basic_string@DU?$char_traits@D@std@@V?$allocator@D@2@@std@@EU?$less@V?$basic_string@DU?$char_traits@D@std@@V?$allocator@D@2@@std@@@2@V?$allocator@E@2@@2@U?$less@V?$basic_string@DU?$char_traits@D@std@@V?$allocator@D@2@@std@@@2@V?$allocator@E@2@@std@@IAEXPAU_Node@12@@Z 00457150 f i UiChatCentre.obj
 0001:00056210       ?_Init@?$_Tree@V?$basic_string@DU?$char_traits@D@std@@V?$allocator@D@2@@std@@U?$pair@$$CBV?$basic_string@DU?$char_traits@D@std@@V?$allocator@D@2@@std@@E@2@U_Kfn@?$map@V?$basic_string@DU?$char_traits@D@std@@V?$allocator@D@2@@std@@EU?$less@V?$basic_string@DU?$char_traits@D@std@@V?$allocator@D@2@@std@@@2@V?$allocator@E@2@@2@U?$less@V?$basic_string@DU?$char_traits@D@std@@V?$allocator@D@2@@std@@@2@V?$allocator@E@2@@std@@IAEXXZ 00457210 f i UiChatCentre.obj
 0001:000562f0       ?_Lmost@?$_Tree@V?$basic_string@DU?$char_traits@D@std@@V?$allocator@D@2@@std@@U?$pair@$$CBV?$basic_string@DU?$char_traits@D@std@@V?$allocator@D@2@@std@@E@2@U_Kfn@?$map@V?$basic_string@DU?$char_traits@D@std@@V?$allocator@D@2@@std@@EU?$less@V?$basic_string@DU?$char_traits@D@std@@V?$allocator@D@2@@std@@@2@V?$allocator@E@2@@2@U?$less@V?$basic_string@DU?$char_traits@D@std@@V?$allocator@D@2@@std@@@2@V?$allocator@E@2@@std@@IAEAAPAU_Node@12@XZ 004572f0 f i UiChatCentre.obj
 0001:00056310       ?_Rmost@?$_Tree@V?$basic_string@DU?$char_traits@D@std@@V?$allocator@D@2@@std@@U?$pair@$$CBV?$basic_string@DU?$char_traits@D@std@@V?$allocator@D@2@@std@@E@2@U_Kfn@?$map@V?$basic_string@DU?$char_traits@D@std@@V?$allocator@D@2@@std@@EU?$less@V?$basic_string@DU?$char_traits@D@std@@V?$allocator@D@2@@std@@@2@V?$allocator@E@2@@2@U?$less@V?$basic_string@DU?$char_traits@D@std@@V?$allocator@D@2@@std@@@2@V?$allocator@E@2@@std@@IAEAAPAU_Node@12@XZ 00457310 f i UiChatCentre.obj
 0001:00056330       ?_Root@?$_Tree@V?$basic_string@DU?$char_traits@D@std@@V?$allocator@D@2@@std@@U?$pair@$$CBV?$basic_string@DU?$char_traits@D@std@@V?$allocator@D@2@@std@@E@2@U_Kfn@?$map@V?$basic_string@DU?$char_traits@D@std@@V?$allocator@D@2@@std@@EU?$less@V?$basic_string@DU?$char_traits@D@std@@V?$allocator@D@2@@std@@@2@V?$allocator@E@2@@2@U?$less@V?$basic_string@DU?$char_traits@D@std@@V?$allocator@D@2@@std@@@2@V?$allocator@E@2@@std@@IAEAAPAU_Node@12@XZ 00457330 f i UiChatCentre.obj
 0001:00056350       ?_Mynode@const_iterator@?$_Tree@V?$basic_string@DU?$char_traits@D@std@@V?$allocator@D@2@@std@@U?$pair@$$CBV?$basic_string@DU?$char_traits@D@std@@V?$allocator@D@2@@std@@E@2@U_Kfn@?$map@V?$basic_string@DU?$char_traits@D@std@@V?$allocator@D@2@@std@@EU?$less@V?$basic_string@DU?$char_traits@D@std@@V?$allocator@D@2@@std@@@2@V?$allocator@E@2@@2@U?$less@V?$basic_string@DU?$char_traits@D@std@@V?$allocator@D@2@@std@@@2@V?$allocator@E@2@@std@@QBEPAU_Node@23@XZ 00457350 f i UiChatCentre.obj
 0001:00056360       ??0iterator@?$_Tree@V?$basic_string@DU?$char_traits@D@std@@V?$allocator@D@2@@std@@U?$pair@$$CBV?$basic_string@DU?$char_traits@D@std@@V?$allocator@D@2@@std@@E@2@U_Kfn@?$map@V?$basic_string@DU?$char_traits@D@std@@V?$allocator@D@2@@std@@EU?$less@V?$basic_string@DU?$char_traits@D@std@@V?$allocator@D@2@@std@@@2@V?$allocator@E@2@@2@U?$less@V?$basic_string@DU?$char_traits@D@std@@V?$allocator@D@2@@std@@@2@V?$allocator@E@2@@std@@QAE@PAU_Node@12@@Z 00457360 f i UiChatCentre.obj
 0001:00056380       ??Eiterator@?$_Tree@V?$basic_string@DU?$char_traits@D@std@@V?$allocator@D@2@@std@@U?$pair@$$CBV?$basic_string@DU?$char_traits@D@std@@V?$allocator@D@2@@std@@E@2@U_Kfn@?$map@V?$basic_string@DU?$char_traits@D@std@@V?$allocator@D@2@@std@@EU?$less@V?$basic_string@DU?$char_traits@D@std@@V?$allocator@D@2@@std@@@2@V?$allocator@E@2@@2@U?$less@V?$basic_string@DU?$char_traits@D@std@@V?$allocator@D@2@@std@@@2@V?$allocator@E@2@@std@@QAE?AV012@H@Z 00457380 f i UiChatCentre.obj
 0001:000563b0       ?erase@?$list@V?$basic_string@DU?$char_traits@D@std@@V?$allocator@D@2@@std@@V?$allocator@V?$basic_string@DU?$char_traits@D@std@@V?$allocator@D@2@@std@@@2@@std@@QAE?AViterator@12@V312@@Z 004573b0 f i UiChatCentre.obj
 0001:00056470       ?_Prev@_Acc@?$list@V?$basic_string@DU?$char_traits@D@std@@V?$allocator@D@2@@std@@V?$allocator@V?$basic_string@DU?$char_traits@D@std@@V?$allocator@D@2@@std@@@2@@std@@SAAAPAU_Node@23@PAU423@@Z 00457470 f i UiChatCentre.obj
 0001:00056480       ?_Mynode@const_iterator@?$list@V?$basic_string@DU?$char_traits@D@std@@V?$allocator@D@2@@std@@V?$allocator@V?$basic_string@DU?$char_traits@D@std@@V?$allocator@D@2@@std@@@2@@std@@QBEPAU_Node@23@XZ 00457480 f i UiChatCentre.obj
 0001:00056490       ??0iterator@?$list@V?$basic_string@DU?$char_traits@D@std@@V?$allocator@D@2@@std@@V?$allocator@V?$basic_string@DU?$char_traits@D@std@@V?$allocator@D@2@@std@@@2@@std@@QAE@PAU_Node@12@@Z 00457490 f i UiChatCentre.obj
 0001:000564b0       ??Eiterator@?$list@V?$basic_string@DU?$char_traits@D@std@@V?$allocator@D@2@@std@@V?$allocator@V?$basic_string@DU?$char_traits@D@std@@V?$allocator@D@2@@std@@@2@@std@@QAE?AV012@H@Z 004574b0 f i UiChatCentre.obj
 0001:000564e0       ??9iterator@?$list@V?$basic_string@DU?$char_traits@D@std@@V?$allocator@D@2@@std@@V?$allocator@V?$basic_string@DU?$char_traits@D@std@@V?$allocator@D@2@@std@@@2@@std@@QBE_NABV012@@Z 004574e0 f i UiChatCentre.obj
 0001:00056510       ??0?$pair@Viterator@?$_Tree@V?$basic_string@DU?$char_traits@D@std@@V?$allocator@D@2@@std@@U?$pair@$$CBV?$basic_string@DU?$char_traits@D@std@@V?$allocator@D@2@@std@@V12@@2@U_Kfn@?$map@V?$basic_string@DU?$char_traits@D@std@@V?$allocator@D@2@@std@@V12@U?$less@V?$basic_string@DU?$char_traits@D@std@@V?$allocator@D@2@@std@@@2@V?$allocator@V?$basic_string@DU?$char_traits@D@std@@V?$allocator@D@2@@std@@@2@@2@U?$less@V?$basic_string@DU?$char_traits@D@std@@V?$allocator@D@2@@std@@@2@V?$allocator@V?$basic_string@DU?$char_traits@D@std@@V?$allocator@D@2@@std@@@2@@std@@_N@std@@QAE@ABViterator@?$_Tree@V?$basic_string@DU?$char_traits@D@std@@V?$allocator@D@2@@std@@U?$pair@$$CBV?$basic_string@DU?$char_traits@D@std@@V?$allocator@D@2@@std@@V12@@2@U_Kfn@?$map@V?$basic_string@DU?$char_traits@D@std@@V?$allocator@D@2@@std@@V12@U?$less@V?$basic_string@DU?$char_traits@D@std@@V?$allocator@D@2@@std@@@2@V?$allocator@V?$basic_string@DU?$char_traits@D@std@@V?$allocator@D@2@@std@@@2@@2@U?$less@V?$basic_string@DU?$char_traits@D@std@@V?$allocator@D@2@@std@@@2@V?$allocator@V?$basic_string@DU?$char_traits@D@std@@V?$allocator@D@2@@std@@@2@@1@AB_N@Z 00457510 f i UiChatCentre.obj
 0001:00056540       ??0?$pair@Viterator@?$_Tree@V?$basic_string@DU?$char_traits@D@std@@V?$allocator@D@2@@std@@U?$pair@$$CBV?$basic_string@DU?$char_traits@D@std@@V?$allocator@D@2@@std@@E@2@U_Kfn@?$map@V?$basic_string@DU?$char_traits@D@std@@V?$allocator@D@2@@std@@EU?$less@V?$basic_string@DU?$char_traits@D@std@@V?$allocator@D@2@@std@@@2@V?$allocator@E@2@@2@U?$less@V?$basic_string@DU?$char_traits@D@std@@V?$allocator@D@2@@std@@@2@V?$allocator@E@2@@std@@_N@std@@QAE@ABViterator@?$_Tree@V?$basic_string@DU?$char_traits@D@std@@V?$allocator@D@2@@std@@U?$pair@$$CBV?$basic_string@DU?$char_traits@D@std@@V?$allocator@D@2@@std@@E@2@U_Kfn@?$map@V?$basic_string@DU?$char_traits@D@std@@V?$allocator@D@2@@std@@EU?$less@V?$basic_string@DU?$char_traits@D@std@@V?$allocator@D@2@@std@@@2@V?$allocator@E@2@@2@U?$less@V?$basic_string@DU?$char_traits@D@std@@V?$allocator@D@2@@std@@@2@V?$allocator@E@2@@1@AB_N@Z 00457540 f i UiChatCentre.obj
 0001:00056570       ??R_Kfn@?$map@V?$basic_string@DU?$char_traits@D@std@@V?$allocator@D@2@@std@@V12@U?$less@V?$basic_string@DU?$char_traits@D@std@@V?$allocator@D@2@@std@@@2@V?$allocator@V?$basic_string@DU?$char_traits@D@std@@V?$allocator@D@2@@std@@@2@@std@@QBEABV?$basic_string@DU?$char_traits@D@std@@V?$allocator@D@2@@2@ABU?$pair@$$CBV?$basic_string@DU?$char_traits@D@std@@V?$allocator@D@2@@std@@V12@@2@@Z 00457570 f i UiChatCentre.obj
 0001:00056580       ?destroy@?$allocator@V?$basic_string@DU?$char_traits@D@std@@V?$allocator@D@2@@std@@@std@@QAEXPAV?$basic_string@DU?$char_traits@D@std@@V?$allocator@D@2@@2@@Z 00457580 f i UiChatCentre.obj
 0001:000565a0       ?_Copy@?$_Tree@V?$basic_string@DU?$char_traits@D@std@@V?$allocator@D@2@@std@@U?$pair@$$CBV?$basic_string@DU?$char_traits@D@std@@V?$allocator@D@2@@std@@V12@@2@U_Kfn@?$map@V?$basic_string@DU?$char_traits@D@std@@V?$allocator@D@2@@std@@V12@U?$less@V?$basic_string@DU?$char_traits@D@std@@V?$allocator@D@2@@std@@@2@V?$allocator@V?$basic_string@DU?$char_traits@D@std@@V?$allocator@D@2@@std@@@2@@2@U?$less@V?$basic_string@DU?$char_traits@D@std@@V?$allocator@D@2@@std@@@2@V?$allocator@V?$basic_string@DU?$char_traits@D@std@@V?$allocator@D@2@@std@@@2@@std@@IAEPAU_Node@12@PAU312@0@Z 004575a0 f i UiChatCentre.obj
 0001:000566d0       ?_Insert@?$_Tree@V?$basic_string@DU?$char_traits@D@std@@V?$allocator@D@2@@std@@U?$pair@$$CBV?$basic_string@DU?$char_traits@D@std@@V?$allocator@D@2@@std@@V12@@2@U_Kfn@?$map@V?$basic_string@DU?$char_traits@D@std@@V?$allocator@D@2@@std@@V12@U?$less@V?$basic_string@DU?$char_traits@D@std@@V?$allocator@D@2@@std@@@2@V?$allocator@V?$basic_string@DU?$char_traits@D@std@@V?$allocator@D@2@@std@@@2@@2@U?$less@V?$basic_string@DU?$char_traits@D@std@@V?$allocator@D@2@@std@@@2@V?$allocator@V?$basic_string@DU?$char_traits@D@std@@V?$allocator@D@2@@std@@@2@@std@@IAE?AViterator@12@PAU_Node@12@0ABU?$pair@$$CBV?$basic_string@DU?$char_traits@D@std@@V?$allocator@D@2@@std@@V12@@2@@Z 004576d0 f i UiChatCentre.obj
 0001:00056ba0       ?_Lbound@?$_Tree@V?$basic_string@DU?$char_traits@D@std@@V?$allocator@D@2@@std@@U?$pair@$$CBV?$basic_string@DU?$char_traits@D@std@@V?$allocator@D@2@@std@@V12@@2@U_Kfn@?$map@V?$basic_string@DU?$char_traits@D@std@@V?$allocator@D@2@@std@@V12@U?$less@V?$basic_string@DU?$char_traits@D@std@@V?$allocator@D@2@@std@@@2@V?$allocator@V?$basic_string@DU?$char_traits@D@std@@V?$allocator@D@2@@std@@@2@@2@U?$less@V?$basic_string@DU?$char_traits@D@std@@V?$allocator@D@2@@std@@@2@V?$allocator@V?$basic_string@DU?$char_traits@D@std@@V?$allocator@D@2@@std@@@2@@std@@IBEPAU_Node@12@ABV?$basic_string@DU?$char_traits@D@std@@V?$allocator@D@2@@2@@Z 00457ba0 f i UiChatCentre.obj
 0001:00056c70       ?_Root@?$_Tree@V?$basic_string@DU?$char_traits@D@std@@V?$allocator@D@2@@std@@U?$pair@$$CBV?$basic_string@DU?$char_traits@D@std@@V?$allocator@D@2@@std@@V12@@2@U_Kfn@?$map@V?$basic_string@DU?$char_traits@D@std@@V?$allocator@D@2@@std@@V12@U?$less@V?$basic_string@DU?$char_traits@D@std@@V?$allocator@D@2@@std@@@2@V?$allocator@V?$basic_string@DU?$char_traits@D@std@@V?$allocator@D@2@@std@@@2@@2@U?$less@V?$basic_string@DU?$char_traits@D@std@@V?$allocator@D@2@@std@@@2@V?$allocator@V?$basic_string@DU?$char_traits@D@std@@V?$allocator@D@2@@std@@@2@@std@@IBEAAPAU_Node@12@XZ 00457c70 f i UiChatCentre.obj
 0001:00056c90       ?_Buynode@?$_Tree@V?$basic_string@DU?$char_traits@D@std@@V?$allocator@D@2@@std@@U?$pair@$$CBV?$basic_string@DU?$char_traits@D@std@@V?$allocator@D@2@@std@@V12@@2@U_Kfn@?$map@V?$basic_string@DU?$char_traits@D@std@@V?$allocator@D@2@@std@@V12@U?$less@V?$basic_string@DU?$char_traits@D@std@@V?$allocator@D@2@@std@@@2@V?$allocator@V?$basic_string@DU?$char_traits@D@std@@V?$allocator@D@2@@std@@@2@@2@U?$less@V?$basic_string@DU?$char_traits@D@std@@V?$allocator@D@2@@std@@@2@V?$allocator@V?$basic_string@DU?$char_traits@D@std@@V?$allocator@D@2@@std@@@2@@std@@IAEPAU_Node@12@PAU312@W4_Redbl@12@@Z 00457c90 f i UiChatCentre.obj
 0001:00056ce0       ??0const_iterator@?$_Tree@V?$basic_string@DU?$char_traits@D@std@@V?$allocator@D@2@@std@@U?$pair@$$CBV?$basic_string@DU?$char_traits@D@std@@V?$allocator@D@2@@std@@V12@@2@U_Kfn@?$map@V?$basic_string@DU?$char_traits@D@std@@V?$allocator@D@2@@std@@V12@U?$less@V?$basic_string@DU?$char_traits@D@std@@V?$allocator@D@2@@std@@@2@V?$allocator@V?$basic_string@DU?$char_traits@D@std@@V?$allocator@D@2@@std@@@2@@2@U?$less@V?$basic_string@DU?$char_traits@D@std@@V?$allocator@D@2@@std@@@2@V?$allocator@V?$basic_string@DU?$char_traits@D@std@@V?$allocator@D@2@@std@@@2@@std@@QAE@PAU_Node@12@@Z 00457ce0 f i UiChatCentre.obj
 0001:00056d00       ??Fiterator@?$_Tree@V?$basic_string@DU?$char_traits@D@std@@V?$allocator@D@2@@std@@U?$pair@$$CBV?$basic_string@DU?$char_traits@D@std@@V?$allocator@D@2@@std@@V12@@2@U_Kfn@?$map@V?$basic_string@DU?$char_traits@D@std@@V?$allocator@D@2@@std@@V12@U?$less@V?$basic_string@DU?$char_traits@D@std@@V?$allocator@D@2@@std@@@2@V?$allocator@V?$basic_string@DU?$char_traits@D@std@@V?$allocator@D@2@@std@@@2@@2@U?$less@V?$basic_string@DU?$char_traits@D@std@@V?$allocator@D@2@@std@@@2@V?$allocator@V?$basic_string@DU?$char_traits@D@std@@V?$allocator@D@2@@std@@@2@@std@@QAEAAV012@XZ 00457d00 f i UiChatCentre.obj
 0001:00056d20       ??R_Kfn@?$map@V?$basic_string@DU?$char_traits@D@std@@V?$allocator@D@2@@std@@EU?$less@V?$basic_string@DU?$char_traits@D@std@@V?$allocator@D@2@@std@@@2@V?$allocator@E@2@@std@@QBEABV?$basic_string@DU?$char_traits@D@std@@V?$allocator@D@2@@2@ABU?$pair@$$CBV?$basic_string@DU?$char_traits@D@std@@V?$allocator@D@2@@std@@E@2@@Z 00457d20 f i UiChatCentre.obj
 0001:00056d30       ?_Color@?$_Tree@V?$basic_string@DU?$char_traits@D@std@@V?$allocator@D@2@@std@@U?$pair@$$CBV?$basic_string@DU?$char_traits@D@std@@V?$allocator@D@2@@std@@E@2@U_Kfn@?$map@V?$basic_string@DU?$char_traits@D@std@@V?$allocator@D@2@@std@@EU?$less@V?$basic_string@DU?$char_traits@D@std@@V?$allocator@D@2@@std@@@2@V?$allocator@E@2@@2@U?$less@V?$basic_string@DU?$char_traits@D@std@@V?$allocator@D@2@@std@@@2@V?$allocator@E@2@@std@@KAAAW4_Redbl@12@PAU_Node@12@@Z 00457d30 f i UiChatCentre.obj
 0001:00056d40       ?_Left@?$_Tree@V?$basic_string@DU?$char_traits@D@std@@V?$allocator@D@2@@std@@U?$pair@$$CBV?$basic_string@DU?$char_traits@D@std@@V?$allocator@D@2@@std@@E@2@U_Kfn@?$map@V?$basic_string@DU?$char_traits@D@std@@V?$allocator@D@2@@std@@EU?$less@V?$basic_string@DU?$char_traits@D@std@@V?$allocator@D@2@@std@@@2@V?$allocator@E@2@@2@U?$less@V?$basic_string@DU?$char_traits@D@std@@V?$allocator@D@2@@std@@@2@V?$allocator@E@2@@std@@KAAAPAU_Node@12@PAU312@@Z 00457d40 f i UiChatCentre.obj
 0001:00056d50       ?_Parent@?$_Tree@V?$basic_string@DU?$char_traits@D@std@@V?$allocator@D@2@@std@@U?$pair@$$CBV?$basic_string@DU?$char_traits@D@std@@V?$allocator@D@2@@std@@E@2@U_Kfn@?$map@V?$basic_string@DU?$char_traits@D@std@@V?$allocator@D@2@@std@@EU?$less@V?$basic_string@DU?$char_traits@D@std@@V?$allocator@D@2@@std@@@2@V?$allocator@E@2@@2@U?$less@V?$basic_string@DU?$char_traits@D@std@@V?$allocator@D@2@@std@@@2@V?$allocator@E@2@@std@@KAAAPAU_Node@12@PAU312@@Z 00457d50 f i UiChatCentre.obj
 0001:00056d60       ?_Right@?$_Tree@V?$basic_string@DU?$char_traits@D@std@@V?$allocator@D@2@@std@@U?$pair@$$CBV?$basic_string@DU?$char_traits@D@std@@V?$allocator@D@2@@std@@E@2@U_Kfn@?$map@V?$basic_string@DU?$char_traits@D@std@@V?$allocator@D@2@@std@@EU?$less@V?$basic_string@DU?$char_traits@D@std@@V?$allocator@D@2@@std@@@2@V?$allocator@E@2@@2@U?$less@V?$basic_string@DU?$char_traits@D@std@@V?$allocator@D@2@@std@@@2@V?$allocator@E@2@@std@@KAAAPAU_Node@12@PAU312@@Z 00457d60 f i UiChatCentre.obj
 0001:00056d70       ?_Copy@?$_Tree@V?$basic_string@DU?$char_traits@D@std@@V?$allocator@D@2@@std@@U?$pair@$$CBV?$basic_string@DU?$char_traits@D@std@@V?$allocator@D@2@@std@@E@2@U_Kfn@?$map@V?$basic_string@DU?$char_traits@D@std@@V?$allocator@D@2@@std@@EU?$less@V?$basic_string@DU?$char_traits@D@std@@V?$allocator@D@2@@std@@@2@V?$allocator@E@2@@2@U?$less@V?$basic_string@DU?$char_traits@D@std@@V?$allocator@D@2@@std@@@2@V?$allocator@E@2@@std@@IAEPAU_Node@12@PAU312@0@Z 00457d70 f i UiChatCentre.obj
 0001:00056ea0       ?_Insert@?$_Tree@V?$basic_string@DU?$char_traits@D@std@@V?$allocator@D@2@@std@@U?$pair@$$CBV?$basic_string@DU?$char_traits@D@std@@V?$allocator@D@2@@std@@E@2@U_Kfn@?$map@V?$basic_string@DU?$char_traits@D@std@@V?$allocator@D@2@@std@@EU?$less@V?$basic_string@DU?$char_traits@D@std@@V?$allocator@D@2@@std@@@2@V?$allocator@E@2@@2@U?$less@V?$basic_string@DU?$char_traits@D@std@@V?$allocator@D@2@@std@@@2@V?$allocator@E@2@@std@@IAE?AViterator@12@PAU_Node@12@0ABU?$pair@$$CBV?$basic_string@DU?$char_traits@D@std@@V?$allocator@D@2@@std@@E@2@@Z 00457ea0 f i UiChatCentre.obj
 0001:00057370       ?_Lbound@?$_Tree@V?$basic_string@DU?$char_traits@D@std@@V?$allocator@D@2@@std@@U?$pair@$$CBV?$basic_string@DU?$char_traits@D@std@@V?$allocator@D@2@@std@@E@2@U_Kfn@?$map@V?$basic_string@DU?$char_traits@D@std@@V?$allocator@D@2@@std@@EU?$less@V?$basic_string@DU?$char_traits@D@std@@V?$allocator@D@2@@std@@@2@V?$allocator@E@2@@2@U?$less@V?$basic_string@DU?$char_traits@D@std@@V?$allocator@D@2@@std@@@2@V?$allocator@E@2@@std@@IBEPAU_Node@12@ABV?$basic_string@DU?$char_traits@D@std@@V?$allocator@D@2@@2@@Z 00458370 f i UiChatCentre.obj
 0001:00057440       ?_Lrotate@?$_Tree@V?$basic_string@DU?$char_traits@D@std@@V?$allocator@D@2@@std@@U?$pair@$$CBV?$basic_string@DU?$char_traits@D@std@@V?$allocator@D@2@@std@@E@2@U_Kfn@?$map@V?$basic_string@DU?$char_traits@D@std@@V?$allocator@D@2@@std@@EU?$less@V?$basic_string@DU?$char_traits@D@std@@V?$allocator@D@2@@std@@@2@V?$allocator@E@2@@2@U?$less@V?$basic_string@DU?$char_traits@D@std@@V?$allocator@D@2@@std@@@2@V?$allocator@E@2@@std@@IAEXPAU_Node@12@@Z 00458440 f i UiChatCentre.obj
 0001:000575b0       ?_Max@?$_Tree@V?$basic_string@DU?$char_traits@D@std@@V?$allocator@D@2@@std@@U?$pair@$$CBV?$basic_string@DU?$char_traits@D@std@@V?$allocator@D@2@@std@@E@2@U_Kfn@?$map@V?$basic_string@DU?$char_traits@D@std@@V?$allocator@D@2@@std@@EU?$less@V?$basic_string@DU?$char_traits@D@std@@V?$allocator@D@2@@std@@@2@V?$allocator@E@2@@2@U?$less@V?$basic_string@DU?$char_traits@D@std@@V?$allocator@D@2@@std@@@2@V?$allocator@E@2@@std@@KAPAU_Node@12@PAU312@@Z 004585b0 f i UiChatCentre.obj
 0001:00057630       ?_Min@?$_Tree@V?$basic_string@DU?$char_traits@D@std@@V?$allocator@D@2@@std@@U?$pair@$$CBV?$basic_string@DU?$char_traits@D@std@@V?$allocator@D@2@@std@@E@2@U_Kfn@?$map@V?$basic_string@DU?$char_traits@D@std@@V?$allocator@D@2@@std@@EU?$less@V?$basic_string@DU?$char_traits@D@std@@V?$allocator@D@2@@std@@@2@V?$allocator@E@2@@2@U?$less@V?$basic_string@DU?$char_traits@D@std@@V?$allocator@D@2@@std@@@2@V?$allocator@E@2@@std@@KAPAU_Node@12@PAU312@@Z 00458630 f i UiChatCentre.obj
 0001:000576b0       ?_Root@?$_Tree@V?$basic_string@DU?$char_traits@D@std@@V?$allocator@D@2@@std@@U?$pair@$$CBV?$basic_string@DU?$char_traits@D@std@@V?$allocator@D@2@@std@@E@2@U_Kfn@?$map@V?$basic_string@DU?$char_traits@D@std@@V?$allocator@D@2@@std@@EU?$less@V?$basic_string@DU?$char_traits@D@std@@V?$allocator@D@2@@std@@@2@V?$allocator@E@2@@2@U?$less@V?$basic_string@DU?$char_traits@D@std@@V?$allocator@D@2@@std@@@2@V?$allocator@E@2@@std@@IBEAAPAU_Node@12@XZ 004586b0 f i UiChatCentre.obj
 0001:000576d0       ?_Rrotate@?$_Tree@V?$basic_string@DU?$char_traits@D@std@@V?$allocator@D@2@@std@@U?$pair@$$CBV?$basic_string@DU?$char_traits@D@std@@V?$allocator@D@2@@std@@E@2@U_Kfn@?$map@V?$basic_string@DU?$char_traits@D@std@@V?$allocator@D@2@@std@@EU?$less@V?$basic_string@DU?$char_traits@D@std@@V?$allocator@D@2@@std@@@2@V?$allocator@E@2@@2@U?$less@V?$basic_string@DU?$char_traits@D@std@@V?$allocator@D@2@@std@@@2@V?$allocator@E@2@@std@@IAEXPAU_Node@12@@Z 004586d0 f i UiChatCentre.obj
 0001:00057840       ?_Buynode@?$_Tree@V?$basic_string@DU?$char_traits@D@std@@V?$allocator@D@2@@std@@U?$pair@$$CBV?$basic_string@DU?$char_traits@D@std@@V?$allocator@D@2@@std@@E@2@U_Kfn@?$map@V?$basic_string@DU?$char_traits@D@std@@V?$allocator@D@2@@std@@EU?$less@V?$basic_string@DU?$char_traits@D@std@@V?$allocator@D@2@@std@@@2@V?$allocator@E@2@@2@U?$less@V?$basic_string@DU?$char_traits@D@std@@V?$allocator@D@2@@std@@@2@V?$allocator@E@2@@std@@IAEPAU_Node@12@PAU312@W4_Redbl@12@@Z 00458840 f i UiChatCentre.obj
 0001:00057890       ?_Destval@?$_Tree@V?$basic_string@DU?$char_traits@D@std@@V?$allocator@D@2@@std@@U?$pair@$$CBV?$basic_string@DU?$char_traits@D@std@@V?$allocator@D@2@@std@@E@2@U_Kfn@?$map@V?$basic_string@DU?$char_traits@D@std@@V?$allocator@D@2@@std@@EU?$less@V?$basic_string@DU?$char_traits@D@std@@V?$allocator@D@2@@std@@@2@V?$allocator@E@2@@2@U?$less@V?$basic_string@DU?$char_traits@D@std@@V?$allocator@D@2@@std@@@2@V?$allocator@E@2@@std@@IAEXPAU?$pair@$$CBV?$basic_string@DU?$char_traits@D@std@@V?$allocator@D@2@@std@@E@2@@Z 00458890 f i UiChatCentre.obj
 0001:000578b0       ??0const_iterator@?$_Tree@V?$basic_string@DU?$char_traits@D@std@@V?$allocator@D@2@@std@@U?$pair@$$CBV?$basic_string@DU?$char_traits@D@std@@V?$allocator@D@2@@std@@E@2@U_Kfn@?$map@V?$basic_string@DU?$char_traits@D@std@@V?$allocator@D@2@@std@@EU?$less@V?$basic_string@DU?$char_traits@D@std@@V?$allocator@D@2@@std@@@2@V?$allocator@E@2@@2@U?$less@V?$basic_string@DU?$char_traits@D@std@@V?$allocator@D@2@@std@@@2@V?$allocator@E@2@@std@@QAE@PAU_Node@12@@Z 004588b0 f i UiChatCentre.obj
 0001:000578d0       ??Eiterator@?$_Tree@V?$basic_string@DU?$char_traits@D@std@@V?$allocator@D@2@@std@@U?$pair@$$CBV?$basic_string@DU?$char_traits@D@std@@V?$allocator@D@2@@std@@E@2@U_Kfn@?$map@V?$basic_string@DU?$char_traits@D@std@@V?$allocator@D@2@@std@@EU?$less@V?$basic_string@DU?$char_traits@D@std@@V?$allocator@D@2@@std@@@2@V?$allocator@E@2@@2@U?$less@V?$basic_string@DU?$char_traits@D@std@@V?$allocator@D@2@@std@@@2@V?$allocator@E@2@@std@@QAEAAV012@XZ 004588d0 f i UiChatCentre.obj
 0001:000578f0       ??Fiterator@?$_Tree@V?$basic_string@DU?$char_traits@D@std@@V?$allocator@D@2@@std@@U?$pair@$$CBV?$basic_string@DU?$char_traits@D@std@@V?$allocator@D@2@@std@@E@2@U_Kfn@?$map@V?$basic_string@DU?$char_traits@D@std@@V?$allocator@D@2@@std@@EU?$less@V?$basic_string@DU?$char_traits@D@std@@V?$allocator@D@2@@std@@@2@V?$allocator@E@2@@2@U?$less@V?$basic_string@DU?$char_traits@D@std@@V?$allocator@D@2@@std@@@2@V?$allocator@E@2@@std@@QAEAAV012@XZ 004588f0 f i UiChatCentre.obj
 0001:00057910       ??Eiterator@?$list@V?$basic_string@DU?$char_traits@D@std@@V?$allocator@D@2@@std@@V?$allocator@V?$basic_string@DU?$char_traits@D@std@@V?$allocator@D@2@@std@@@2@@std@@QAEAAV012@XZ 00458910 f i UiChatCentre.obj
 0001:00057940       ??8iterator@?$list@V?$basic_string@DU?$char_traits@D@std@@V?$allocator@D@2@@std@@V?$allocator@V?$basic_string@DU?$char_traits@D@std@@V?$allocator@D@2@@std@@@2@@std@@QBE_NABV012@@Z 00458940 f i UiChatCentre.obj
 0001:00057960       ?_Consval@?$_Tree@V?$basic_string@DU?$char_traits@D@std@@V?$allocator@D@2@@std@@U?$pair@$$CBV?$basic_string@DU?$char_traits@D@std@@V?$allocator@D@2@@std@@V12@@2@U_Kfn@?$map@V?$basic_string@DU?$char_traits@D@std@@V?$allocator@D@2@@std@@V12@U?$less@V?$basic_string@DU?$char_traits@D@std@@V?$allocator@D@2@@std@@@2@V?$allocator@V?$basic_string@DU?$char_traits@D@std@@V?$allocator@D@2@@std@@@2@@2@U?$less@V?$basic_string@DU?$char_traits@D@std@@V?$allocator@D@2@@std@@@2@V?$allocator@V?$basic_string@DU?$char_traits@D@std@@V?$allocator@D@2@@std@@@2@@std@@IAEXPAU?$pair@$$CBV?$basic_string@DU?$char_traits@D@std@@V?$allocator@D@2@@std@@V12@@2@ABU32@@Z 00458960 f i UiChatCentre.obj
 0001:00057980       ?_Dec@const_iterator@?$_Tree@V?$basic_string@DU?$char_traits@D@std@@V?$allocator@D@2@@std@@U?$pair@$$CBV?$basic_string@DU?$char_traits@D@std@@V?$allocator@D@2@@std@@V12@@2@U_Kfn@?$map@V?$basic_string@DU?$char_traits@D@std@@V?$allocator@D@2@@std@@V12@U?$less@V?$basic_string@DU?$char_traits@D@std@@V?$allocator@D@2@@std@@@2@V?$allocator@V?$basic_string@DU?$char_traits@D@std@@V?$allocator@D@2@@std@@@2@@2@U?$less@V?$basic_string@DU?$char_traits@D@std@@V?$allocator@D@2@@std@@@2@V?$allocator@V?$basic_string@DU?$char_traits@D@std@@V?$allocator@D@2@@std@@@2@@std@@QAEXXZ 00458980 f i UiChatCentre.obj
 0001:00057a90       ?_Charalloc@?$allocator@E@std@@QAEPADI@Z 00458a90 f i UiChatCentre.obj
 0001:00057ab0       ?_Consval@?$_Tree@V?$basic_string@DU?$char_traits@D@std@@V?$allocator@D@2@@std@@U?$pair@$$CBV?$basic_string@DU?$char_traits@D@std@@V?$allocator@D@2@@std@@E@2@U_Kfn@?$map@V?$basic_string@DU?$char_traits@D@std@@V?$allocator@D@2@@std@@EU?$less@V?$basic_string@DU?$char_traits@D@std@@V?$allocator@D@2@@std@@@2@V?$allocator@E@2@@2@U?$less@V?$basic_string@DU?$char_traits@D@std@@V?$allocator@D@2@@std@@@2@V?$allocator@E@2@@std@@IAEXPAU?$pair@$$CBV?$basic_string@DU?$char_traits@D@std@@V?$allocator@D@2@@std@@E@2@ABU32@@Z 00458ab0 f i UiChatCentre.obj
 0001:00057ad0       ?_Dec@const_iterator@?$_Tree@V?$basic_string@DU?$char_traits@D@std@@V?$allocator@D@2@@std@@U?$pair@$$CBV?$basic_string@DU?$char_traits@D@std@@V?$allocator@D@2@@std@@E@2@U_Kfn@?$map@V?$basic_string@DU?$char_traits@D@std@@V?$allocator@D@2@@std@@EU?$less@V?$basic_string@DU?$char_traits@D@std@@V?$allocator@D@2@@std@@@2@V?$allocator@E@2@@2@U?$less@V?$basic_string@DU?$char_traits@D@std@@V?$allocator@D@2@@std@@@2@V?$allocator@E@2@@std@@QAEXXZ 00458ad0 f i UiChatCentre.obj
 0001:00057be0       ?_Inc@const_iterator@?$_Tree@V?$basic_string@DU?$char_traits@D@std@@V?$allocator@D@2@@std@@U?$pair@$$CBV?$basic_string@DU?$char_traits@D@std@@V?$allocator@D@2@@std@@E@2@U_Kfn@?$map@V?$basic_string@DU?$char_traits@D@std@@V?$allocator@D@2@@std@@EU?$less@V?$basic_string@DU?$char_traits@D@std@@V?$allocator@D@2@@std@@@2@V?$allocator@E@2@@2@U?$less@V?$basic_string@DU?$char_traits@D@std@@V?$allocator@D@2@@std@@@2@V?$allocator@E@2@@std@@QAEXXZ 00458be0 f i UiChatCentre.obj
 0001:00057cc0       ?swap@std@@YAXAAW4_Redbl@?$_Tree@V?$basic_string@DU?$char_traits@D@std@@V?$allocator@D@2@@std@@U?$pair@$$CBV?$basic_string@DU?$char_traits@D@std@@V?$allocator@D@2@@std@@V12@@2@U_Kfn@?$map@V?$basic_string@DU?$char_traits@D@std@@V?$allocator@D@2@@std@@V12@U?$less@V?$basic_string@DU?$char_traits@D@std@@V?$allocator@D@2@@std@@@2@V?$allocator@V?$basic_string@DU?$char_traits@D@std@@V?$allocator@D@2@@std@@@2@@2@U?$less@V?$basic_string@DU?$char_traits@D@std@@V?$allocator@D@2@@std@@@2@V?$allocator@V?$basic_string@DU?$char_traits@D@std@@V?$allocator@D@2@@std@@@2@@1@0@Z 00458cc0 f i UiChatCentre.obj
 0001:00057cf0       ?_Allocate@std@@YAPADHPAD@Z 00458cf0 f i UiChatCentre.obj
 0001:00057d10       ?_Construct@std@@YAXPAV?$basic_string@DU?$char_traits@D@std@@V?$allocator@D@2@@1@ABV21@@Z 00458d10 f i UiChatCentre.obj
 0001:00057d80       ??3@YAXPAX0@Z              00458d80 f i UiChatCentre.obj
 0001:00057d90       ?_Destroy@std@@YAXPAU?$pair@$$CBV?$basic_string@DU?$char_traits@D@std@@V?$allocator@D@2@@std@@V12@@1@@Z 00458d90 f i UiChatCentre.obj
 0001:00057da0       ?swap@std@@YAXAAW4_Redbl@?$_Tree@V?$basic_string@DU?$char_traits@D@std@@V?$allocator@D@2@@std@@U?$pair@$$CBV?$basic_string@DU?$char_traits@D@std@@V?$allocator@D@2@@std@@E@2@U_Kfn@?$map@V?$basic_string@DU?$char_traits@D@std@@V?$allocator@D@2@@std@@EU?$less@V?$basic_string@DU?$char_traits@D@std@@V?$allocator@D@2@@std@@@2@V?$allocator@E@2@@2@U?$less@V?$basic_string@DU?$char_traits@D@std@@V?$allocator@D@2@@std@@@2@V?$allocator@E@2@@1@0@Z 00458da0 f i UiChatCentre.obj
 0001:00057dd0       ?_Destroy@std@@YAXPAV?$basic_string@DU?$char_traits@D@std@@V?$allocator@D@2@@1@@Z 00458dd0 f i UiChatCentre.obj
 0001:00057de0       ?_Destroy@std@@YAXPAU?$pair@$$CBV?$basic_string@DU?$char_traits@D@std@@V?$allocator@D@2@@std@@E@1@@Z 00458de0 f i UiChatCentre.obj
 0001:00057df0       ?_Construct@std@@YAXPAU?$pair@$$CBV?$basic_string@DU?$char_traits@D@std@@V?$allocator@D@2@@std@@V12@@1@ABU21@@Z 00458df0 f i UiChatCentre.obj
 0001:00057e60       ?_Construct@std@@YAXPAU?$pair@$$CBV?$basic_string@DU?$char_traits@D@std@@V?$allocator@D@2@@std@@E@1@ABU21@@Z 00458e60 f i UiChatCentre.obj
 0001:00057ed0       ??_G?$pair@$$CBV?$basic_string@DU?$char_traits@D@std@@V?$allocator@D@2@@std@@V12@@std@@QAEPAXI@Z 00458ed0 f i UiChatCentre.obj
 0001:00057f00       ??_G?$basic_string@DU?$char_traits@D@std@@V?$allocator@D@2@@std@@QAEPAXI@Z 00458f00 f i UiChatCentre.obj
 0001:00057f30       ??_G?$pair@$$CBV?$basic_string@DU?$char_traits@D@std@@V?$allocator@D@2@@std@@E@std@@QAEPAXI@Z 00458f30 f i UiChatCentre.obj
 0001:00057f60       ??0?$pair@$$CBV?$basic_string@DU?$char_traits@D@std@@V?$allocator@D@2@@std@@V12@@std@@QAE@ABU01@@Z 00458f60 f i UiChatCentre.obj
 0001:00057fc0       ??0?$pair@$$CBV?$basic_string@DU?$char_traits@D@std@@V?$allocator@D@2@@std@@E@std@@QAE@ABU01@@Z 00458fc0 f i UiChatCentre.obj
 0001:0005802f       ??0KUiChatPhrase@@QAE@XZ   0045902f f   UiChatPhrase.obj
 0001:00058072       ??1KUiChatPhrase@@QAE@XZ   00459072 f   UiChatPhrase.obj
 0001:000580cc       ?ClearAllPhrase@KUiChatPhrase@@QAEXXZ 004590cc f   UiChatPhrase.obj
 0001:000580ed       ?GetPhrase@KUiChatPhrase@@QAEHHPAD@Z 004590ed f   UiChatPhrase.obj
 0001:00058159       ?SetPhrase@KUiChatPhrase@@QAEHHPADH@Z 00459159 f   UiChatPhrase.obj
 0001:000581eb       ?GetPhraseCount@KUiChatPhrase@@QAEHXZ 004591eb f   UiChatPhrase.obj
 0001:000581fb       ?SavePrivateSetting@KUiChatPhrase@@QAEHPAVKIniFile@@PBDH@Z 004591fb f   UiChatPhrase.obj
 0001:000582b0       ?LoadEntireEmote@KUiChatPhrase@@QAEHXZ 004592b0 f   UiChatPhrase.obj
 0001:000583be       ?SetEmote@KUiChatPhrase@@QAEHPAD000H@Z 004593be f   UiChatPhrase.obj
 0001:000585b8       ?LoadEmotePhrase@KUiChatPhrase@@AAEHPAVKIniFile@@@Z 004595b8 f   UiChatPhrase.obj
 0001:00058656       ?LoadMenuEmote@KUiChatPhrase@@AAEHPAVKIniFile@@@Z 00459656 f   UiChatPhrase.obj
 0001:000586fa       ?HandleLoad@KUiChatPhrase@@AAEHPAVKIniFile@@PAUEMOTE_PHRASE@1@HPBD@Z 004596fa f   UiChatPhrase.obj
 0001:000588fa       ?ConstructFunctionAlias@KUiChatPhrase@@QAEHXZ 004598fa f   UiChatPhrase.obj
 0001:00058b7b       ?GetEmoteCount@KUiChatPhrase@@QAEHW4EMOTE_TYPE@1@@Z 00459b7b f   UiChatPhrase.obj
 0001:00058ba2       ?GetEmote@KUiChatPhrase@@QAEHPBDPADHH@Z 00459ba2 f   UiChatPhrase.obj
 0001:00058c00       ?GetEmote@KUiChatPhrase@@QAEHHPADHH@Z 00459c00 f   UiChatPhrase.obj
 0001:00058d3f       ?GetMenuEmote@KUiChatPhrase@@QAEHPBDPADHH@Z 00459d3f f   UiChatPhrase.obj
 0001:00058d77       ?GetMenuEmote@KUiChatPhrase@@QAEHHPADHH@Z 00459d77 f   UiChatPhrase.obj
 0001:00058e7b       ?GetMenuEmoteName@KUiChatPhrase@@QAEHHPADH@Z 00459e7b f   UiChatPhrase.obj
 0001:00058f0c       ?FindEmote@KUiChatPhrase@@AAEHW4EMOTE_TYPE@1@PBD@Z 00459f0c f   UiChatPhrase.obj
 0001:00058fc3       ?ConvertEmoteString@KUiChatPhrase@@QAEHPADHPBD1@Z 00459fc3 f   UiChatPhrase.obj
 0001:000591f0       ?clear@?$list@V?$basic_string@DU?$char_traits@D@std@@V?$allocator@D@2@@std@@V?$allocator@V?$basic_string@DU?$char_traits@D@std@@V?$allocator@D@2@@std@@@2@@std@@QAEXXZ 0045a1f0 f i UiChatPhrase.obj
 0001:00059230       ?OpenWindow@KUiChatStatus@@SAPAV1@XZ 0045a230 f   UiChatStatus.obj
 0001:000592dd       ?GetIfVisible@KUiChatStatus@@SAPAV1@XZ 0045a2dd f   UiChatStatus.obj
 0001:00059303       ?CloseWindow@KUiChatStatus@@SAXXZ 0045a303 f   UiChatStatus.obj
 0001:00059326       ?Initialize@KUiChatStatus@@AAEXXZ 0045a326 f   UiChatStatus.obj
 0001:000594c0       ?LoadScheme@KUiChatStatus@@SAXPBD@Z 0045a4c0 f   UiChatStatus.obj
 0001:00059744       ?WndProc@KUiChatStatus@@EAEHIIH@Z 0045a744 f   UiChatStatus.obj
 0001:00059a53       ?OnAddMsg@KUiChatStatus@@AAEXXZ 0045aa53 f   UiChatStatus.obj
 0001:00059afa       ?OnSelMsg@KUiChatStatus@@AAEXH@Z 0045aafa f   UiChatStatus.obj
 0001:00059b59       ?OnSetDefMsg@KUiChatStatus@@AAEXXZ 0045ab59 f   UiChatStatus.obj
 0001:00059b70       ??0KUiChatStatus@@AAE@XZ   0045ab70 f i UiChatStatus.obj
 0001:00059c90       ??_EKUiChatStatus@@EAEPAXI@Z 0045ac90 f i UiChatStatus.obj
 0001:00059c90       ??_GKUiChatStatus@@EAEPAXI@Z 0045ac90 f i UiChatStatus.obj
 0001:00059cc0       ??1KUiChatStatus@@EAE@XZ   0045acc0 f i UiChatStatus.obj
 0001:00059e1f       ?UIMessageBox@@YAXPBDPAVKWndWindow@@00I@Z 0045ae1f f   UiInformation.obj
 0001:00059e44       ?UiCloseMessageBox@@YAXXZ  0045ae44 f   UiInformation.obj
 0001:00059e53       ??0KUiInformation@@QAE@XZ  0045ae53 f   UiInformation.obj
 0001:00059ef8       ?Initialize@KUiInformation@@QAEXXZ 0045aef8 f   UiInformation.obj
 0001:00059f65       ?LoadScheme@KUiInformation@@QAEXPBD@Z 0045af65 f   UiInformation.obj
 0001:0005a0ea       ?Show@KUiInformation@@QAEXPBD00PAVKWndWindow@@IH@Z 0045b0ea f   UiInformation.obj
 0001:0005a250       ?Hide@KUiInformation@@AAEXH@Z 0045b250 f   UiInformation.obj
 0001:0005a2b4       ?Close@KUiInformation@@QAEXXZ 0045b2b4 f   UiInformation.obj
 0001:0005a2d3       ?WndProc@KUiInformation@@EAEHIIH@Z 0045b2d3 f   UiInformation.obj
 0001:0005a3a0       ??1KUiInformation@@UAE@XZ  0045b3a0 f i UiInformation.obj
 0001:0005a420       ??_GKUiInformation@@UAEPAXI@Z 0045b420 f i UiInformation.obj
 0001:0005a420       ??_EKUiInformation@@UAEPAXI@Z 0045b420 f i UiInformation.obj
 0001:0005a48f       ?UIMessageBox2@@YAXPBDH0PAVKWndWindow@@I@Z 0045b48f f   UiInformation2.obj
 0001:0005a4cb       ??0KUiInformation2@@QAE@XZ 0045b4cb f   UiInformation2.obj
 0001:0005a56b       ?SpeakWords@KUiInformation2@@QAEXPAUKUiInformationParam@@H@Z 0045b56b f   UiInformation2.obj
 0001:0005a708       ?Initialize@KUiInformation2@@QAEXXZ 0045b708 f   UiInformation2.obj
 0001:0005a764       ?LoadScheme@KUiInformation2@@QAEXPBD@Z 0045b764 f   UiInformation2.obj
 0001:0005a858       ?Show@KUiInformation2@@QAEXPBDH0PAVKWndWindow@@I@Z 0045b858 f   UiInformation2.obj
 0001:0005a8bf       ?Hide@KUiInformation2@@UAEXXZ 0045b8bf f   UiInformation2.obj
 0001:0005aa7a       ?WndProc@KUiInformation2@@EAEHIIH@Z 0045ba7a f   UiInformation2.obj
 0001:0005ab39       ?Close@KUiInformation2@@QAEXXZ 0045bb39 f   UiInformation2.obj
 0001:0005ab9e       ??1KUiInformation2@@UAE@XZ 0045bb9e f   UiInformation2.obj
 0001:0005ac20       ?TopChildFromPoint@KUiInformation2@@UAEPAVKWndWindow@@HH@Z 0045bc20 f i UiInformation2.obj
 0001:0005ac30       ??_EKUiInformation2@@UAEPAXI@Z 0045bc30 f i UiInformation2.obj
 0001:0005ac30       ??_GKUiInformation2@@UAEPAXI@Z 0045bc30 f i UiInformation2.obj
 0001:0005ac60       ??0KUiTeamManage@@AAE@XZ   0045bc60 f   UiTeamManage.obj
 0001:0005adc2       ?GetIfVisible@KUiTeamManage@@SAPAV1@XZ 0045bdc2 f   UiTeamManage.obj
 0001:0005ade8       ?OpenWindow@KUiTeamManage@@SAPAV1@XZ 0045bde8 f   UiTeamManage.obj
 0001:0005aeb6       ?CloseWindow@KUiTeamManage@@SAXXZ 0045beb6 f   UiTeamManage.obj
 0001:0005aee4       ?Initialize@KUiTeamManage@@AAEXXZ 0045bee4 f   UiTeamManage.obj
 0001:0005b0d6       ?LoadScheme@KUiTeamManage@@AAEXPAVKIniFile@@@Z 0045c0d6 f   UiTeamManage.obj
 0001:0005b27d       ?LoadScheme@KUiTeamManage@@SAXPBD@Z 0045c27d f   UiTeamManage.obj
 0001:0005b325       ?WndProc@KUiTeamManage@@MAEHIIH@Z 0045c325 f   UiTeamManage.obj
 0001:0005b4b6       ?OnSelTeamMember@KUiTeamManage@@IAEXH@Z 0045c4b6 f   UiTeamManage.obj
 0001:0005b550       ?OnSelNearby@KUiTeamManage@@IAEXH@Z 0045c550 f   UiTeamManage.obj
 0001:0005b5b6       ?Clear@KUiTeamManage@@IAEXXZ 0045c5b6 f   UiTeamManage.obj
 0001:0005b6dd       ?UpdateData@KUiTeamManage@@QAEXPAUKUiPlayerTeam@@@Z 0045c6dd f   UiTeamManage.obj
 0001:0005b8f9       ?OnAppoint@KUiTeamManage@@IAEXXZ 0045c8f9 f   UiTeamManage.obj
 0001:0005b943       ?OnKick@KUiTeamManage@@IAEXXZ 0045c943 f   UiTeamManage.obj
 0001:0005b98d       ?OnInvite@KUiTeamManage@@IAEXXZ 0045c98d f   UiTeamManage.obj
 0001:0005b9fd       ?OnRefresh@KUiTeamManage@@IAEXXZ 0045c9fd f   UiTeamManage.obj
 0001:0005bae2       ?OnLeave@KUiTeamManage@@IAEXXZ 0045cae2 f   UiTeamManage.obj
 0001:0005bb10       ??_EKUiTeamManage@@EAEPAXI@Z 0045cb10 f i UiTeamManage.obj
 0001:0005bb10       ??_GKUiTeamManage@@EAEPAXI@Z 0045cb10 f i UiTeamManage.obj
 0001:0005bb40       ??1KUiTeamManage@@EAE@XZ   0045cb40 f i UiTeamManage.obj
 0001:0005bc70       ?SelfName@KUiPlayerBar@@SAPBDXZ 0045cc70 f i UiTeamManage.obj
 0001:0005bc90       ?OpenWindow@KUiHeaderControlBar@@SAPAV1@XZ 0045cc90 f   UiHeaderControlBar.obj
 0001:0005bd3c       ?CloseWindow@KUiHeaderControlBar@@SAXXZ 0045cd3c f   UiHeaderControlBar.obj
 0001:0005bd5f       ?Initialize@KUiHeaderControlBar@@AAEXXZ 0045cd5f f   UiHeaderControlBar.obj
 0001:0005bdbf       ?LoadScheme@KUiHeaderControlBar@@SAXPBD@Z 0045cdbf f   UiHeaderControlBar.obj
 0001:0005be67       ?DefaultScheme@KUiHeaderControlBar@@SAXPBD@Z 0045ce67 f   UiHeaderControlBar.obj
 0001:0005bf4d       ?Breathe@KUiHeaderControlBar@@EAEXXZ 0045cf4d f   UiHeaderControlBar.obj
 0001:0005bf70       ??0KUiHeaderControlBar@@QAE@XZ 0045cf70 f i UiHeaderControlBar.obj
 0001:0005bf90       ??_GKUiHeaderControlBar@@EAEPAXI@Z 0045cf90 f i UiHeaderControlBar.obj
 0001:0005bf90       ??_EKUiHeaderControlBar@@EAEPAXI@Z 0045cf90 f i UiHeaderControlBar.obj
 0001:0005bfc0       ??1KUiHeaderControlBar@@EAE@XZ 0045cfc0 f i UiHeaderControlBar.obj
 0001:0005bfe0       ?VerticalSplitTwoWindow@@YAHPAVKWndWindow@@0H@Z 0045cfe0 f   UiMsgCentrePad.obj
 0001:0005c0d7       ?WndProc@KSysMsgCentrePad@@UAEHIIH@Z 0045d0d7 f   UiMsgCentrePad.obj
 0001:0005c530       ?ScrollBottom@KSysMsgCentrePad@@QAEXXZ 0045d530 f   UiMsgCentrePad.obj
 0001:0005c5a7       ?OpenWindow@KUiMsgCentrePad@@SAPAV1@XZ 0045d5a7 f   UiMsgCentrePad.obj
 0001:0005c720       ?CloseWindow@KUiMsgCentrePad@@SAX_N@Z 0045d720 f   UiMsgCentrePad.obj
 0001:0005c793       ??0KUiMsgCentrePad@@AAE@XZ 0045d793 f   UiMsgCentrePad.obj
 0001:0005c943       ?SetAutoDelMsgInterval@KUiMsgCentrePad@@AAEXI@Z 0045d943 f   UiMsgCentrePad.obj
 0001:0005c976       ?SystemMessageArrival@KUiMsgCentrePad@@SAXPBDG@Z 0045d976 f   UiMsgCentrePad.obj
 0001:0005ca3c       ?ChannelMessageArrival@KUiMsgCentrePad@@AAEXHHPADPBDGPAVKWndMessageListBox@@_N@Z 0045da3c f   UiMsgCentrePad.obj
 0001:0005dd0f       ?MSNMessageArrival@KUiMsgCentrePad@@AAEXPAD0PBDG@Z 0045ed0f f   UiMsgCentrePad.obj
 0001:0005de45       ?ShowMSNMessage@KUiMsgCentrePad@@AAEXPADPBDGTKRColor@@22G@Z 0045ee45 f   UiMsgCentrePad.obj
 0001:0005efbf       ?NewChannelMessageArrival@KUiMsgCentrePad@@SAHHKPADPBDG@Z 0045ffbf f   UiMsgCentrePad.obj
 0001:0005f1b5       ?NewMSNMessageArrival@KUiMsgCentrePad@@SAXPAD0PBDG@Z 004601b5 f   UiMsgCentrePad.obj
 0001:0005f1e5       ?ShowSomeoneMessage@KUiMsgCentrePad@@SAXPADPBDG@Z 004601e5 f   UiMsgCentrePad.obj
 0001:0005f2dc       ?OpenChannel@KUiMsgCentrePad@@SAXPADKE@Z 004602dc f   UiMsgCentrePad.obj
 0001:0005f3f0       ?CloseActivateChannel@KUiMsgCentrePad@@AAEXH@Z 004603f0 f   UiMsgCentrePad.obj
 0001:0005f449       ?QueryAllChannel@KUiMsgCentrePad@@SAXXZ 00460449 f   UiMsgCentrePad.obj
 0001:0005f48e       ?ReplaceChannelName@KUiMsgCentrePad@@SAXPADI0@Z 0046048e f   UiMsgCentrePad.obj
 0001:0005f594       ?ReplaceSpecialField@KUiMsgCentrePad@@SA_NPAD0@Z 00460594 f   UiMsgCentrePad.obj
 0001:0005f933       ?CloseSelfChannel@KUiMsgCentrePad@@SAXW4SelfChannel@1@@Z 00460933 f   UiMsgCentrePad.obj
 0001:0005f97c       ?GetChannelSubscribe@KUiMsgCentrePad@@SA_NH@Z 0046097c f   UiMsgCentrePad.obj
 0001:0005f9bc       ?IsChannelType@KUiMsgCentrePad@@SA_NHW4SelfChannel@1@@Z 004609bc f   UiMsgCentrePad.obj
 0001:0005fa20       ?FindActivateChannelResourceIndex@KUiMsgCentrePad@@AAEHPAD@Z 00460a20 f   UiMsgCentrePad.obj
 0001:0005fad9       ?FindActivateChannelIndex@KUiMsgCentrePad@@AAEHPAD@Z 00460ad9 f   UiMsgCentrePad.obj
 0001:0005fb79       ?FindActivateChannelIndex@KUiMsgCentrePad@@AAEHK@Z 00460b79 f   UiMsgCentrePad.obj
 0001:0005fbcc       ?FindActivateChannelCost@KUiMsgCentrePad@@AAEEK@Z 00460bcc f   UiMsgCentrePad.obj
 0001:0005fc31       ?FindChannelResourceIndex@KUiMsgCentrePad@@AAEHPAD@Z 00460c31 f   UiMsgCentrePad.obj
 0001:0005fca3       ?FindActivateChannelIndexByKey@KUiMsgCentrePad@@AAEHPAD@Z 00460ca3 f   UiMsgCentrePad.obj
 0001:0005fd7c       ?IsNeverCloseActivateChannel@KUiMsgCentrePad@@AAEHH@Z 00460d7c f   UiMsgCentrePad.obj
 0001:0005fde1       ?GetChannelMenuinfo@KUiMsgCentrePad@@SA_NHPAG0PATKRColor@@1PADPAF@Z 00460de1 f   UiMsgCentrePad.obj
 0001:00060032       ?GetChannelID@KUiMsgCentrePad@@SAKH@Z 00461032 f   UiMsgCentrePad.obj
 0001:00060072       ?GetChannelTitle@KUiMsgCentrePad@@SAPADH@Z 00461072 f   UiMsgCentrePad.obj
 0001:000600df       ?GetChannelCount@KUiMsgCentrePad@@SAKXZ 004610df f   UiMsgCentrePad.obj
 0001:000600fc       ?GetChannelIndex@KUiMsgCentrePad@@SAHPAD@Z 004610fc f   UiMsgCentrePad.obj
 0001:0006011e       ?GetChannelIndex@KUiMsgCentrePad@@SAHK@Z 0046111e f   UiMsgCentrePad.obj
 0001:00060140       ?GetChannelCost@KUiMsgCentrePad@@SAEK@Z 00461140 f   UiMsgCentrePad.obj
 0001:00060161       ?PushChannelData@KUiMsgCentrePad@@SAHKPBDH@Z 00461161 f   UiMsgCentrePad.obj
 0001:000603c2       ?GetChannelData@KUiMsgCentrePad@@SAHAAKAAEAAPADAAH@Z 004613c2 f   UiMsgCentrePad.obj
 0001:000604d3       ?PopChannelData@KUiMsgCentrePad@@SAHK@Z 004614d3 f   UiMsgCentrePad.obj
 0001:00060670       ?GetPeopleMenuinfo@KUiMsgCentrePad@@SA_NPADPAG1PATKRColor@@2@Z 00461670 f   UiMsgCentrePad.obj
 0001:00060765       ?SendQueryChannelID@KUiMsgCentrePad@@AAEXH@Z 00461765 f   UiMsgCentrePad.obj
 0001:00060881       ?SendChannelSubscribe@KUiMsgCentrePad@@AAEXH_N@Z 00461881 f   UiMsgCentrePad.obj
 0001:00060937       ?AddActivateChannel@KUiMsgCentrePad@@AAEHABUKChannelActivateInfo@@@Z 00461937 f   UiMsgCentrePad.obj
 0001:00060a7b       ?ReleaseActivateChannel@KUiMsgCentrePad@@AAEHH@Z 00461a7b f   UiMsgCentrePad.obj
 0001:00060b1e       ?ReleaseActivateChannelAll@KUiMsgCentrePad@@SAHXZ 00461b1e f   UiMsgCentrePad.obj
 0001:00060b8e       ?Initialize@KUiMsgCentrePad@@AAEXXZ 00461b8e f   UiMsgCentrePad.obj
 0001:00060dc9       ?Breathe@KUiMsgCentrePad@@UAEXXZ 00461dc9 f   UiMsgCentrePad.obj
 0001:00060e8d       ?LoadScheme@KUiMsgCentrePad@@SAXPBD@Z 00461e8d f   UiMsgCentrePad.obj
 0001:00060f58       ?DefaultScheme@KUiMsgCentrePad@@SAXPBD@Z 00461f58 f   UiMsgCentrePad.obj
 0001:0006108a       ?HideAllMessage@KUiMsgCentrePad@@SAXXZ 0046208a f   UiMsgCentrePad.obj
 0001:00061125       ?ShowAllMessage@KUiMsgCentrePad@@SAXXZ 00462125 f   UiMsgCentrePad.obj
 0001:000611c0       ?SetTypeLB@KUiMsgCentrePad@@SAXH@Z 004621c0 f   UiMsgCentrePad.obj
 0001:000619b0       ?UpdateDelMsgTime@KUiMsgCentrePad@@SAXXZ 004629b0 f   UiMsgCentrePad.obj
 0001:000619cf       ?LoadScheme@KUiMsgCentrePad@@AAEXPAVKIniFile@@@Z 004629cf f   UiMsgCentrePad.obj
 0001:00062fd2       ?PtInWindow@KUiMsgCentrePad@@EAEHHH@Z 00463fd2 f   UiMsgCentrePad.obj
 0001:00063359       ?WndProc@KUiMsgCentrePad@@EAEHIIH@Z 00464359 f   UiMsgCentrePad.obj
 0001:00063734       ?GetMessageSendName@KUiMsgCentrePad@@AAEHPAVKWndWindow@@HPAD@Z 00464734 f   UiMsgCentrePad.obj
 0001:000638ae       ?GetMessageSendName@KUiMsgCentrePad@@AAEHPAVKWndWindow@@HHPAD@Z 004648ae f   UiMsgCentrePad.obj
 0001:000639c7       ?PaintWindow@KUiMsgCentrePad@@EAEXXZ 004649c7 f   UiMsgCentrePad.obj
 0001:00063c8f       ?DragWndPos@KUiMsgCentrePad@@AAEXH@Z 00464c8f f   UiMsgCentrePad.obj
 0001:00063d67       ?DragWndSize@KUiMsgCentrePad@@AAEXH@Z 00464d67 f   UiMsgCentrePad.obj
 0001:00063e53       ?ChanageHeight@KUiMsgCentrePad@@AAEHH_N@Z 00464e53 f   UiMsgCentrePad.obj
 0001:000643e0       ?Clear@KUiMsgCentrePad@@SAXXZ 004653e0 f   UiMsgCentrePad.obj
 0001:0006447b       ?PopupChannelMenu@KUiMsgCentrePad@@AAEXHH@Z 0046547b f   UiMsgCentrePad.obj
 0001:000646b9       ?CheckChannel@KUiMsgCentrePad@@SAHH_N@Z 004656b9 f   UiMsgCentrePad.obj
 0001:00064830       ?FilterTextColor@KUiMsgCentrePad@@AAEHPADGABTKRColor@@@Z 00465830 f   UiMsgCentrePad.obj
 0001:0006488a       ?SetFontSize@KUiMsgCentrePad@@SAXH@Z 0046588a f   UiMsgCentrePad.obj
 0001:00064928       ?GetFontSize@KUiMsgCentrePad@@SAHXZ 00465928 f   UiMsgCentrePad.obj
 0001:000649fc       ?SetChannelTextColor@KUiMsgCentrePad@@SAHPADKK@Z 004659fc f   UiMsgCentrePad.obj
 0001:00064a8d       ?GetChannelTextColor@KUiMsgCentrePad@@SAPADHAAK0@Z 00465a8d f   UiMsgCentrePad.obj
 0001:00064b01       ?SetMSNTextColor@KUiMsgCentrePad@@SAXHKK@Z 00465b01 f   UiMsgCentrePad.obj
 0001:00064bcb       ?GetMSNTextColor@KUiMsgCentrePad@@SAXHAAK0@Z 00465bcb f   UiMsgCentrePad.obj
 0001:00064c60       ??_GKUiMsgCentrePad@@EAEPAXI@Z 00465c60 f i UiMsgCentrePad.obj
 0001:00064c60       ??_EKUiMsgCentrePad@@EAEPAXI@Z 00465c60 f i UiMsgCentrePad.obj
 0001:00064c90       ??1KUiMsgCentrePad@@EAE@XZ 00465c90 f i UiMsgCentrePad.obj
 0001:00064d90       ??1KSysMsgCentrePad@@UAE@XZ 00465d90 f i UiMsgCentrePad.obj
 0001:00064e70       ??0KSysMsgCentrePad@@QAE@XZ 00465e70 f i UiMsgCentrePad.obj
 0001:00064f60       ??_GKSysMsgCentrePad@@UAEPAXI@Z 00465f60 f i UiMsgCentrePad.obj
 0001:00064f60       ??_EKSysMsgCentrePad@@UAEPAXI@Z 00465f60 f i UiMsgCentrePad.obj
 0001:00064f90       ?GetMaxLineWidth@KWndMessageListBox@@QAEHXZ 00465f90 f i UiMsgCentrePad.obj
 0001:00064fb0       ?GetMaxValue@KWndScrollBar@@QAEHXZ 00465fb0 f i UiMsgCentrePad.obj
 0001:00064fd0       ?GetScrollBar@KScrollMessageListBox@@QAEPAVKWndScrollBar@@XZ 00465fd0 f i UiMsgCentrePad.obj
 0001:00064ff0       ?GetFontSize@KWndMessageListBox@@QAEHXZ 00465ff0 f i UiMsgCentrePad.obj
 0001:00065010       ?OpenWindow@KUiToolsControlBar@@SAPAV1@XZ 00466010 f   UiToolsControlBar.obj
 0001:000650bc       ?CloseWindow@KUiToolsControlBar@@SAXXZ 004660bc f   UiToolsControlBar.obj
 0001:000650df       ?Initialize@KUiToolsControlBar@@AAEXXZ 004660df f   UiToolsControlBar.obj
 0001:0006513f       ?LoadScheme@KUiToolsControlBar@@SAXPBD@Z 0046613f f   UiToolsControlBar.obj
 0001:000651e7       ?DefaultScheme@KUiToolsControlBar@@SAXPBD@Z 004661e7 f   UiToolsControlBar.obj
 0001:000652cd       ?Breathe@KUiToolsControlBar@@EAEXXZ 004662cd f   UiToolsControlBar.obj
 0001:000652f0       ??0KUiToolsControlBar@@QAE@XZ 004662f0 f i UiToolsControlBar.obj
 0001:00065310       ??_EKUiToolsControlBar@@EAEPAXI@Z 00466310 f i UiToolsControlBar.obj
 0001:00065310       ??_GKUiToolsControlBar@@EAEPAXI@Z 00466310 f i UiToolsControlBar.obj
 0001:00065340       ??1KUiToolsControlBar@@EAE@XZ 00466340 f i UiToolsControlBar.obj
 0001:00065360       ??0KUiShop@@AAE@XZ         00466360 f   UiShop.obj
 0001:0006545a       ?GetIfVisible@KUiShop@@SAPAV1@XZ 0046645a f   UiShop.obj
 0001:00065464       ?OpenWindow@KUiShop@@SAPAV1@H@Z 00466464 f   UiShop.obj
 0001:00065578       ?CloseWindow@KUiShop@@SAXXZ 00466578 f   UiShop.obj
 0001:000655da       ?Initialize@KUiShop@@AAEXXZ 004665da f   UiShop.obj
 0001:000656db       ?LoadScheme@KUiShop@@SAXPBD@Z 004666db f   UiShop.obj
 0001:000658a9       ?CancelTrade@KUiShop@@SAXXZ 004668a9 f   UiShop.obj
 0001:000658b3       ?WndProc@KUiShop@@UAEHIIH@Z 004668b3 f   UiShop.obj
 0001:000659c7       ?OnBuyItem@KUiShop@@AAEXPAUKUiDraggedObject@@_N@Z 004669c7 f   UiShop.obj
 0001:00065b2b       ?OnClickButton@KUiShop@@AAEXPAVKWndButton@@H@Z 00466b2b f   UiShop.obj
 0001:00065c9a       ?SetPage@KUiShop@@AAEXH@Z  00466c9a f   UiShop.obj
 0001:00065d47       ?UpdateData@KUiShop@@UAEXXZ 00466d47 f   UiShop.obj
 0001:00065e71       ?Clear@KUiShop@@AAEXXZ     00466e71 f   UiShop.obj
 0001:00065ed0       ??_EKUiShop@@EAEPAXI@Z     00466ed0 f i UiShop.obj
 0001:00065ed0       ??_GKUiShop@@EAEPAXI@Z     00466ed0 f i UiShop.obj
 0001:00065f00       ??1KUiShop@@EAE@XZ         00466f00 f i UiShop.obj
 0001:00065fd0       ??0KUiShopGold@@AAE@XZ     00466fd0 f   UiShopGold.obj
 0001:000660ab       ?GetIfVisible@KUiShopGold@@SAPAV1@XZ 004670ab f   UiShopGold.obj
 0001:000660b5       ?OpenWindow@KUiShopGold@@SAPAV1@XZ 004670b5 f   UiShopGold.obj
 0001:000661ad       ?CloseWindow@KUiShopGold@@SAXXZ 004671ad f   UiShopGold.obj
 0001:0006620f       ?Initialize@KUiShopGold@@AAEXXZ 0046720f f   UiShopGold.obj
 0001:000662f9       ?LoadScheme@KUiShopGold@@SAXPBD@Z 004672f9 f   UiShopGold.obj
 0001:000664a0       ?CancelTrade@KUiShopGold@@SAXXZ 004674a0 f   UiShopGold.obj
 0001:000664aa       ?WndProc@KUiShopGold@@UAEHIIH@Z 004674aa f   UiShopGold.obj
 0001:0006659b       ?OnBuyItem@KUiShopGold@@AAEXPAUKUiDraggedObject@@_N@Z 0046759b f   UiShopGold.obj
 0001:00066668       ?OnClickButton@KUiShopGold@@AAEXPAVKWndButton@@H@Z 00467668 f   UiShopGold.obj
 0001:00066714       ?SetPage@KUiShopGold@@AAEXH@Z 00467714 f   UiShopGold.obj
 0001:000667ec       ?UpdateData@KUiShopGold@@UAEXXZ 004677ec f   UiShopGold.obj
 0001:00066916       ?Clear@KUiShopGold@@AAEXXZ 00467916 f   UiShopGold.obj
 0001:00066970       ??_GKUiShopGold@@EAEPAXI@Z 00467970 f i UiShopGold.obj
 0001:00066970       ??_EKUiShopGold@@EAEPAXI@Z 00467970 f i UiShopGold.obj
 0001:000669a0       ??1KUiShopGold@@EAE@XZ     004679a0 f i UiShopGold.obj
 0001:00066a60       ?OpenWindow@KUiTrade@@SAPAV1@PAUKUiPlayerItem@@@Z 00467a60 f   UiTrade.obj
 0001:00066b8e       ?GetIfVisible@KUiTrade@@SAPAV1@XZ 00467b8e f   UiTrade.obj
 0001:00066b98       ?CloseWindow@KUiTrade@@SAXXZ 00467b98 f   UiTrade.obj
 0001:00066bed       ??0KUiTrade@@AAE@XZ        00467bed f   UiTrade.obj
 0001:00066d83       ??1KUiTrade@@EAE@XZ        00467d83 f   UiTrade.obj
 0001:00066eb2       ?Initialize@KUiTrade@@AAEXXZ 00467eb2 f   UiTrade.obj
 0001:00067170       ?LoadScheme@KUiTrade@@SAXPBD@Z 00468170 f   UiTrade.obj
 0001:0006720d       ?LoadScheme@KUiTrade@@AAEXPAVKIniFile@@@Z 0046820d f   UiTrade.obj
 0001:00067498       ?UpdateTakewithItems@KUiTrade@@AAEXXZ 00468498 f   UiTrade.obj
 0001:00067670       ?OnChangedTakewithItem@KUiTrade@@QAEXPAUKUiObjAtRegion@@H@Z 00468670 f   UiTrade.obj
 0001:000676fc       ?OnSelfChangedItem@KUiTrade@@QAEXPAUKUiObjAtRegion@@H@Z 004686fc f   UiTrade.obj
 0001:000677a9       ?OnOppositeChangedItem@KUiTrade@@QAEXPAUKUiObjAtRegion@@H@Z 004687a9 f   UiTrade.obj
 0001:000678bb       ?UpdateOperData@KUiTrade@@QAEXXZ 004688bb f   UiTrade.obj
 0001:00067ae8       ?WndProc@KUiTrade@@EAEHIIH@Z 00468ae8 f   UiTrade.obj
 0001:00067c5c       ?Breathe@KUiTrade@@EAEXXZ  00468c5c f   UiTrade.obj
 0001:00067c9c       ?OnItemPickDrop@KUiTrade@@AAEXPAUITEM_PICKDROP_PLACE@@0@Z 00468c9c f   UiTrade.obj
 0001:00067dd2       ?OnAdjustMoney@KUiTrade@@AAEX_N@Z 00468dd2 f   UiTrade.obj
 0001:00067f09       ?OnAdjustedMoney@KUiTrade@@AAEXXZ 00468f09 f   UiTrade.obj
 0001:00067f78       ?OnModififyMoney@KUiTrade@@AAEXXZ 00468f78 f   UiTrade.obj
 0001:000680b0       ?OnTrade@KUiTrade@@AAEXXZ  004690b0 f   UiTrade.obj
 0001:000680d9       ?OnOk@KUiTrade@@AAEXH@Z    004690d9 f   UiTrade.obj
 0001:00068115       ?OnCancelTrade@KUiTrade@@AAEXXZ 00469115 f   UiTrade.obj
 0001:0006813b       ?UpdateTradeEnd@KUiTrade@@QAEXH@Z 0046913b f   UiTrade.obj
 0001:00068150       ??_GKUiTrade@@EAEPAXI@Z    00469150 f i UiTrade.obj
 0001:00068150       ??_EKUiTrade@@EAEPAXI@Z    00469150 f i UiTrade.obj
 0001:00068180       ?OpenWindow@KUiTradeConfirm@@SAPAV1@PAUKUiObjAtContRegion@@PAUKUiItemBuySelInfo@@W4TRADE_CONFIRM_ACTION@@H@Z 00469180 f   UiTradeConfirmWnd.obj
 0001:000685c3       ??0KUiTradeConfirm@@AAE@XZ 004695c3 f   UiTradeConfirmWnd.obj
 0001:000686f0       ?GetIfVisible@KUiTradeConfirm@@SAPAV1@XZ 004696f0 f   UiTradeConfirmWnd.obj
 0001:00068716       ?CloseWindow@KUiTradeConfirm@@SAX_N@Z 00469716 f   UiTradeConfirmWnd.obj
 0001:00068758       ?Show@KUiTradeConfirm@@EAEXXZ 00469758 f   UiTradeConfirmWnd.obj
 0001:00068909       ?Hide@KUiTradeConfirm@@EAEXXZ 00469909 f   UiTradeConfirmWnd.obj
 0001:00068928       ?Initialize@KUiTradeConfirm@@AAEHXZ 00469928 f   UiTradeConfirmWnd.obj
 0001:00068a65       ?LoadScheme@KUiTradeConfirm@@AAEXPBD@Z 00469a65 f   UiTradeConfirmWnd.obj
 0001:00068e8a       ?WndProc@KUiTradeConfirm@@EAEHIIH@Z 00469e8a f   UiTradeConfirmWnd.obj
 0001:000690c7       ?OnBuy@KUiTradeConfirm@@AAEXXZ 0046a0c7 f   UiTradeConfirmWnd.obj
 0001:0006910b       ?UpdateNumber@KUiTradeConfirm@@AAEXXZ 0046a10b f   UiTradeConfirmWnd.obj
 0001:000692ec       ?OnSale@KUiTradeConfirm@@AAEXXZ 0046a2ec f   UiTradeConfirmWnd.obj
 0001:00069328       ?OnRepair@KUiTradeConfirm@@AAEXXZ 0046a328 f   UiTradeConfirmWnd.obj
 0001:00069364       ?OnCancel@KUiTradeConfirm@@AAEXXZ 0046a364 f   UiTradeConfirmWnd.obj
 0001:00069380       ??_EKUiTradeConfirm@@EAEPAXI@Z 0046a380 f i UiTradeConfirmWnd.obj
 0001:00069380       ??_GKUiTradeConfirm@@EAEPAXI@Z 0046a380 f i UiTradeConfirmWnd.obj
 0001:000693b0       ??1KUiTradeConfirm@@EAE@XZ 0046a3b0 f i UiTradeConfirmWnd.obj
 0001:000694ef       ?WndProc@KUiGameSpace@@UAEHIIH@Z 0046a4ef f   UiGame.obj
 0001:00069935       ?PaintWindow@KUiGameSpace@@UAEXXZ 0046a935 f   UiGame.obj
 0001:00069950       ?OnMouseMoveCursor@KUiGameSpace@@QAEXHH@Z 0046a950 f   UiGame.obj
 0001:00069a67       ?OnMouseMoveCursorShop@KUiGameSpace@@QAEXHH@Z 0046aa67 f   UiGame.obj
 0001:00069b9d       ?ProcessPeople@@YAXPAUKUiPlayerItem@@H@Z 0046ab9d f   UiGame.obj
 0001:00069df2       ?ProcessEmote@@YAXPAD0H@Z  0046adf2 f   UiGame.obj
 0001:00069f97       ?PopUpContextPeopleMenu@@YAXABUKUiPlayerItem@@HH@Z 0046af97 f   UiGame.obj
 0001:0006a203       ?PopUpContextEmoteMenu@@YAXPADHH@Z 0046b203 f   UiGame.obj
 0001:0006a3f0       ??1KUiGameSpace@@UAE@XZ    0046b3f0 f i UiGame.obj
 0001:0006a410       ??0KUiGameSpace@@QAE@XZ    0046b410 f i UiGame.obj
 0001:0006a430       ??_EKUiGameSpace@@UAEPAXI@Z 0046b430 f i UiGame.obj
 0001:0006a430       ??_GKUiGameSpace@@UAEPAXI@Z 0046b430 f i UiGame.obj
 0001:0006a460       ??0KUiSysMsgCentre@@AAE@XZ 0046b460 f   UiSysMsgCentre.obj
 0001:0006a5b1       ??1KUiSysMsgCentre@@EAE@XZ 0046b5b1 f   UiSysMsgCentre.obj
 0001:0006a633       ?OpenWindow@KUiSysMsgCentre@@SAPAV1@XZ 0046b633 f   UiSysMsgCentre.obj
 0001:0006a6df       ?Initialize@KUiSysMsgCentre@@AAEXXZ 0046b6df f   UiSysMsgCentre.obj
 0001:0006a808       ?CloseWindow@KUiSysMsgCentre@@SAXXZ 0046b808 f   UiSysMsgCentre.obj
 0001:0006a836       ?LoadScheme@KUiSysMsgCentre@@SAXPBD@Z 0046b836 f   UiSysMsgCentre.obj
 0001:0006a8d8       ?LoadScheme@KUiSysMsgCentre@@AAEXPAVKIniFile@@@Z 0046b8d8 f   UiSysMsgCentre.obj
 0001:0006ab37       ?WndProc@KUiSysMsgCentre@@EAEHIIH@Z 0046bb37 f   UiSysMsgCentre.obj
 0001:0006ad82       ?OnConfirmOperFinished@KUiSysMsgCentre@@AAEXIH@Z 0046bd82 f   UiSysMsgCentre.obj
 0001:0006aff9       ?PtInWindow@KUiSysMsgCentre@@EAEHHH@Z 0046bff9 f   UiSysMsgCentre.obj
 0001:0006b085       ?Breathe@KUiSysMsgCentre@@EAEXXZ 0046c085 f   UiSysMsgCentre.obj
 0001:0006b1bf       ?AMessageArrival@KUiSysMsgCentre@@SA_NPAUKSystemMessage@@PAX@Z 0046c1bf f   UiSysMsgCentre.obj
 0001:0006b350       ?FilterSameMsg@KUiSysMsgCentre@@AAE_NPAUKSystemMessage@@PAX@Z 0046c350 f   UiSysMsgCentre.obj
 0001:0006b59e       ?Clear@KUiSysMsgCentre@@AAEXXZ 0046c59e f   UiSysMsgCentre.obj
 0001:0006b66c       ?GetAMsgSpace@KUiSysMsgCentre@@AAEPAUKSystemMessage@@H@Z 0046c66c f   UiSysMsgCentre.obj
 0001:0006b779       ?SetPopupMsgDest@KUiSysMsgCentre@@AAEXXZ 0046c779 f   UiSysMsgCentre.obj
 0001:0006b89a       ?ConfirmMsg@KUiSysMsgCentre@@AAEXPAUKSystemMessage@@_N@Z 0046c89a f   UiSysMsgCentre.obj
 0001:0006bc59       ?DeleteMsgInHeap@KUiSysMsgCentre@@AAEXHH_N0@Z 0046cc59 f   UiSysMsgCentre.obj
 0001:0006be05       ?MovePopupedMsgToHeap@KUiSysMsgCentre@@AAEXXZ 0046ce05 f   UiSysMsgCentre.obj
 0001:0006bee0       ?AddAMsgToHeap@KUiSysMsgCentre@@AAE_NPAUKSystemMessage@@H_N@Z 0046cee0 f   UiSysMsgCentre.obj
 0001:0006c003       ?PaintWindow@KUiSysMsgCentre@@EAEXXZ 0046d003 f   UiSysMsgCentre.obj
 0001:0006c490       ??_GKUiSysMsgCentre@@EAEPAXI@Z 0046d490 f i UiSysMsgCentre.obj
 0001:0006c490       ??_EKUiSysMsgCentre@@EAEPAXI@Z 0046d490 f i UiSysMsgCentre.obj
 0001:0006c4c0       ?GetIfVisible@KUiFindPos@@SAPAV1@XZ 0046d4c0 f   UiFindPos.obj
 0001:0006c4e6       ?OpenWindow@KUiFindPos@@SAPAV1@XZ 0046d4e6 f   UiFindPos.obj
 0001:0006c5bc       ?CloseWindow@KUiFindPos@@SAXXZ 0046d5bc f   UiFindPos.obj
 0001:0006c5e9       ?SetPositionOpen@KUiFindPos@@SAXHH@Z 0046d5e9 f   UiFindPos.obj
 0001:0006c60a       ?Initialize@KUiFindPos@@AAEXXZ 0046d60a f   UiFindPos.obj
 0001:0006c6e1       ?LoadScheme@KUiFindPos@@SAXPBD@Z 0046d6e1 f   UiFindPos.obj
 0001:0006c8c4       ?OnOK@KUiFindPos@@AAEXXZ   0046d8c4 f   UiFindPos.obj
 0001:0006c92c       ?WndProc@KUiFindPos@@EAEHIIH@Z 0046d92c f   UiFindPos.obj
 0001:0006ca3f       ?OnCheckInput@KUiFindPos@@AAEXXZ 0046da3f f   UiFindPos.obj
 0001:0006cb6d       ?UpdateData1@KUiFindPos@@AAEXXZ 0046db6d f   UiFindPos.obj
 0001:0006cb8d       ?Breathe@KUiFindPos@@EAEXXZ 0046db8d f   UiFindPos.obj
 0001:0006cbb0       ??0KUiFindPos@@AAE@XZ      0046dbb0 f i UiFindPos.obj
 0001:0006cc70       ??_EKUiFindPos@@EAEPAXI@Z  0046dc70 f i UiFindPos.obj
 0001:0006cc70       ??_GKUiFindPos@@EAEPAXI@Z  0046dc70 f i UiFindPos.obj
 0001:0006cca0       ??1KUiFindPos@@EAE@XZ      0046dca0 f i UiFindPos.obj
 0001:0006cd60       ?OpenWindow@KUiMapCave@@SAPAV1@XZ 0046dd60 f   UiMapCave.obj
 0001:0006ce40       ?CloseWindow@KUiMapCave@@SAXXZ 0046de40 f   UiMapCave.obj
 0001:0006ce76       ?GetIfVisible@KUiMapCave@@SAPAV1@XZ 0046de76 f   UiMapCave.obj
 0001:0006ce9c       ?Initialize@KUiMapCave@@AAEXXZ 0046de9c f   UiMapCave.obj
 0001:0006cfa1       ?WndProc@KUiMapCave@@EAEHIIH@Z 0046dfa1 f   UiMapCave.obj
 0001:0006d002       ?UpdateData@KUiMapCave@@EAEXXZ 0046e002 f   UiMapCave.obj
 0001:0006d1c1       ?Breathe@KUiMapCave@@EAEXXZ 0046e1c1 f   UiMapCave.obj
 0001:0006d1f0       ??0KUiMapCave@@AAE@XZ      0046e1f0 f i UiMapCave.obj
 0001:0006d250       ??_EKUiMapCave@@EAEPAXI@Z  0046e250 f i UiMapCave.obj
 0001:0006d250       ??_GKUiMapCave@@EAEPAXI@Z  0046e250 f i UiMapCave.obj
 0001:0006d280       ??1KUiMapCave@@EAE@XZ      0046e280 f i UiMapCave.obj
 0001:0006d2e0       ??0KUiMarket@@AAE@XZ       0046e2e0 f   UiMarket.obj
 0001:0006d3bb       ?GetIfVisible@KUiMarket@@SAPAV1@XZ 0046e3bb f   UiMarket.obj
 0001:0006d3c5       ?OpenWindow@KUiMarket@@SAPAV1@XZ 0046e3c5 f   UiMarket.obj
 0001:0006d4bd       ?CloseWindow@KUiMarket@@SAXXZ 0046e4bd f   UiMarket.obj
 0001:0006d500       ?Initialize@KUiMarket@@AAEXXZ 0046e500 f   UiMarket.obj
 0001:0006d5d7       ?LoadScheme@KUiMarket@@SAXPBD@Z 0046e5d7 f   UiMarket.obj
 0001:0006d77e       ?CancelTrade@KUiMarket@@SAXXZ 0046e77e f   UiMarket.obj
 0001:0006d788       ?WndProc@KUiMarket@@UAEHIIH@Z 0046e788 f   UiMarket.obj
 0001:0006d879       ?OnBuyItem@KUiMarket@@AAEXPAUKUiDraggedObject@@_N@Z 0046e879 f   UiMarket.obj
 0001:0006d93e       ?OnClickButton@KUiMarket@@AAEXPAVKWndButton@@H@Z 0046e93e f   UiMarket.obj
 0001:0006d9ea       ?SetPage@KUiMarket@@AAEXH@Z 0046e9ea f   UiMarket.obj
 0001:0006da97       ?UpdateData@KUiMarket@@UAEXXZ 0046ea97 f   UiMarket.obj
 0001:0006dbbb       ?Clear@KUiMarket@@AAEXXZ   0046ebbb f   UiMarket.obj
 0001:0006dc10       ??_GKUiMarket@@EAEPAXI@Z   0046ec10 f i UiMarket.obj
 0001:0006dc10       ??_EKUiMarket@@EAEPAXI@Z   0046ec10 f i UiMarket.obj
 0001:0006dc40       ??1KUiMarket@@EAE@XZ       0046ec40 f i UiMarket.obj
 0001:0006dd00       ??0KUiMiniMap@@AAE@XZ      0046ed00 f   UiMiniMap.obj
 0001:0006de16       ?OpenWindow@KUiMiniMap@@SAPAV1@XZ 0046ee16 f   UiMiniMap.obj
 0001:0006ded7       ?GetIfVisible@KUiMiniMap@@SAPAV1@XZ 0046eed7 f   UiMiniMap.obj
 0001:0006defd       ?Initialize@KUiMiniMap@@AAEXXZ 0046eefd f   UiMiniMap.obj
 0001:0006e064       ?CloseWindow@KUiMiniMap@@SAXXZ 0046f064 f   UiMiniMap.obj
 0001:0006e0bc       ?LoadScheme@KUiMiniMap@@SAXPBD@Z 0046f0bc f   UiMiniMap.obj
 0001:0006e183       ?LoadScheme@KUiMiniMap@@AAEXPAVKIniFile@@@Z 0046f183 f   UiMiniMap.obj
 0001:0006e397       ?WndProc@KUiMiniMap@@EAEHIIH@Z 0046f397 f   UiMiniMap.obj
 0001:0006e826       ?StopScrollMap@KUiMiniMap@@AAEXXZ 0046f826 f   UiMiniMap.obj
 0001:0006e85d       ?MapMoveBack@KUiMiniMap@@AAEXXZ 0046f85d f   UiMiniMap.obj
 0001:0006e8c4       ?PaintWindow@KUiMiniMap@@EAEXXZ 0046f8c4 f   UiMiniMap.obj
 0001:0006eabc       ?Breathe@KUiMiniMap@@EAEXXZ 0046fabc f   UiMiniMap.obj
 0001:0006eb7b       ?StopAndMapMoveBack@KUiMiniMap@@SAXXZ 0046fb7b f   UiMiniMap.obj
 0001:0006eb9f       ?GetUpdateSceneTimeInfo@KUiMiniMap@@SAXPAUKUiSceneTimeInfo@@@Z 0046fb9f f   UiMiniMap.obj
 0001:0006ec59       ?UpdateSceneTimeInfo@KUiMiniMap@@SAXPAUKUiSceneTimeInfo@@@Z 0046fc59 f   UiMiniMap.obj
 0001:0006ee88       ?Show@KUiMiniMap@@UAEXXZ   0046fe88 f   UiMiniMap.obj
 0001:0006eed6       ?Hide@KUiMiniMap@@UAEXXZ   0046fed6 f   UiMiniMap.obj
 0001:0006ef08       ?MapScroll@KUiMiniMap@@AAEXH@Z 0046ff08 f   UiMiniMap.obj
 0001:0006eff6       ?maptoggle@@YAXXZ          0046fff6 f   UiMiniMap.obj
 0001:0006effb       ?MapToggleStatus@@YAXXZ    0046fffb f   UiMiniMap.obj
 0001:0006f083       ?MapSetMode@@YAXW4MINIMAP_MODE@@@Z 00470083 f   UiMiniMap.obj
 0001:0006f180       ??_EKUiMiniMap@@EAEPAXI@Z  00470180 f i UiMiniMap.obj
 0001:0006f180       ??_GKUiMiniMap@@EAEPAXI@Z  00470180 f i UiMiniMap.obj
 0001:0006f1b0       ??1KUiMiniMap@@EAE@XZ      004701b0 f i UiMiniMap.obj
 0001:0006f2b0       ?GetColor@KUiSelColor@@SAIH@Z 004702b0 f   UiSelColor.obj
 0001:0006f2e2       ?LoadScheme@KUiSelColor@@SAXPBD@Z 004702e2 f   UiSelColor.obj
 0001:0006f514       ?PopupMenu@KUiSelColor@@SAXPAVKWndWindow@@IHHH@Z 00470514 f   UiSelColor.obj
 0001:0006f55c       ?CancelMenu@KUiSelColor@@SAXXZ 0047055c f   UiSelColor.obj
 0001:0006f570       ??0KUiNewPlayerStartMsg@@AAE@XZ 00470570 f   UiNewPlayerStartMsg.obj
 0001:0006f612       ??1KUiNewPlayerStartMsg@@EAE@XZ 00470612 f   UiNewPlayerStartMsg.obj
 0001:0006f6b1       ?OpenWindow@KUiNewPlayerStartMsg@@SAPAV1@XZ 004706b1 f   UiNewPlayerStartMsg.obj
 0001:0006f763       ?CloseWindow@KUiNewPlayerStartMsg@@SAX_N@Z 00470763 f   UiNewPlayerStartMsg.obj
 0001:0006f7b4       ?Initialize@KUiNewPlayerStartMsg@@AAEXXZ 004707b4 f   UiNewPlayerStartMsg.obj
 0001:0006f8c2       ?LoadList@KUiNewPlayerStartMsg@@AAEXXZ 004708c2 f   UiNewPlayerStartMsg.obj
 0001:0006f972       ?LoadScheme@KUiNewPlayerStartMsg@@AAEXPBD@Z 00470972 f   UiNewPlayerStartMsg.obj
 0001:0006fadf       ?WndProc@KUiNewPlayerStartMsg@@EAEHIIH@Z 00470adf f   UiNewPlayerStartMsg.obj
 0001:0006fb48       ?OnKeyDown@KUiNewPlayerStartMsg@@AAEHI@Z 00470b48 f   UiNewPlayerStartMsg.obj
 0001:0006fb86       ?OnClickButton@KUiNewPlayerStartMsg@@AAEXPAVKWndButton@@@Z 00470b86 f   UiNewPlayerStartMsg.obj
 0001:0006fc5f       ?OnOk@KUiNewPlayerStartMsg@@AAEXXZ 00470c5f f   UiNewPlayerStartMsg.obj
 0001:0006fc80       ??_GKUiNewPlayerStartMsg@@EAEPAXI@Z 00470c80 f i UiNewPlayerStartMsg.obj
 0001:0006fc80       ??_EKUiNewPlayerStartMsg@@EAEPAXI@Z 00470c80 f i UiNewPlayerStartMsg.obj
 0001:0006fcb0       ??0KUiPlayVideo@@QAE@XZ    00470cb0 f   UiPlayVideo.obj
 0001:0006fdad       ?OpenWindow@KUiPlayVideo@@SAPAV1@XZ 00470dad f   UiPlayVideo.obj
 0001:0006fe59       ?WndProc@KUiPlayVideo@@EAEHIIH@Z 00470e59 f   UiPlayVideo.obj
 0001:0006fef7       ?CloseWindow@KUiPlayVideo@@SAX_N@Z 00470ef7 f   UiPlayVideo.obj
 0001:0006ff51       ?LoadScheme@KUiPlayVideo@@SAXPBD0@Z 00470f51 f   UiPlayVideo.obj
 0001:0006ffed       ?Initialize@KUiPlayVideo@@AAEHXZ 00470fed f   UiPlayVideo.obj
 0001:0007019c       ?Terminate@KUiPlayVideo@@AAEXXZ 0047119c f   UiPlayVideo.obj
 0001:000701d8       ?OpenVideo@KUiPlayVideo@@QAEHPBD@Z 004711d8 f   UiPlayVideo.obj
 0001:00070432       ?CloseVideo@KUiPlayVideo@@QAEX_N@Z 00471432 f   UiPlayVideo.obj
 0001:000704cf       ?Breathe@KUiPlayVideo@@EAEXXZ 004714cf f   UiPlayVideo.obj
 0001:0007059c       ?PaintWindow@KUiPlayVideo@@EAEXXZ 0047159c f   UiPlayVideo.obj
 0001:0007086e       ?OnPlayFinished@KUiPlayVideo@@AAEXXZ 0047186e f   UiPlayVideo.obj
 0001:000708c9       ?SetPosition@KUiPlayVideo@@QAEXHH@Z 004718c9 f   UiPlayVideo.obj
 0001:000708e6       ?SetSize@KUiPlayVideo@@UAEXHH@Z 004718e6 f   UiPlayVideo.obj
 0001:0007090c       ?Setting@KUiPlayVideo@@QAEX_N0PAVKWndWindow@@I@Z 0047190c f   UiPlayVideo.obj
 0001:00070940       ??_GKUiPlayVideo@@EAEPAXI@Z 00471940 f i UiPlayVideo.obj
 0001:00070940       ??_EKUiPlayVideo@@EAEPAXI@Z 00471940 f i UiPlayVideo.obj
 0001:00070970       ??1KUiPlayVideo@@EAE@XZ    00471970 f i UiPlayVideo.obj
 0001:00070990       ??0KUiHelper@@AAE@XZ       00471990 f   UiHelper.obj
 0001:000709af       ??1KUiHelper@@EAE@XZ       004719af f   UiHelper.obj
 0001:000709cb       ?OpenWindow@KUiHelper@@SAPAV1@_N@Z 004719cb f   UiHelper.obj
 0001:00070aa0       ?CloseWindow@KUiHelper@@SAX_N@Z 00471aa0 f   UiHelper.obj
 0001:00070adf       ?GetIfVisible@KUiHelper@@SAPAV1@XZ 00471adf f   UiHelper.obj
 0001:00070b05       ?Initialize@KUiHelper@@AAEXXZ 00471b05 f   UiHelper.obj
 0001:00070b51       ?WndProc@KUiHelper@@EAEHIIH@Z 00471b51 f   UiHelper.obj
 0001:00070bc6       ?LoadScheme@KUiHelper@@QAEXPBD@Z 00471bc6 f   UiHelper.obj
 0001:00070d20       ?Show@KUiHelper@@EAEXXZ    00471d20 f   UiHelper.obj
 0001:00070dcc       ?SelectInterfacePic@KUiHelper@@SAXXZ 00471dcc f   UiHelper.obj
 0001:00070e14       ?SelectKeyboardPic@KUiHelper@@SAXXZ 00471e14 f   UiHelper.obj
 0001:00070e5c       ?SelectWuxingPic@KUiHelper@@SAXXZ 00471e5c f   UiHelper.obj
 0001:00070eb0       ?Breathe@KUiHelper@@EAEXXZ 00471eb0 f i UiHelper.obj
 0001:00070ed0       ??_EKUiHelper@@EAEPAXI@Z   00471ed0 f i UiHelper.obj
 0001:00070ed0       ??_GKUiHelper@@EAEPAXI@Z   00471ed0 f i UiHelper.obj
 0001:00070f00       ?GetIfVisible@KUiHelper2@@SAPAV1@XZ 00471f00 f   UiHelper2.obj
 0001:00070f26       ??0KUiHelper2@@AAE@XZ      00471f26 f   UiHelper2.obj
 0001:0007100b       ??1KUiHelper2@@EAE@XZ      0047200b f   UiHelper2.obj
 0001:000710ec       ?OpenWindow@KUiHelper2@@SAPAV1@_N@Z 004720ec f   UiHelper2.obj
 0001:000711ad       ?Initialize@KUiHelper2@@AAEXXZ 004721ad f   UiHelper2.obj
 0001:000712ee       ?CloseWindow@KUiHelper2@@SAX_N@Z 004722ee f   UiHelper2.obj
 0001:0007132d       ?LoadScheme@KUiHelper2@@SAXPBD@Z 0047232d f   UiHelper2.obj
 0001:00071529       ?WndProc@KUiHelper2@@EAEHIIH@Z 00472529 f   UiHelper2.obj
 0001:0007178a       ?Clear@KUiHelper2@@AAEXXZ  0047278a f   UiHelper2.obj
 0001:000717b8       ?LoadIndexList@KUiHelper2@@AAEXPBD@Z 004727b8 f   UiHelper2.obj
 0001:00071a5b       ?UpdateData@KUiHelper2@@AAEXH@Z 00472a5b f   UiHelper2.obj
 0001:00071ba0       ??_GKUiHelper2@@EAEPAXI@Z  00472ba0 f i UiHelper2.obj
 0001:00071ba0       ??_EKUiHelper2@@EAEPAXI@Z  00472ba0 f i UiHelper2.obj
 0001:00071bd0       ?LaunchReconnect@KReconnectWnd@@SA_NH@Z 00472bd0 f   UiReconnect.obj
 0001:00071cad       ?IsReconnecttingGoingOn@KReconnectWnd@@SA_NXZ 00472cad f   UiReconnect.obj
 0001:00071cbe       ?FirstReconnect@KReconnectWnd@@AAEXXZ 00472cbe f   UiReconnect.obj
 0001:00071d4c       ?StartReconnect@KReconnectWnd@@AAE_NXZ 00472d4c f   UiReconnect.obj
 0001:00071dd0       ?Exit@KReconnectWnd@@SAX_N@Z 00472dd0 f   UiReconnect.obj
 0001:00071e1a       ?Breathe@KReconnectWnd@@EAEXXZ 00472e1a f   UiReconnect.obj
 0001:00072158       ?WndProc@KReconnectWnd@@EAEHIIH@Z 00473158 f   UiReconnect.obj
 0001:000721a0       ??0KReconnectWnd@@AAE@XZ   004731a0 f i UiReconnect.obj
 0001:000721c0       ??_EKReconnectWnd@@EAEPAXI@Z 004731c0 f i UiReconnect.obj
 0001:000721c0       ??_GKReconnectWnd@@EAEPAXI@Z 004731c0 f i UiReconnect.obj
 0001:000721f0       ??1KReconnectWnd@@EAE@XZ   004731f0 f i UiReconnect.obj
 0001:00072210       ?LoadData@KTaskDataFile@@SAXXZ 00473210 f   UiTaskDataFile.obj
 0001:0007254e       ?SaveData@KTaskDataFile@@SA_NXZ 0047354e f   UiTaskDataFile.obj
 0001:00072829       ?GetFileName@KTaskDataFile@@CAXPADH@Z 00473829 f   UiTaskDataFile.obj
 0001:00072857       ?ClearAll@KTaskDataFile@@SAXXZ 00473857 f   UiTaskDataFile.obj
 0001:000728d8       ?GetPersonalRecord@KTaskDataFile@@SAHPADH@Z 004738d8 f   UiTaskDataFile.obj
 0001:00072933       ?SetPersonalRecord@KTaskDataFile@@SA_NPBDH@Z 00473933 f   UiTaskDataFile.obj
 0001:000729b6       ?RemoveSystemRecord@KTaskDataFile@@SA_NH@Z 004739b6 f   UiTaskDataFile.obj
 0001:00072a52       ?GetSystemRecordCount@KTaskDataFile@@SAHXZ 00473a52 f   UiTaskDataFile.obj
 0001:00072a5c       ?GetSystemRecord@KTaskDataFile@@SAPBUTASK_SYSTEM_RECORD@@H@Z 00473a5c f   UiTaskDataFile.obj
 0001:00072aac       ?InsertSystemRecord@KTaskDataFile@@SA_NPAUTASK_SYSTEM_RECORD@@@Z 00473aac f   UiTaskDataFile.obj
 0001:00072b4e       ?AppendSystemRecord@KTaskDataFile@@CAXPAUKTaskSystemRecordNode@1@@Z 00473b4e f   UiTaskDataFile.obj
 0001:00072ba1       ?InsertSystemRecord@KTaskDataFile@@CAXPAUKTaskSystemRecordNode@1@@Z 00473ba1 f   UiTaskDataFile.obj
 0001:00072bcd       ?RemoveBindRecord@KTaskDataFile@@SA_NH@Z 00473bcd f   UiTaskDataFile.obj
 0001:00072c69       ?GetBindRecordCount@KTaskDataFile@@SAHXZ 00473c69 f   UiTaskDataFile.obj
 0001:00072c73       ?GetBindRecord@KTaskDataFile@@SAPBUTASK_BIND_RECORD@@H@Z 00473c73 f   UiTaskDataFile.obj
 0001:00072cc3       ?InsertBindRecord@KTaskDataFile@@SA_NPAUTASK_BIND_RECORD@@@Z 00473cc3 f   UiTaskDataFile.obj
 0001:00072d65       ?AppendBindRecord@KTaskDataFile@@CAXPAUKTaskBindRecordNode@1@@Z 00473d65 f   UiTaskDataFile.obj
 0001:00072db8       ?InsertBindRecord@KTaskDataFile@@CAXPAUKTaskBindRecordNode@1@@Z 00473db8 f   UiTaskDataFile.obj
 0001:00072df0       ??0KTaskEdit@@QAE@XZ       00473df0 f   UiTaskNote.obj
 0001:00072e66       ?Initialize@KUiTaskNote_Personal@@QAEXXZ 00473e66 f   UiTaskNote.obj
 0001:00072ea6       ?LoadScheme@KUiTaskNote_Personal@@QAEXPBD@Z 00473ea6 f   UiTaskNote.obj
 0001:00072fc5       ?UpdateView@KUiTaskNote_Personal@@QAEXXZ 00473fc5 f   UiTaskNote.obj
 0001:0007301d       ?UpdateData@KUiTaskNote_Personal@@UAEXXZ 0047401d f   UiTaskNote.obj
 0001:00073030       ?WndProc@KUiTaskNote_Personal@@EAEHIIH@Z 00474030 f   UiTaskNote.obj
 0001:00073087       ?Show@KUiTaskNote_Personal@@UAEXXZ 00474087 f   UiTaskNote.obj
 0001:000730ab       ?Hide@KUiTaskNote_Personal@@UAEXXZ 004740ab f   UiTaskNote.obj
 0001:000730c8       ?OnSave@KUiTaskNote_Personal@@AAEXXZ 004740c8 f   UiTaskNote.obj
 0001:00073110       ?Initialize@KUiTaskNote_System@@QAEXXZ 00474110 f   UiTaskNote.obj
 0001:0007313e       ?LoadScheme@KUiTaskNote_System@@QAEXPBD@Z 0047413e f   UiTaskNote.obj
 0001:00073232       ?WndProc@KUiTaskNote_System@@EAEHIIH@Z 00474232 f   UiTaskNote.obj
 0001:000732e6       ?OnDelete@KUiTaskNote_System@@AAEXH@Z 004742e6 f   UiTaskNote.obj
 0001:0007335d       ?UpdateView@KUiTaskNote_System@@QAEXXZ 0047435d f   UiTaskNote.obj
 0001:00073408       ?Initialize@KUiTaskNote_Event@@QAEXXZ 00474408 f   UiTaskNote.obj
 0001:00073413       ?LoadScheme@KUiTaskNote_Event@@QAEXPBD@Z 00474413 f   UiTaskNote.obj
 0001:000734b9       ?WndProc@KUiTaskNote_Event@@EAEHIIH@Z 004744b9 f   UiTaskNote.obj
 0001:00073507       ?Initialize@KUiTaskNote_Bind@@QAEXXZ 00474507 f   UiTaskNote.obj
 0001:00073535       ?LoadScheme@KUiTaskNote_Bind@@QAEXPBD@Z 00474535 f   UiTaskNote.obj
 0001:00073629       ?WndProc@KUiTaskNote_Bind@@EAEHIIH@Z 00474629 f   UiTaskNote.obj
 0001:000736dd       ?OnDelete@KUiTaskNote_Bind@@AAEXH@Z 004746dd f   UiTaskNote.obj
 0001:00073754       ?UpdateView@KUiTaskNote_Bind@@QAEXXZ 00474754 f   UiTaskNote.obj
 0001:000737ff       ??0KUiTaskNote@@AAE@XZ     004747ff f   UiTaskNote.obj
 0001:000738e9       ??1KUiTaskNote@@EAE@XZ     004748e9 f   UiTaskNote.obj
 0001:000739d0       ?OpenWindow@KUiTaskNote@@SAPAV1@XZ 004749d0 f   UiTaskNote.obj
 0001:00073a9c       ?CloseWindow@KUiTaskNote@@SAX_N@Z 00474a9c f   UiTaskNote.obj
 0001:00073aeb       ?GetIfVisible@KUiTaskNote@@SAPAV1@XZ 00474aeb f   UiTaskNote.obj
 0001:00073b11       ?InitData@KUiTaskNote@@AAEXXZ 00474b11 f   UiTaskNote.obj
 0001:00073b4b       ?SaveData@KUiTaskNote@@AAEXXZ 00474b4b f   UiTaskNote.obj
 0001:00073b70       ?LoadScheme@KUiTaskNote@@SAXPBD@Z 00474b70 f   UiTaskNote.obj
 0001:00073d3c       ?Initialize@KUiTaskNote@@AAEXXZ 00474d3c f   UiTaskNote.obj
 0001:00073e72       ?WndProc@KUiTaskNote@@EAEHIIH@Z 00474e72 f   UiTaskNote.obj
 0001:00073f05       ?OnClose@KUiTaskNote@@AAEXXZ 00474f05 f   UiTaskNote.obj
 0001:00073f1a       ?WakeUp@KUiTaskNote@@SAXEPBDHI@Z 00474f1a f   UiTaskNote.obj
 0001:00074030       ??_GKTaskEdit@@UAEPAXI@Z   00475030 f i UiTaskNote.obj
 0001:00074030       ??_EKTaskEdit@@UAEPAXI@Z   00475030 f i UiTaskNote.obj
 0001:00074060       ??1KTaskEdit@@UAE@XZ       00475060 f i UiTaskNote.obj
 0001:00074080       ??_GKUiTaskNote@@EAEPAXI@Z 00475080 f i UiTaskNote.obj
 0001:00074080       ??_EKUiTaskNote@@EAEPAXI@Z 00475080 f i UiTaskNote.obj
 0001:000740b0       ??0KUiTaskNote_System@@QAE@XZ 004750b0 f i UiTaskNote.obj
 0001:00074120       ??1KUiTaskNote_System@@UAE@XZ 00475120 f i UiTaskNote.obj
 0001:00074180       ??0KUiTaskNote_Personal@@QAE@XZ 00475180 f i UiTaskNote.obj
 0001:00074200       ??1KUiTaskNote_Personal@@UAE@XZ 00475200 f i UiTaskNote.obj
 0001:00074280       ??0KUiTaskNote_Event@@QAE@XZ 00475280 f i UiTaskNote.obj
 0001:000742a0       ??1KUiTaskNote_Event@@UAE@XZ 004752a0 f i UiTaskNote.obj
 0001:000742c0       ??0KUiTaskNote_Bind@@QAE@XZ 004752c0 f i UiTaskNote.obj
 0001:00074330       ??1KUiTaskNote_Bind@@UAE@XZ 00475330 f i UiTaskNote.obj
 0001:00074390       ??_GKUiTaskNote_System@@UAEPAXI@Z 00475390 f i UiTaskNote.obj
 0001:00074390       ??_EKUiTaskNote_System@@UAEPAXI@Z 00475390 f i UiTaskNote.obj
 0001:000743c0       ??_EKUiTaskNote_Personal@@UAEPAXI@Z 004753c0 f i UiTaskNote.obj
 0001:000743c0       ??_GKUiTaskNote_Personal@@UAEPAXI@Z 004753c0 f i UiTaskNote.obj
 0001:000743f0       ??_EKUiTaskNote_Event@@UAEPAXI@Z 004753f0 f i UiTaskNote.obj
 0001:000743f0       ??_GKUiTaskNote_Event@@UAEPAXI@Z 004753f0 f i UiTaskNote.obj
 0001:00074420       ??_EKUiTaskNote_Bind@@UAEPAXI@Z 00475420 f i UiTaskNote.obj
 0001:00074420       ??_GKUiTaskNote_Bind@@UAEPAXI@Z 00475420 f i UiTaskNote.obj
 0001:00074450       ?OpenWindow@KUiWorldmap@@SAPAV1@XZ 00475450 f   UiWorldMap.obj
 0001:00074530       ?CloseWindow@KUiWorldmap@@SAXXZ 00475530 f   UiWorldMap.obj
 0001:000746ff       ?GetIfVisible@KUiWorldmap@@SAPAV1@XZ 004756ff f   UiWorldMap.obj
 0001:00074725       ?Initialize@KUiWorldmap@@AAEXXZ 00475725 f   UiWorldMap.obj
 0001:00074e5d       ?WndProc@KUiWorldmap@@EAEHIIH@Z 00475e5d f   UiWorldMap.obj
 0001:00074ebe       ?UpdateData@KUiWorldmap@@EAEXXZ 00475ebe f   UiWorldMap.obj
 0001:00075682       ?Breathe@KUiWorldmap@@EAEXXZ 00476682 f   UiWorldMap.obj
 0001:000757b0       ??0KUiWorldmap@@AAE@XZ     004767b0 f i UiWorldMap.obj
 0001:00075910       ??_GKUiWorldmap@@EAEPAXI@Z 00476910 f i UiWorldMap.obj
 0001:00075910       ??_EKUiWorldmap@@EAEPAXI@Z 00476910 f i UiWorldMap.obj
 0001:00075940       ??1KUiWorldmap@@EAE@XZ     00476940 f i UiWorldMap.obj
 0001:00075aa0       ??0KUiNewsMessage@@AAE@XZ  00476aa0 f   UiNewsMessage.obj
 0001:00075b60       ?EnableIdleMsg@KUiNewsMessage@@SAXH@Z 00476b60 f   UiNewsMessage.obj
 0001:00075bcf       ?AddMessage@KUiNewsMessage@@AAE_NPAUKNewsMessage@@II@Z 00476bcf f   UiNewsMessage.obj
 0001:00075c4c       ?SeparateMsg@KUiNewsMessage@@AAEPAUKNewsMessageNode@@XZ 00476c4c f   UiNewsMessage.obj
 0001:00075ced       ?AddToTail@KUiNewsMessage@@AAEXPAUKNewsMessageNode@@@Z 00476ced f   UiNewsMessage.obj
 0001:00075d45       ?Clear@KUiNewsMessage@@AAEXXZ 00476d45 f   UiNewsMessage.obj
 0001:00075d95       ?OpenWindow@KUiNewsMessage@@SAPAV1@XZ 00476d95 f   UiNewsMessage.obj
 0001:00075e5c       ?GetIfVisible@KUiNewsMessage@@SAPAV1@XZ 00476e5c f   UiNewsMessage.obj
 0001:00075e82       ?CloseWindow@KUiNewsMessage@@SAXH@Z 00476e82 f   UiNewsMessage.obj
 0001:00075ec8       ?Initialize@KUiNewsMessage@@AAEXXZ 00476ec8 f   UiNewsMessage.obj
 0001:00075f28       ?LoadScheme@KUiNewsMessage@@SAXPBD@Z 00476f28 f   UiNewsMessage.obj
 0001:00076201       ?PtInWindow@KUiNewsMessage@@EAEHHH@Z 00477201 f   UiNewsMessage.obj
 0001:00076210       ?MessageArrival@KUiNewsMessage@@SAXPAUKNewsMessage@@PAU_SYSTEMTIME@@@Z 00477210 f   UiNewsMessage.obj
 0001:000763c2       ?PaintWindow@KUiNewsMessage@@EAEXXZ 004773c2 f   UiNewsMessage.obj
 0001:00076661       ?PickAMessage@KUiNewsMessage@@AAE_NXZ 00477661 f   UiNewsMessage.obj
 0001:0007680c       ?PickFromIni@KUiNewsMessage@@AAEXXZ 0047780c f   UiNewsMessage.obj
 0001:000768d1       ?Breathe@KUiNewsMessage@@EAEXXZ 004778d1 f   UiNewsMessage.obj
 0001:00076949       ?ConvertMsg@KUiNewsMessage@@AAEXXZ 00477949 f   UiNewsMessage.obj
 0001:00076a4e       ?MakeCountingMsg@KUiNewsMessage@@AAE_NXZ 00477a4e f   UiNewsMessage.obj
 0001:00076cde       ?Reset@KUiNewsMessage@@AAEXXZ 00477cde f   UiNewsMessage.obj
 0001:00076d61       ?ScrollMsg@KUiNewsMessage@@AAE_NXZ 00477d61 f   UiNewsMessage.obj
 0001:000770a0       ??_GKUiNewsMessage@@EAEPAXI@Z 004780a0 f i UiNewsMessage.obj
 0001:000770a0       ??_EKUiNewsMessage@@EAEPAXI@Z 004780a0 f i UiNewsMessage.obj
 0001:000770d0       ??1KUiNewsMessage@@EAE@XZ  004780d0 f i UiNewsMessage.obj
 0001:00077130       ??0KUiNewsMessage1@@AAE@XZ 00478130 f   UiNewsMessage1.obj
 0001:000771f0       ?EnableIdleMsg@KUiNewsMessage1@@SAXH@Z 004781f0 f   UiNewsMessage1.obj
 0001:0007725f       ?AddMessage@KUiNewsMessage1@@AAE_NPAUKNewsMessage1@@II@Z 0047825f f   UiNewsMessage1.obj
 0001:000772dc       ?SeparateMsg@KUiNewsMessage1@@AAEPAUKNewsMessageNode1@@XZ 004782dc f   UiNewsMessage1.obj
 0001:0007737d       ?AddToTail@KUiNewsMessage1@@AAEXPAUKNewsMessageNode1@@@Z 0047837d f   UiNewsMessage1.obj
 0001:000773d5       ?Clear@KUiNewsMessage1@@AAEXXZ 004783d5 f   UiNewsMessage1.obj
 0001:00077425       ?OpenWindow@KUiNewsMessage1@@SAPAV1@XZ 00478425 f   UiNewsMessage1.obj
 0001:000774ec       ?GetIfVisible@KUiNewsMessage1@@SAPAV1@XZ 004784ec f   UiNewsMessage1.obj
 0001:00077512       ?CloseWindow@KUiNewsMessage1@@SAXH@Z 00478512 f   UiNewsMessage1.obj
 0001:00077558       ?Initialize@KUiNewsMessage1@@AAEXXZ 00478558 f   UiNewsMessage1.obj
 0001:000775b8       ?LoadScheme@KUiNewsMessage1@@SAXPBD@Z 004785b8 f   UiNewsMessage1.obj
 0001:00077891       ?PtInWindow@KUiNewsMessage1@@EAEHHH@Z 00478891 f   UiNewsMessage1.obj
 0001:000778a0       ?MessageArrival1@KUiNewsMessage1@@SAXPAUKNewsMessage1@@PAU_SYSTEMTIME@@@Z 004788a0 f   UiNewsMessage1.obj
 0001:00077a52       ?PaintWindow@KUiNewsMessage1@@EAEXXZ 00478a52 f   UiNewsMessage1.obj
 0001:00077cf1       ?PickAMessage@KUiNewsMessage1@@AAE_NXZ 00478cf1 f   UiNewsMessage1.obj
 0001:00077e9c       ?PickFromIni@KUiNewsMessage1@@AAEXXZ 00478e9c f   UiNewsMessage1.obj
 0001:00077f61       ?Breathe@KUiNewsMessage1@@EAEXXZ 00478f61 f   UiNewsMessage1.obj
 0001:00077fd9       ?ConvertMsg@KUiNewsMessage1@@AAEXXZ 00478fd9 f   UiNewsMessage1.obj
 0001:000780de       ?MakeCountingMsg@KUiNewsMessage1@@AAE_NXZ 004790de f   UiNewsMessage1.obj
 0001:0007836e       ?Reset@KUiNewsMessage1@@AAEXXZ 0047936e f   UiNewsMessage1.obj
 0001:000783f1       ?ScrollMsg@KUiNewsMessage1@@AAE_NXZ 004793f1 f   UiNewsMessage1.obj
 0001:00078730       ??_GKUiNewsMessage1@@EAEPAXI@Z 00479730 f i UiNewsMessage1.obj
 0001:00078730       ??_EKUiNewsMessage1@@EAEPAXI@Z 00479730 f i UiNewsMessage1.obj
 0001:00078760       ??1KUiNewsMessage1@@EAE@XZ 00479760 f i UiNewsMessage1.obj
 0001:000788d6       ??0KUiStrengthRank@@QAE@XZ 004798d6 f   UiStrengthRank.obj
 0001:000789c6       ??1KUiStrengthRank@@UAE@XZ 004799c6 f   UiStrengthRank.obj
 0001:00078a98       ?GetIfVisible@KUiStrengthRank@@SAPAV1@XZ 00479a98 f   UiStrengthRank.obj
 0001:00078abe       ?OpenWindow@KUiStrengthRank@@SAPAV1@XZ 00479abe f   UiStrengthRank.obj
 0001:00078b7f       ?OpenDefaultWindow@KUiStrengthRank@@SAPAV1@H@Z 00479b7f f   UiStrengthRank.obj
 0001:00078c4b       ?ArrangeDefaultData@KUiStrengthRank@@AAEXXZ 00479c4b f   UiStrengthRank.obj
 0001:00078d83       ?Initialize@KUiStrengthRank@@AAEXXZ 00479d83 f   UiStrengthRank.obj
 0001:00078fc4       ?CloseWindow@KUiStrengthRank@@SAX_N@Z 00479fc4 f   UiStrengthRank.obj
 0001:00079019       ?Breathe@KUiStrengthRank@@EAEXXZ 0047a019 f   UiStrengthRank.obj
 0001:0007908b       ?WndProc@KUiStrengthRank@@EAEHIIH@Z 0047a08b f   UiStrengthRank.obj
 0001:0007920b       ?LoadScheme@KUiStrengthRank@@SAXPBD@Z 0047a20b f   UiStrengthRank.obj
 0001:00079492       ?ReleasePic@KUiStrengthRank@@AAEXXZ 0047a492 f   UiStrengthRank.obj
 0001:000794f0       ?ReleaseData@KUiStrengthRank@@AAEXXZ 0047a4f0 f   UiStrengthRank.obj
 0001:00079588       ?UpdateRankData@KUiStrengthRank@@AAEXH@Z 0047a588 f   UiStrengthRank.obj
 0001:00079662       ?LoadIndexIni@KUiStrengthRank@@AAEHPAVKIniFile@@@Z 0047a662 f   UiStrengthRank.obj
 0001:00079811       ?LoadRankIni@KUiStrengthRank@@AAEHPAVKIniFile@@H@Z 0047a811 f   UiStrengthRank.obj
 0001:000799e4       ?SendGetRankToCore@KUiStrengthRank@@AAEXH@Z 0047a9e4 f   UiStrengthRank.obj
 0001:00079a5a       ?ConstructIndexView@KUiStrengthRank@@AAEXXZ 0047aa5a f   UiStrengthRank.obj
 0001:00079b71       ?ConstructRankView@KUiStrengthRank@@AAEXXZ 0047ab71 f   UiStrengthRank.obj
 0001:00079fba       ?NewIndexArrive@KUiStrengthRank@@SAXIPAUKRankIndex@@@Z 0047afba f   UiStrengthRank.obj
 0001:0007a06d       ?NewRankArrive@KUiStrengthRank@@SAXIPAUKRankMessage@@@Z 0047b06d f   UiStrengthRank.obj
 0001:0007a092       ?AddIndex@KUiStrengthRank@@CAXIPAUKRankIndex@@@Z 0047b092 f   UiStrengthRank.obj
 0001:0007a1cb       ?AddRank@KUiStrengthRank@@CAXIPAUKRankMessage@@@Z 0047b1cb f   UiStrengthRank.obj
 0001:0007a29d       ?StoreTempIni@KUiStrengthRank@@CAXXZ 0047b29d f   UiStrengthRank.obj
 0001:0007a5ab       ?StoreNewDataToTempFile@KUiStrengthRank@@CAXIPAUKRankIndex@@@Z 0047b5ab f   UiStrengthRank.obj
 0001:0007a7c1       ?StoreNewDataToTempFile@KUiStrengthRank@@CAXIPAUKRankMessage@@@Z 0047b7c1 f   UiStrengthRank.obj
 0001:0007a962       ?AttachTempFile@KUiStrengthRank@@SAHXZ 0047b962 f   UiStrengthRank.obj
 0001:0007aa3d       ?RemoveTempFile@KUiStrengthRank@@SAXXZ 0047ba3d f   UiStrengthRank.obj
 0001:0007aa90       ?TDrawOutString@@YAHPADHHH@Z 0047ba90 f   UiStrengthRank.obj
 0001:0007ab40       ??_EKUiStrengthRank@@UAEPAXI@Z 0047bb40 f i UiStrengthRank.obj
 0001:0007ab40       ??_GKUiStrengthRank@@UAEPAXI@Z 0047bb40 f i UiStrengthRank.obj
 0001:0007ab70       ??0?$KLinkStruct@UKRankIndexNode@@@@QAE@XZ 0047bb70 f i UiStrengthRank.obj
 0001:0007abb0       ??1?$KLinkStruct@UKRankIndexNode@@@@UAE@XZ 0047bbb0 f i UiStrengthRank.obj
 0001:0007abd0       ?GetCount@?$KLinkStruct@UKRankIndexNode@@@@QAEHXZ 0047bbd0 f i UiStrengthRank.obj
 0001:0007abf0       ?AddItem@?$KLinkStruct@UKRankIndexNode@@@@QAEPAUKRankIndexNode@@U2@@Z 0047bbf0 f i UiStrengthRank.obj
 0001:0007ad90       ?GetItem@?$KLinkStruct@UKRankIndexNode@@@@QAEPAUKRankIndexNode@@H@Z 0047bd90 f i UiStrengthRank.obj
 0001:0007ae40       ?NextItem@?$KLinkStruct@UKRankIndexNode@@@@QAEPAUKRankIndexNode@@XZ 0047be40 f i UiStrengthRank.obj
 0001:0007ae70       ?Reset@?$KLinkStruct@UKRankIndexNode@@@@QAEPAUKRankIndexNode@@XZ 0047be70 f i UiStrengthRank.obj
 0001:0007ae90       ?Clear@?$KLinkStruct@UKRankIndexNode@@@@QAEXXZ 0047be90 f i UiStrengthRank.obj
 0001:0007aee0       ??0?$KLinkStruct@UKRankNode@@@@QAE@XZ 0047bee0 f i UiStrengthRank.obj
 0001:0007af20       ??1?$KLinkStruct@UKRankNode@@@@UAE@XZ 0047bf20 f i UiStrengthRank.obj
 0001:0007af40       ?GetCount@?$KLinkStruct@UKRankNode@@@@QAEHXZ 0047bf40 f i UiStrengthRank.obj
 0001:0007af60       ?AddItem@?$KLinkStruct@UKRankNode@@@@QAEPAUKRankNode@@U2@@Z 0047bf60 f i UiStrengthRank.obj
 0001:0007b100       ?NextItem@?$KLinkStruct@UKRankNode@@@@QAEPAUKRankNode@@XZ 0047c100 f i UiStrengthRank.obj
 0001:0007b130       ?Reset@?$KLinkStruct@UKRankNode@@@@QAEPAUKRankNode@@XZ 0047c130 f i UiStrengthRank.obj
 0001:0007b150       ?Clear@?$KLinkStruct@UKRankNode@@@@QAEXXZ 0047c150 f i UiStrengthRank.obj
 0001:0007b1a0       ??_G?$KLinkStruct@UKRankIndexNode@@@@UAEPAXI@Z 0047c1a0 f i UiStrengthRank.obj
 0001:0007b1a0       ??_E?$KLinkStruct@UKRankIndexNode@@@@UAEPAXI@Z 0047c1a0 f i UiStrengthRank.obj
 0001:0007b1d0       ??_E?$KLinkStruct@UKRankNode@@@@UAEPAXI@Z 0047c1d0 f i UiStrengthRank.obj
 0001:0007b1d0       ??_G?$KLinkStruct@UKRankNode@@@@UAEPAXI@Z 0047c1d0 f i UiStrengthRank.obj
 0001:0007b200       ?RemoveItem@?$KLinkStruct@UKRankIndexNode@@@@QAEHXZ 0047c200 f i UiStrengthRank.obj
 0001:0007b3a0       ?RemoveItem@?$KLinkStruct@UKRankNode@@@@QAEHXZ 0047c3a0 f i UiStrengthRank.obj
 0001:0007b540       ??0KUiPopupPasswordQuery@@QAE@XZ 0047c540 f   UiPopupPasswordQuery.obj
 0001:0007b5ac       ??1KUiPopupPasswordQuery@@UAE@XZ 0047c5ac f   UiPopupPasswordQuery.obj
 0001:0007b615       ?OpenWindow@KUiPopupPasswordQuery@@SAPAV1@PAVKWndWindow@@I@Z 0047c615 f   UiPopupPasswordQuery.obj
 0001:0007b70b       ?GetIfVisible@KUiPopupPasswordQuery@@SAPAV1@XZ 0047c70b f   UiPopupPasswordQuery.obj
 0001:0007b731       ?CloseWindow@KUiPopupPasswordQuery@@SAX_N@Z 0047c731 f   UiPopupPasswordQuery.obj
 0001:0007b770       ?Initialize@KUiPopupPasswordQuery@@AAEXXZ 0047c770 f   UiPopupPasswordQuery.obj
 0001:0007b7e8       ?LoadScheme@KUiPopupPasswordQuery@@SAXPBD@Z 0047c7e8 f   UiPopupPasswordQuery.obj
 0001:0007b8e7       ?WndProc@KUiPopupPasswordQuery@@EAEHIIH@Z 0047c8e7 f   UiPopupPasswordQuery.obj
 0001:0007b961       ?OnConfirm@KUiPopupPasswordQuery@@AAEXXZ 0047c961 f   UiPopupPasswordQuery.obj
 0001:0007ba00       ??_EKUiPopupPasswordQuery@@UAEPAXI@Z 0047ca00 f i UiPopupPasswordQuery.obj
 0001:0007ba00       ??_GKUiPopupPasswordQuery@@UAEPAXI@Z 0047ca00 f i UiPopupPasswordQuery.obj
 0001:0007ba30       ??0KUiTongAssignBox@@QAE@XZ 0047ca30 f   UiTongAssignBox.obj
 0001:0007bb24       ??1KUiTongAssignBox@@UAE@XZ 0047cb24 f   UiTongAssignBox.obj
 0001:0007bbe7       ?OpenWindow@KUiTongAssignBox@@SAPAV1@XZ 0047cbe7 f   UiTongAssignBox.obj
 0001:0007bcb5       ?GetIfVisible@KUiTongAssignBox@@SAPAV1@XZ 0047ccb5 f   UiTongAssignBox.obj
 0001:0007bcdb       ?CloseWindow@KUiTongAssignBox@@SAX_N@Z 0047ccdb f   UiTongAssignBox.obj
 0001:0007bd1a       ?Initialize@KUiTongAssignBox@@AAEXXZ 0047cd1a f   UiTongAssignBox.obj
 0001:0007be08       ?LoadScheme@KUiTongAssignBox@@SAXPBD@Z 0047ce08 f   UiTongAssignBox.obj
 0001:0007c0bc       ?WndProc@KUiTongAssignBox@@UAEHIIH@Z 0047d0bc f   UiTongAssignBox.obj
 0001:0007c2e1       ?LinkToMainWindow@KUiTongAssignBox@@SAXPAVKWndWindow@@@Z 0047d2e1 f   UiTongAssignBox.obj
 0001:0007c31f       ?ArrangeData@KUiTongAssignBox@@SAXHPAD0HH@Z 0047d31f f   UiTongAssignBox.obj
 0001:0007c501       ?UpdateCheckButton@KUiTongAssignBox@@AAEXH@Z 0047d501 f   UiTongAssignBox.obj
 0001:0007c5de       ?PopupConfirmWindow@KUiTongAssignBox@@AAEXPBDI@Z 0047d5de f   UiTongAssignBox.obj
 0001:0007c618       ?OnConfirm@KUiTongAssignBox@@AAEXXZ 0047d618 f   UiTongAssignBox.obj
 0001:0007c660       ??_EKUiTongAssignBox@@UAEPAXI@Z 0047d660 f i UiTongAssignBox.obj
 0001:0007c660       ??_GKUiTongAssignBox@@UAEPAXI@Z 0047d660 f i UiTongAssignBox.obj
 0001:0007c690       ??0KUiTongChangeCamp@@QAE@XZ 0047d690 f   UiTongChangeCamp.obj
 0001:0007c763       ??1KUiTongChangeCamp@@UAE@XZ 0047d763 f   UiTongChangeCamp.obj
 0001:0007c826       ?OpenWindow@KUiTongChangeCamp@@SAPAV1@PAD@Z 0047d826 f   UiTongChangeCamp.obj
 0001:0007c90d       ?GetIfVisible@KUiTongChangeCamp@@SAPAV1@XZ 0047d90d f   UiTongChangeCamp.obj
 0001:0007c933       ?CloseWindow@KUiTongChangeCamp@@SAX_N@Z 0047d933 f   UiTongChangeCamp.obj
 0001:0007c981       ?Initialize@KUiTongChangeCamp@@AAEXXZ 0047d981 f   UiTongChangeCamp.obj
 0001:0007ca6f       ?LoadScheme@KUiTongChangeCamp@@SAXPBD@Z 0047da6f f   UiTongChangeCamp.obj
 0001:0007cc4d       ?WndProc@KUiTongChangeCamp@@EAEHIIH@Z 0047dc4d f   UiTongChangeCamp.obj
 0001:0007cd07       ?AlignmentButtonCheck@KUiTongChangeCamp@@AAEXW4NPCCAMP@@@Z 0047dd07 f   UiTongChangeCamp.obj
 0001:0007cda0       ?OnDone@KUiTongChangeCamp@@AAEXXZ 0047dda0 f   UiTongChangeCamp.obj
 0001:0007ce20       ??_EKUiTongChangeCamp@@UAEPAXI@Z 0047de20 f i UiTongChangeCamp.obj
 0001:0007ce20       ??_GKUiTongChangeCamp@@UAEPAXI@Z 0047de20 f i UiTongChangeCamp.obj
 0001:0007ce50       ??0KUiTongCreateSheet@@QAE@XZ 0047de50 f   UiTongCreateSheet.obj
 0001:0007cf23       ??1KUiTongCreateSheet@@UAE@XZ 0047df23 f   UiTongCreateSheet.obj
 0001:0007cfe6       ?OpenWindow@KUiTongCreateSheet@@SAPAV1@XZ 0047dfe6 f   UiTongCreateSheet.obj
 0001:0007d0b6       ?GetIfVisible@KUiTongCreateSheet@@SAPAV1@XZ 0047e0b6 f   UiTongCreateSheet.obj
 0001:0007d0dc       ?CloseWindow@KUiTongCreateSheet@@SAX_N@Z 0047e0dc f   UiTongCreateSheet.obj
 0001:0007d12a       ?Initialize@KUiTongCreateSheet@@AAEXXZ 0047e12a f   UiTongCreateSheet.obj
 0001:0007d218       ?LoadScheme@KUiTongCreateSheet@@SAXPBD@Z 0047e218 f   UiTongCreateSheet.obj
 0001:0007d432       ?WndProc@KUiTongCreateSheet@@EAEHIIH@Z 0047e432 f   UiTongCreateSheet.obj
 0001:0007d4ec       ?AlignmentButtonCheck@KUiTongCreateSheet@@AAEXW4NPCCAMP@@@Z 0047e4ec f   UiTongCreateSheet.obj
 0001:0007d585       ?OnDone@KUiTongCreateSheet@@AAEXXZ 0047e585 f   UiTongCreateSheet.obj
 0001:0007d650       ??_EKUiTongCreateSheet@@UAEPAXI@Z 0047e650 f i UiTongCreateSheet.obj
 0001:0007d650       ??_GKUiTongCreateSheet@@UAEPAXI@Z 0047e650 f i UiTongCreateSheet.obj
 0001:0007d680       ??0KUiTongGetString@@AAE@XZ 0047e680 f   UiTongGetString.obj
 0001:0007d71d       ?OpenWindow@KUiTongGetString@@SAPAV1@PBD0PAVKWndWindow@@IHH@Z 0047e71d f   UiTongGetString.obj
 0001:0007d88e       ?CloseWindow@KUiTongGetString@@SAX_N@Z 0047e88e f   UiTongGetString.obj
 0001:0007d8e0       ?GetIfVisible@KUiTongGetString@@SAPAV1@XZ 0047e8e0 f   UiTongGetString.obj
 0001:0007d906       ?Show@KUiTongGetString@@EAEXXZ 0047e906 f   UiTongGetString.obj
 0001:0007d96b       ?Hide@KUiTongGetString@@EAEXXZ 0047e96b f   UiTongGetString.obj
 0001:0007d994       ?Initialize@KUiTongGetString@@AAEXXZ 0047e994 f   UiTongGetString.obj
 0001:0007da3b       ?LoadScheme@KUiTongGetString@@SAXPBD@Z 0047ea3b f   UiTongGetString.obj
 0001:0007db8c       ?WndProc@KUiTongGetString@@EAEHIIH@Z 0047eb8c f   UiTongGetString.obj
 0001:0007dc32       ?OnOk@KUiTongGetString@@AAEXXZ 0047ec32 f   UiTongGetString.obj
 0001:0007dcec       ?OnCancel@KUiTongGetString@@AAEXXZ 0047ecec f   UiTongGetString.obj
 0001:0007dd40       ??_EKUiTongGetString@@EAEPAXI@Z 0047ed40 f i UiTongGetString.obj
 0001:0007dd40       ??_GKUiTongGetString@@EAEPAXI@Z 0047ed40 f i UiTongGetString.obj
 0001:0007dd70       ??1KUiTongGetString@@EAE@XZ 0047ed70 f i UiTongGetString.obj
 0001:0007de00       ??0KUiTongManager@@QAE@XZ  0047ee00 f   UiTongManager.obj
 0001:0007e0cd       ??1KUiTongManager@@UAE@XZ  0047f0cd f   UiTongManager.obj
 0001:0007e32e       ?OpenWindow@KUiTongManager@@SAPAV1@XZ 0047f32e f   UiTongManager.obj
 0001:0007e3fc       ?OpenWindow@KUiTongManager@@SAPAV1@PAD@Z 0047f3fc f   UiTongManager.obj
 0001:0007e423       ?ArrangeComposition@KUiTongManager@@QAEXPAD@Z 0047f423 f   UiTongManager.obj
 0001:0007e549       ?GetIfVisible@KUiTongManager@@SAPAV1@XZ 0047f549 f   UiTongManager.obj
 0001:0007e56f       ?CloseWindow@KUiTongManager@@SAX_N@Z 0047f56f f   UiTongManager.obj
 0001:0007e5cc       ?Initialize@KUiTongManager@@AAEXXZ 0047f5cc f   UiTongManager.obj
 0001:0007e8b1       ?LoadScheme@KUiTongManager@@SAXPBD@Z 0047f8b1 f   UiTongManager.obj
 0001:0007eef7       ?WndProc@KUiTongManager@@UAEHIIH@Z 0047fef7 f   UiTongManager.obj
 0001:0007f4ce       ?UpdateBtnTheme@KUiTongManager@@AAEXHH@Z 004804ce f   UiTongManager.obj
 0001:0007f961       ?UpdateTongInfoView@KUiTongManager@@AAEXXZ 00480961 f   UiTongManager.obj
 0001:0007fae8       ?UpdateTongListView@KUiTongManager@@AAEXXZ 00480ae8 f   UiTongManager.obj
 0001:0007fc83       ?GetCurrentSelectedData@KUiTongManager@@AAEPAV?$KLinkStruct@UKPilgarlicItem@@@@XZ 00480c83 f   UiTongManager.obj
 0001:0007fcd0       ?GetSelectedPlayer@KUiTongManager@@AAEPAUKPilgarlicItem@@XZ 00480cd0 f   UiTongManager.obj
 0001:0007fd14       ?UpdateListCheckButton@KUiTongManager@@AAEXH@Z 00480d14 f   UiTongManager.obj
 0001:0007fde2       ?ClearTongData@KUiTongManager@@AAEXXZ 00480de2 f   UiTongManager.obj
 0001:0007feeb       ?PopupConfirmWindow@KUiTongManager@@AAEXPBDI@Z 00480eeb f   UiTongManager.obj
 0001:0007ff55       ?NewDataArrive@KUiTongManager@@SAXPAUKUiGameObjectWithName@@PAUKTongMemberItem@@@Z 00480f55 f   UiTongManager.obj
 0001:00080116       ?IsPlayerExist@KUiTongManager@@CAHPAUKPilgarlicItem@@PAV?$KLinkStruct@UKPilgarlicItem@@@@@Z 00481116 f   UiTongManager.obj
 0001:0008017d       ?TongInfoArrive@KUiTongManager@@SAXPAUKUiPlayerRelationWithOther@@PAUKTongInfo@@@Z 0048117d f   UiTongManager.obj
 0001:0008021e       ?SaveNewData@KUiTongManager@@CAXPAUKUiGameObjectWithName@@PAUKTongMemberItem@@@Z 0048121e f   UiTongManager.obj
 0001:00080441       ?SaveWholeData@KUiTongManager@@CAXH@Z 00481441 f   UiTongManager.obj
 0001:0008066a       ?LoadData@KUiTongManager@@AAEXH@Z 0048166a f   UiTongManager.obj
 0001:000807be       ?LoadDataHandler@KUiTongManager@@AAEHPAV?$KLinkStruct@UKPilgarlicItem@@@@PBD@Z 004817be f   UiTongManager.obj
 0001:000809f8       ?RequestData@KUiTongManager@@CAXHH@Z 004819f8 f   UiTongManager.obj
 0001:00080a41       ?RemoveTempFile@KUiTongManager@@SAHXZ 00481a41 f   UiTongManager.obj
 0001:00080a9a       ?OnAction@KUiTongManager@@AAEXH@Z 00481a9a f   UiTongManager.obj
 0001:00080bec       ?OnRefresh@KUiTongManager@@AAEXXZ 00481bec f   UiTongManager.obj
 0001:00080e3e       ?ResponseResult@KUiTongManager@@SAXPAUKUiGameObjectWithName@@H@Z 00481e3e f   UiTongManager.obj
 0001:00080ef2       ?ResponseLeave@KUiTongManager@@AAEXPAUKUiGameObjectWithName@@H@Z 00481ef2 f   UiTongManager.obj
 0001:00080f14       ?ResponseDismiss@KUiTongManager@@AAEXPAUKUiGameObjectWithName@@H@Z 00481f14 f   UiTongManager.obj
 0001:00080f95       ?ResponseDemise@KUiTongManager@@AAEXPAUKUiGameObjectWithName@@H@Z 00481f95 f   UiTongManager.obj
 0001:00080fb7       ?ResponseAssign@KUiTongManager@@AAEXPAUKUiGameObjectWithName@@H@Z 00481fb7 f   UiTongManager.obj
 0001:00081131       ?ResponseApply@KUiTongManager@@AAEXPAUKUiGameObjectWithName@@H@Z 00482131 f   UiTongManager.obj
 0001:0008120e       ?FindPlayer@KUiTongManager@@AAEPAV?$KLinkStruct@UKPilgarlicItem@@@@PAD@Z 0048220e f   UiTongManager.obj
 0001:0008128d       ?HandleFind@KUiTongManager@@AAEPAV?$KLinkStruct@UKPilgarlicItem@@@@PAV2@PAD@Z 0048228d f   UiTongManager.obj
 0001:0008131e       ?StringToHash@@YAKPBDH@Z   0048231e f   UiTongManager.obj
 0001:00081420       ??_EKUiTongManager@@UAEPAXI@Z 00482420 f i UiTongManager.obj
 0001:00081420       ??_GKUiTongManager@@UAEPAXI@Z 00482420 f i UiTongManager.obj
 0001:00081450       ??0?$KLinkStruct@UKPilgarlicItem@@@@QAE@XZ 00482450 f i UiTongManager.obj
 0001:00081490       ??1?$KLinkStruct@UKPilgarlicItem@@@@UAE@XZ 00482490 f i UiTongManager.obj
 0001:000814b0       ?GetCount@?$KLinkStruct@UKPilgarlicItem@@@@QAEHXZ 004824b0 f i UiTongManager.obj
 0001:000814d0       ?AddItem@?$KLinkStruct@UKPilgarlicItem@@@@QAEPAUKPilgarlicItem@@U2@@Z 004824d0 f i UiTongManager.obj
 0001:00081670       ?GetItem@?$KLinkStruct@UKPilgarlicItem@@@@QAEPAUKPilgarlicItem@@H@Z 00482670 f i UiTongManager.obj
 0001:00081720       ?Current@?$KLinkStruct@UKPilgarlicItem@@@@QAEPAUKPilgarlicItem@@XZ 00482720 f i UiTongManager.obj
 0001:00081740       ?RemoveItem@?$KLinkStruct@UKPilgarlicItem@@@@QAEHXZ 00482740 f i UiTongManager.obj
 0001:000818e0       ?NextItem@?$KLinkStruct@UKPilgarlicItem@@@@QAEPAUKPilgarlicItem@@XZ 004828e0 f i UiTongManager.obj
 0001:00081910       ?Reset@?$KLinkStruct@UKPilgarlicItem@@@@QAEPAUKPilgarlicItem@@XZ 00482910 f i UiTongManager.obj
 0001:00081930       ?Begin@?$KLinkStruct@UKPilgarlicItem@@@@QAEPAUKPilgarlicItem@@XZ 00482930 f i UiTongManager.obj
 0001:00081950       ?Clear@?$KLinkStruct@UKPilgarlicItem@@@@QAEXXZ 00482950 f i UiTongManager.obj
 0001:000819a0       ??_G?$KLinkStruct@UKPilgarlicItem@@@@UAEPAXI@Z 004829a0 f i UiTongManager.obj
 0001:000819a0       ??_E?$KLinkStruct@UKPilgarlicItem@@@@UAEPAXI@Z 004829a0 f i UiTongManager.obj
 0001:000819d0       ?OpenWindow@KUiTimeBox@@SAPAV1@PBDHPAD@Z 004829d0 f   UiTimeBox.obj
 0001:00081aee       ?Show@KUiTimeBox@@EAEXXZ   00482aee f   UiTimeBox.obj
 0001:00081b0d       ?CloseWindow@KUiTimeBox@@SAX_N@Z 00482b0d f   UiTimeBox.obj
 0001:00081b4f       ?GetIfVisible@KUiTimeBox@@SAPAV1@XZ 00482b4f f   UiTimeBox.obj
 0001:00081b75       ?Initialize@KUiTimeBox@@AAEXXZ 00482b75 f   UiTimeBox.obj
 0001:00081c05       ?LoadScheme@KUiTimeBox@@SAXPBD@Z 00482c05 f   UiTimeBox.obj
 0001:00081d2f       ?OnOk@KUiTimeBox@@SAXXZ    00482d2f f   UiTimeBox.obj
 0001:00081d5e       ?WndProc@KUiTimeBox@@EAEHIIH@Z 00482d5e f   UiTimeBox.obj
 0001:00081db2       ?Breathe@KUiTimeBox@@EAEXXZ 00482db2 f   UiTimeBox.obj
 0001:00081e80       ??0KUiTimeBox@@AAE@XZ      00482e80 f i UiTimeBox.obj
 0001:00081f00       ??_GKUiTimeBox@@EAEPAXI@Z  00482f00 f i UiTimeBox.obj
 0001:00081f00       ??_EKUiTimeBox@@EAEPAXI@Z  00482f00 f i UiTimeBox.obj
 0001:00081f30       ??1KUiTimeBox@@EAE@XZ      00482f30 f i UiTimeBox.obj
 0001:00081fb0       ?OpenWindow@KUiMsgSel2@@SAPAV1@PAUKUiQuestionAndAnswer@@PAUKUiNpcSpr@@@Z 00482fb0 f   UiMsgSel2.obj
 0001:0008217d       ?CloseWindow@KUiMsgSel2@@SAX_N@Z 0048317d f   UiMsgSel2.obj
 0001:000821e7       ?Initialize@KUiMsgSel2@@AAEHXZ 004831e7 f   UiMsgSel2.obj
 0001:000822c8       ?LoadScheme@KUiMsgSel2@@SAXPBD@Z 004832c8 f   UiMsgSel2.obj
 0001:00082415       ?WndProc@KUiMsgSel2@@EAEHIIH@Z 00483415 f   UiMsgSel2.obj
 0001:000826d8       ?OnClickMsg@KUiMsgSel2@@AAEXH@Z 004836d8 f   UiMsgSel2.obj
 0001:0008271d       ?ChangeCurSel@KUiMsgSel2@@AAEX_N@Z 0048371d f   UiMsgSel2.obj
 0001:000827ad       ?Show@KUiMsgSel2@@AAEXPAUKUiQuestionAndAnswer@@@Z 004837ad f   UiMsgSel2.obj
 0001:00082931       ?Breathe@KUiMsgSel2@@EAEXXZ 00483931 f   UiMsgSel2.obj
 0001:000829e0       ??0KUiMsgSel2@@AAE@XZ      004839e0 f i UiMsgSel2.obj
 0001:00082a70       ??_GKUiMsgSel2@@EAEPAXI@Z  00483a70 f i UiMsgSel2.obj
 0001:00082a70       ??_EKUiMsgSel2@@EAEPAXI@Z  00483a70 f i UiMsgSel2.obj
 0001:00082aa0       ??1KUiMsgSel2@@EAE@XZ      00483aa0 f i UiMsgSel2.obj
 0001:00082b30       ?OpenWindow@KUiMsgSel3@@SAPAV1@PAUKUiQuestionAndAnswer@@H@Z 00483b30 f   UiMsgSel3.obj
 0001:00082bf3       ?CloseWindow@KUiMsgSel3@@SAX_N@Z 00483bf3 f   UiMsgSel3.obj
 0001:00082c5d       ?Initialize@KUiMsgSel3@@AAEHXZ 00483c5d f   UiMsgSel3.obj
 0001:00082d3e       ?LoadScheme@KUiMsgSel3@@SAXPBD@Z 00483d3e f   UiMsgSel3.obj
 0001:00082e8b       ?WndProc@KUiMsgSel3@@EAEHIIH@Z 00483e8b f   UiMsgSel3.obj
 0001:0008314b       ?OnClickMsg@KUiMsgSel3@@AAEXH@Z 0048414b f   UiMsgSel3.obj
 0001:00083190       ?ChangeCurSel@KUiMsgSel3@@AAEX_N@Z 00484190 f   UiMsgSel3.obj
 0001:00083220       ?Show@KUiMsgSel3@@AAEXPAUKUiQuestionAndAnswer@@H@Z 00484220 f   UiMsgSel3.obj
 0001:00083400       ?Breathe@KUiMsgSel3@@EAEXXZ 00484400 f   UiMsgSel3.obj
 0001:00083490       ??0KUiMsgSel3@@AAE@XZ      00484490 f i UiMsgSel3.obj
 0001:00083520       ??_GKUiMsgSel3@@EAEPAXI@Z  00484520 f i UiMsgSel3.obj
 0001:00083520       ??_EKUiMsgSel3@@EAEPAXI@Z  00484520 f i UiMsgSel3.obj
 0001:00083550       ??1KUiMsgSel3@@EAE@XZ      00484550 f i UiMsgSel3.obj
 0001:000835e0       ??0KUiTongStringName@@QAE@XZ 004845e0 f   UiTongStringName.obj
 0001:000836a6       ??1KUiTongStringName@@UAE@XZ 004846a6 f   UiTongStringName.obj
 0001:00083745       ?OpenWindow@KUiTongStringName@@SAPAV1@HPAD@Z 00484745 f   UiTongStringName.obj
 0001:000838d4       ?GetIfVisible@KUiTongStringName@@SAPAV1@XZ 004848d4 f   UiTongStringName.obj
 0001:000838fa       ?CloseWindow@KUiTongStringName@@SAX_N@Z 004848fa f   UiTongStringName.obj
 0001:00083939       ?Initialize@KUiTongStringName@@AAEXXZ 00484939 f   UiTongStringName.obj
 0001:000839f8       ?LoadScheme@KUiTongStringName@@SAXPBD@Z 004849f8 f   UiTongStringName.obj
 0001:00083b70       ?WndProc@KUiTongStringName@@EAEHIIH@Z 00484b70 f   UiTongStringName.obj
 0001:00083c40       ?OnDone@KUiTongStringName@@AAEXXZ 00484c40 f   UiTongStringName.obj
 0001:00083fc7       ?LinkToMainWindow@KUiTongStringName@@SAXPAVKWndWindow@@@Z 00484fc7 f   UiTongStringName.obj
 0001:00084010       ??_GKUiTongStringName@@UAEPAXI@Z 00485010 f i UiTongStringName.obj
 0001:00084010       ??_EKUiTongStringName@@UAEPAXI@Z 00485010 f i UiTongStringName.obj
 0001:00084040       ??0KUiTrembleItem@@QAE@XZ  00485040 f   UiTrembleItem.obj
 0001:0008415b       ??1KUiTrembleItem@@UAE@XZ  0048515b f   UiTrembleItem.obj
 0001:00084266       ?OpenWindow@KUiTrembleItem@@SAPAV1@XZ 00485266 f   UiTrembleItem.obj
 0001:00084336       ?GetIfVisible@KUiTrembleItem@@SAPAV1@XZ 00485336 f   UiTrembleItem.obj
 0001:0008435c       ?CloseWindow@KUiTrembleItem@@SAX_N@Z 0048535c f   UiTrembleItem.obj
 0001:0008439b       ?Initialize@KUiTrembleItem@@AAEXXZ 0048539b f   UiTrembleItem.obj
 0001:000844e8       ?LoadScheme@KUiTrembleItem@@SAXPBD@Z 004854e8 f   UiTrembleItem.obj
 0001:0008474a       ?WndProc@KUiTrembleItem@@EAEHIIH@Z 0048574a f   UiTrembleItem.obj
 0001:000847af       ?Breathe@KUiTrembleItem@@EAEXXZ 004857af f   UiTrembleItem.obj
 0001:00084857       ?PlayEffect@KUiTrembleItem@@AAEHXZ 00485857 f   UiTrembleItem.obj
 0001:000848c2       ?UpdateResult@KUiTrembleItem@@AAEXXZ 004858c2 f   UiTrembleItem.obj
 0001:000848cd       ?GetMaxFrame@KCanGetNumImage@@QAEHXZ 004858cd f   UiTrembleItem.obj
 0001:000848e1       ?GetCurrentFrame@KCanGetNumImage@@QAEHXZ 004858e1 f   UiTrembleItem.obj
 0001:00084900       ??_EKUiTrembleItem@@UAEPAXI@Z 00485900 f i UiTrembleItem.obj
 0001:00084900       ??_GKUiTrembleItem@@UAEPAXI@Z 00485900 f i UiTrembleItem.obj
 0001:00084930       ??0KCanGetNumImage@@QAE@XZ 00485930 f i UiTrembleItem.obj
 0001:00084950       ??_GKCanGetNumImage@@UAEPAXI@Z 00485950 f i UiTrembleItem.obj
 0001:00084950       ??_EKCanGetNumImage@@UAEPAXI@Z 00485950 f i UiTrembleItem.obj
 0001:00084980       ??1KCanGetNumImage@@UAE@XZ 00485980 f i UiTrembleItem.obj
 0001:000849a0       ?UiSoundLoadSetting@@YA_NXZ 004859a0 f   UiSoundSetting.obj
 0001:00084a6d       ?UiSoundPlay@@YAXW4UI_SOUND_INDEX@@@Z 00485a6d f   UiSoundSetting.obj
 0001:00084a9c       ?UiSoundPlay@@YAXPAD@Z     00485a9c f   UiSoundSetting.obj
 0001:00084ad0       ?CoreDataChangedCallback@@YAXIIH@Z 00485ad0 f   GameSpaceChangedNotify.obj
 0001:00085641       ?CoreDataChanged@KClientCallback@@UAEXIIH@Z 00486641 f   GameSpaceChangedNotify.obj
 0001:000856c7       ?ClearBlackList@@YAXXZ     004866c7 f   GameSpaceChangedNotify.obj
 0001:000856d6       ?CreateBlackListUnit@@YAXXZ 004866d6 f   GameSpaceChangedNotify.obj
 0001:000856f2       ?AddBlackList@@YAXPBD0@Z   004866f2 f   GameSpaceChangedNotify.obj
 0001:000857b3       ?RemoveBlackList@@YAXPAD@Z 004867b3 f   GameSpaceChangedNotify.obj
 0001:0008588d       ?IsInBlackName@@YA_NPAD@Z  0048688d f   GameSpaceChangedNotify.obj
 0001:00085920       ?SaveBlackListPrivateSetting@@YAHPAVKIniFile@@PBDH@Z 00486920 f   GameSpaceChangedNotify.obj
 0001:00085a1e       ?RenameUnitGroup@BlacklistNotify@@UAEHPBD00ABV?$list@V?$basic_string@DU?$char_traits@D@std@@V?$allocator@D@2@@std@@V?$allocator@V?$basic_string@DU?$char_traits@D@std@@V?$allocator@D@2@@std@@@2@@std@@@Z 00486a1e f   GameSpaceChangedNotify.obj
 0001:00085abb       ?MoveUnitGroup@BlacklistNotify@@UAEHPBD00ABV?$list@V?$basic_string@DU?$char_traits@D@std@@V?$allocator@D@2@@std@@V?$allocator@V?$basic_string@DU?$char_traits@D@std@@V?$allocator@D@2@@std@@@2@@std@@@Z 00486abb f   GameSpaceChangedNotify.obj
 0001:00085b58       ?DeleteUnitGroup@BlacklistNotify@@UAEHPBD0ABV?$list@V?$basic_string@DU?$char_traits@D@std@@V?$allocator@D@2@@std@@V?$allocator@V?$basic_string@DU?$char_traits@D@std@@V?$allocator@D@2@@std@@@2@@std@@@Z 00486b58 f   GameSpaceChangedNotify.obj
 0001:00085be9       ?DeleteUnitMember@BlacklistNotify@@UAEHPBD0@Z 00486be9 f   GameSpaceChangedNotify.obj
 0001:00085c18       ?MoveUnitMember@BlacklistNotify@@UAEHPBD00@Z 00486c18 f   GameSpaceChangedNotify.obj
 0001:00085cfa       ?SendNotifyGroupFriend@BlacklistNotify@@QAEXPBDABV?$basic_string@DU?$char_traits@D@std@@V?$allocator@D@2@@std@@ABV?$list@V?$basic_string@DU?$char_traits@D@std@@V?$allocator@D@2@@std@@V?$allocator@V?$basic_string@DU?$char_traits@D@std@@V?$allocator@D@2@@std@@@2@@3@@Z 00486cfa f   GameSpaceChangedNotify.obj
 0001:00085d7c       ?SendNotifyDeleteFriend@BlacklistNotify@@QAEXPBD0@Z 00486d7c f   GameSpaceChangedNotify.obj
 0001:00085daa       ?ChannelMessageArrival@KClientCallback@@UAEXHKPADPBDG_N@Z 00486daa f   GameSpaceChangedNotify.obj
 0001:00086ccd       ?MSNMessageArrival@KClientCallback@@UAEXPAD0PBDG_N@Z 00487ccd f   GameSpaceChangedNotify.obj
 0001:00086d56       ?NotifyChannelID@KClientCallback@@UAEXPADKE@Z 00487d56 f   GameSpaceChangedNotify.obj
 0001:00086d77       ?FriendInvite@KClientCallback@@UAEXPAD@Z 00487d77 f   GameSpaceChangedNotify.obj
 0001:00086e07       ?AddFriend@KClientCallback@@UAEXPADE@Z 00487e07 f   GameSpaceChangedNotify.obj
 0001:00086fc5       ?FriendStatus@KClientCallback@@UAEXPADE@Z 00487fc5 f   GameSpaceChangedNotify.obj
 0001:000870a4       ?FriendInfo@KClientCallback@@UAEXPAD00E@Z 004880a4 f   GameSpaceChangedNotify.obj
 0001:00087158       ?AddPeople@KClientCallback@@UAEXPAD0@Z 00488158 f   GameSpaceChangedNotify.obj
 0001:000871e8       ?LevelTips@@YAXH@Z         004881e8 f   GameSpaceChangedNotify.obj
 0001:000872c1       ?FactionTips@@YAXH@Z       004882c1 f   GameSpaceChangedNotify.obj
 0001:000873b0       ?GameWorldTips@@YAXIH@Z    004883b0 f   GameSpaceChangedNotify.obj
 0001:000873e0       ??0BlacklistNotify@@QAE@XZ 004883e0 f i GameSpaceChangedNotify.obj
 0001:00087400       ?size@?$map@V?$basic_string@DU?$char_traits@D@std@@V?$allocator@D@2@@std@@V12@U?$less@V?$basic_string@DU?$char_traits@D@std@@V?$allocator@D@2@@std@@@2@V?$allocator@V?$basic_string@DU?$char_traits@D@std@@V?$allocator@D@2@@std@@@2@@std@@QBEIXZ 00488400 f i GameSpaceChangedNotify.obj
 0001:000874e7       ?HandleKeyInput@KShortcutKeyCentre@@SAHIH@Z 004884e7 f   ShortcutKey.obj
 0001:00087536       ?HandleMouseInput@KShortcutKeyCentre@@SAHIHHH@Z 00488536 f   ShortcutKey.obj
 0001:000875bf       ?Enable@KShortcutKeyCentre@@SAX_N@Z 004885bf f   ShortcutKey.obj
 0001:000875cc       ?FindWindowA@@YAHPBD@Z     004885cc f   ShortcutKey.obj
 0001:00087612       ?LuaOpenWindow@@YAHPAUlua_State@@@Z 00488612 f   ShortcutKey.obj
 0001:00087898       ?FindWndWindow@@YAPAVKWndWindow@@PBD@Z 00488898 f   ShortcutKey.obj
 0001:00087925       ?LuaMoveWindow@@YAHPAUlua_State@@@Z 00488925 f   ShortcutKey.obj
 0001:000879ac       ?LuaSizeWindow@@YAHPAUlua_State@@@Z 004889ac f   ShortcutKey.obj
 0001:00087a36       ?LuaShowWindow@@YAHPAUlua_State@@@Z 00488a36 f   ShortcutKey.obj
 0001:00087aba       ?LuaFocusWindow@@YAHPAUlua_State@@@Z 00488aba f   ShortcutKey.obj
 0001:00087b1c       ?LuaShortcutSkill@@YAHPAUlua_State@@@Z 00488b1c f   ShortcutKey.obj
 0001:00087b5f       ?LuaDirectShortcutSkill@@YAHPAUlua_State@@@Z 00488b5f f   ShortcutKey.obj
 0001:00087bb3       ?LuaShortcutUseItem@@YAHPAUlua_State@@@Z 00488bb3 f   ShortcutKey.obj
 0001:00087bf6       ?FindStatus@@YAHPBD@Z      00488bf6 f   ShortcutKey.obj
 0001:00087c3c       ?LuaSwitchStatus@@YAHPAUlua_State@@@Z 00488c3c f   ShortcutKey.obj
 0001:00087fc8       ?LuaSwitchChannel@@YAHPAUlua_State@@@Z 00488fc8 f   ShortcutKey.obj
 0001:0008800e       ?LuaRegisterEvent@@YAHPAUlua_State@@@Z 0048900e f   ShortcutKey.obj
 0001:00088067       ?LuaUnregisterEvent@@YAHPAUlua_State@@@Z 00489067 f   ShortcutKey.obj
 0001:000880c0       ?LuaSendEvent@@YAHPAUlua_State@@@Z 004890c0 f   ShortcutKey.obj
 0001:0008817a       ?LuaGetAppStatus@@YAHPAUlua_State@@@Z 0048917a f   ShortcutKey.obj
 0001:00088247       ?DescHotKey@hotkey_str@@YA?AV?$basic_string@DU?$char_traits@D@std@@V?$allocator@D@2@@std@@K@Z 00489247 f   ShortcutKey.obj
 0001:0008840d       ?ParseHotKey@hotkey_str@@YAKABV?$basic_string@DU?$char_traits@D@std@@V?$allocator@D@2@@std@@@Z 0048940d f   ShortcutKey.obj
 0001:000886af       ??0PATTERNMAP@?1??ParseHotKey@hotkey_str@@YAKABV?$basic_string@DU?$char_traits@D@std@@V?$allocator@D@2@@std@@@Z@QAE@XZ 004896af f   ShortcutKey.obj
 0001:00089871       ?LuaAddCommand@@YAHPAUlua_State@@@Z 0048a871 f   ShortcutKey.obj
 0001:0008998c       ?LuaRemoveCommand@@YAHPAUlua_State@@@Z 0048a98c f   ShortcutKey.obj
 0001:00089abe       ?LuaMakeFriend@@YAHPAUlua_State@@@Z 0048aabe f   ShortcutKey.obj
 0001:00089b33       ?LuaCreateTeam@@YAHPAUlua_State@@@Z 0048ab33 f   ShortcutKey.obj
 0001:00089b59       ?LuaJoinTeam@@YAHPAUlua_State@@@Z 0048ab59 f   ShortcutKey.obj
 0001:00089be2       ?LuaInviteTeam@@YAHPAUlua_State@@@Z 0048abe2 f   ShortcutKey.obj
 0001:00089c6b       ?LuaTrade@@YAHPAUlua_State@@@Z 0048ac6b f   ShortcutKey.obj
 0001:00089cf4       ?LuaRevenge@@YAHPAUlua_State@@@Z 0048acf4 f   ShortcutKey.obj
 0001:00089d7d       ?LuaFollow@@YAHPAUlua_State@@@Z 0048ad7d f   ShortcutKey.obj
 0001:00089e06       ?LuaViewItem@@YAHPAUlua_State@@@Z 0048ae06 f   ShortcutKey.obj
 0001:00089e8f       ?LuaPrintScreen@@YAHPAUlua_State@@@Z 0048ae8f f   ShortcutKey.obj
 0001:00089ea2       ?LuaClearMessage@@YAHPAUlua_State@@@Z 0048aea2 f   ShortcutKey.obj
 0001:00089eae       ?LuaSay@@YAHPAUlua_State@@@Z 0048aeae f   ShortcutKey.obj
 0001:00089f8a       ?LuaChat@@YAHPAUlua_State@@@Z 0048af8a f   ShortcutKey.obj
 0001:0008a092       ?LuaRegisterFunctionAlias@@YAHPAUlua_State@@@Z 0048b092 f   ShortcutKey.obj
 0001:0008a1ed       ?LuaSayPhrase@@YAHPAUlua_State@@@Z 0048b1ed f   ShortcutKey.obj
 0001:0008a32b       ?LuaSayEmote@@YAHPAUlua_State@@@Z 0048b32b f   ShortcutKey.obj
 0001:0008a39c       ?LuaGetCurrentChannelName@@YAHPAUlua_State@@@Z 0048b39c f   ShortcutKey.obj
 0001:0008a3ef       ?LuaGetRecentPlayerName@@YAHPAUlua_State@@@Z 0048b3ef f   ShortcutKey.obj
 0001:0008a43c       ?LuaConvertEmotes@@YAHPAUlua_State@@@Z 0048b43c f   ShortcutKey.obj
 0001:0008a44d       ?LuaSetEmote@@YAHPAUlua_State@@@Z 0048b44d f   ShortcutKey.obj
 0001:0008a507       ?LuaSetScreenShotFolder@@YAHPAUlua_State@@@Z 0048b507 f   ShortcutKey.obj
 0001:0008a5ce       ?LuaSetPhrase@@YAHPAUlua_State@@@Z 0048b5ce f   ShortcutKey.obj
 0001:0008a653       ?LuaExitGame@@YAHPAUlua_State@@@Z 0048b653 f   ShortcutKey.obj
 0001:0008a6a7       ?LuaExit@@YAHPAUlua_State@@@Z 0048b6a7 f   ShortcutKey.obj
 0001:0008a6b3       ?LuaSet3D@@YAHPAUlua_State@@@Z 0048b6b3 f   ShortcutKey.obj
 0001:0008a842       ?LuaSetFullWindow@@YAHPAUlua_State@@@Z 0048b842 f   ShortcutKey.obj
 0001:0008a9d1       ?LuaMoveTo@@YAHPAUlua_State@@@Z 0048b9d1 f   ShortcutKey.obj
 0001:0008aa7a       ?LuaTurnTo@@YAHPAUlua_State@@@Z 0048ba7a f   ShortcutKey.obj
 0001:0008aae8       ?Mouse_Action@@YAHPAUlua_State@@@Z 0048bae8 f   ShortcutKey.obj
 0001:0008acc8       ?Mouse_Force0@@YAHPAUlua_State@@@Z 0048bcc8 f   ShortcutKey.obj
 0001:0008ad67       ?Mouse_Force1@@YAHPAUlua_State@@@Z 0048bd67 f   ShortcutKey.obj
 0001:0008ae06       ?Mouse_MoveTo@@YAHPAUlua_State@@@Z 0048be06 f   ShortcutKey.obj
 0001:0008ae95       ?Mouse_Menu@@YAHPAUlua_State@@@Z 0048be95 f   ShortcutKey.obj
 0001:0008af16       ?Mouse_Emote_Menu@@YAHPAUlua_State@@@Z 0048bf16 f   ShortcutKey.obj
 0001:0008af97       ?Mouse_Say@@YAHPAUlua_State@@@Z 0048bf97 f   ShortcutKey.obj
 0001:0008b00c       ?Mouse_MakeFriend@@YAHPAUlua_State@@@Z 0048c00c f   ShortcutKey.obj
 0001:0008b081       ?Mouse_JoinTeam@@YAHPAUlua_State@@@Z 0048c081 f   ShortcutKey.obj
 0001:0008b0f6       ?Mouse_InviteTeam@@YAHPAUlua_State@@@Z 0048c0f6 f   ShortcutKey.obj
 0001:0008b16b       ?Mouse_Trade@@YAHPAUlua_State@@@Z 0048c16b f   ShortcutKey.obj
 0001:0008b1e0       ?Mouse_Revenge@@YAHPAUlua_State@@@Z 0048c1e0 f   ShortcutKey.obj
 0001:0008b255       ?Mouse_Follow@@YAHPAUlua_State@@@Z 0048c255 f   ShortcutKey.obj
 0001:0008b2ca       ?Mouse_ViewItem@@YAHPAUlua_State@@@Z 0048c2ca f   ShortcutKey.obj
 0001:0008b33f       ?Mouse_BlackList@@YAHPAUlua_State@@@Z 0048c33f f   ShortcutKey.obj
 0001:0008b3b4       ?LuaThrowAwayItem@@YAHPAUlua_State@@@Z 0048c3b4 f   ShortcutKey.obj
 0001:0008b3d8       ?LuaSetChatFontSzie@@YAHPAUlua_State@@@Z 0048c3d8 f   ShortcutKey.obj
 0001:0008b41b       ?LuaSetChannelTextColor@@YAHPAUlua_State@@@Z 0048c41b f   ShortcutKey.obj
 0001:0008b4a5       ?LuaSetMeTextColor@@YAHPAUlua_State@@@Z 0048c4a5 f   ShortcutKey.obj
 0001:0008b515       ?LuaSetFriendTextColor@@YAHPAUlua_State@@@Z 0048c515 f   ShortcutKey.obj
 0001:0008b585       ?LuaSetStrangerTextColor@@YAHPAUlua_State@@@Z 0048c585 f   ShortcutKey.obj
 0001:0008b5f5       ?LuaDebug@@YAHPAUlua_State@@@Z 0048c5f5 f   ShortcutKey.obj
 0001:0008b64e       ?LuaAddBlackList@@YAHPAUlua_State@@@Z 0048c64e f   ShortcutKey.obj
 0001:0008b71a       ?LuaRemoveBlackList@@YAHPAUlua_State@@@Z 0048c71a f   ShortcutKey.obj
 0001:0008b76f       ?LuaCreateAddinUnit@@YAHPAUlua_State@@@Z 0048c76f f   ShortcutKey.obj
 0001:0008b7ad       ?LuaDeleteAddinUnit@@YAHPAUlua_State@@@Z 0048c7ad f   ShortcutKey.obj
 0001:0008b7eb       ?LuaCreateUnitGroup@@YAHPAUlua_State@@@Z 0048c7eb f   ShortcutKey.obj
 0001:0008b856       ?LuaRenameUnitGroup@@YAHPAUlua_State@@@Z 0048c856 f   ShortcutKey.obj
 0001:0008b8d7       ?LuaMoveUnitGroup@@YAHPAUlua_State@@@Z 0048c8d7 f   ShortcutKey.obj
 0001:0008b95a       ?LuaDeleteUnitGroup@@YAHPAUlua_State@@@Z 0048c95a f   ShortcutKey.obj
 0001:0008b9cc       ?LuaMoveUnitMember@@YAHPAUlua_State@@@Z 0048c9cc f   ShortcutKey.obj
 0001:0008ba4d       ?LuaCreateAddinUnitMember@@YAHPAUlua_State@@@Z 0048ca4d f   ShortcutKey.obj
 0001:0008bace       ?LuaDeleteAddinUnitMember@@YAHPAUlua_State@@@Z 0048cace f   ShortcutKey.obj
 0001:0008bb3b       ?LuaSetAddinUnitMemberStatus@@YAHPAUlua_State@@@Z 0048cb3b f   ShortcutKey.obj
 0001:0008bbda       ?LuaShowSomeoneMessage@@YAHPAUlua_State@@@Z 0048cbda f   ShortcutKey.obj
 0001:0008bcb8       ?g_GetGameScriptFunNum@@YAHXZ 0048ccb8 f   ShortcutKey.obj
 0001:0008bcc2       ?InitScript@KShortcutKeyCentre@@SAHXZ 0048ccc2 f   ShortcutKey.obj
 0001:0008bd01       ?LoadScript@KShortcutKeyCentre@@SAHPAD@Z 0048cd01 f   ShortcutKey.obj
 0001:0008bd1a       ?UninitScript@KShortcutKeyCentre@@SAHXZ 0048cd1a f   ShortcutKey.obj
 0001:0008bd24       ?ClearScript@KShortcutKeyCentre@@SAHXZ 0048cd24 f   ShortcutKey.obj
 0001:0008bd6e       ?LoadPrivateSetting@KShortcutKeyCentre@@SAHPAVKIniFile@@@Z 0048cd6e f   ShortcutKey.obj
 0001:0008beb1       ?SavePrivateSetting@KShortcutKeyCentre@@SAHPAVKIniFile@@@Z 0048ceb1 f   ShortcutKey.obj
 0001:0008ccce       ?Compile@@YAIPBDPADI@Z     0048dcce f   ShortcutKey.obj
 0001:0008d19d       ?TranslateExcuteScript@KShortcutKeyCentre@@SAHPBD@Z 0048e19d f   ShortcutKey.obj
 0001:0008d255       ?ExcuteScript@KShortcutKeyCentre@@SAHPBD@Z 0048e255 f   ShortcutKey.obj
 0001:0008d2b6       ?ExcuteHWNDScript@KShortcutKeyCentre@@SAHPBD@Z 0048e2b6 f   ShortcutKey.obj
 0001:0008d2fa       ?AddCommand@KShortcutKeyCentre@@SAHPAUCOMMAND_SETTING@@@Z 0048e2fa f   ShortcutKey.obj
 0001:0008d41f       ?RemoveCommand@KShortcutKeyCentre@@SAHH@Z 0048e41f f   ShortcutKey.obj
 0001:0008d495       ?RemoveCommandAll@KShortcutKeyCentre@@SAXXZ 0048e495 f   ShortcutKey.obj
 0001:0008d4a4       ?FindCommand@KShortcutKeyCentre@@SAHK@Z 0048e4a4 f   ShortcutKey.obj
 0001:0008d509       ?FindCommand@KShortcutKeyCentre@@SAHPBD@Z 0048e509 f   ShortcutKey.obj
 0001:0008d589       ?FindCommandByScript@KShortcutKeyCentre@@SAHPBD@Z 0048e589 f   ShortcutKey.obj
 0001:0008d609       ?GetCommandKey@KShortcutKeyCentre@@SAKH@Z 0048e609 f   ShortcutKey.obj
 0001:0008d635       ?GetKeyName@KShortcutKeyCentre@@SAPBDK@Z 0048e635 f   ShortcutKey.obj
 0001:0008d6f1       ?RegisterFunctionAlias@KShortcutKeyCentre@@SAHPBD0HABV?$list@V?$basic_string@DU?$char_traits@D@std@@V?$allocator@D@2@@std@@V?$allocator@V?$basic_string@DU?$char_traits@D@std@@V?$allocator@D@2@@std@@@2@@std@@@Z 0048e6f1 f   ShortcutKey.obj
 0001:0008d860       ??1?$map@V?$basic_string@DU?$char_traits@D@std@@V?$allocator@D@2@@std@@UShortFuncInfo@@Ustring_iless@@V?$allocator@UShortFuncInfo@@@2@@std@@QAE@XZ 0048e860 f i ShortcutKey.obj
 0001:0008d880       ?GetSelf@KUiMsgCentrePad@@SAPAV1@XZ 0048e880 f i ShortcutKey.obj
 0001:0008d890       ?GetSelf@KUiMiniMap@@SAPAV1@XZ 0048e890 f i ShortcutKey.obj
 0001:0008d8a0       ?GetSelf@KUiHeaderControlBar@@SAPAV1@XZ 0048e8a0 f i ShortcutKey.obj
 0001:0008d8b0       ?GetSelf@KUiToolsControlBar@@SAPAV1@XZ 0048e8b0 f i ShortcutKey.obj
 0001:0008d8c0       ??1PATTERNMAP@?1??ParseHotKey@hotkey_str@@YAKABV?$basic_string@DU?$char_traits@D@std@@V?$allocator@D@2@@std@@@Z@QAE@XZ 0048e8c0 f i ShortcutKey.obj
 0001:0008d8e0       ??1?$map@V?$basic_string@DU?$char_traits@D@std@@V?$allocator@D@2@@std@@U?$pair@KK@2@Ustring_iless@@V?$allocator@U?$pair@KK@std@@@2@@std@@QAE@XZ 0048e8e0 f i ShortcutKey.obj
 0001:0008d900       ?__x_memcpy_n@@YA_NPAXIPBXI@Z 0048e900 f i ShortcutKey.obj
 0001:0008d930       ??0ShortFuncInfo@@QAE@XZ   0048e930 f i ShortcutKey.obj
 0001:0008d990       ??1ShortFuncInfo@@QAE@XZ   0048e990 f i ShortcutKey.obj
 0001:0008d9e0       ??4ShortFuncInfo@@QAEAAU0@ABU0@@Z 0048e9e0 f i ShortcutKey.obj
 0001:0008da20       ??4?$list@V?$basic_string@DU?$char_traits@D@std@@V?$allocator@D@2@@std@@V?$allocator@V?$basic_string@DU?$char_traits@D@std@@V?$allocator@D@2@@std@@@2@@std@@QAEAAV01@ABV01@@Z 0048ea20 f i ShortcutKey.obj
 0001:0008db10       ?pop_back@?$list@V?$basic_string@DU?$char_traits@D@std@@V?$allocator@D@2@@std@@V?$allocator@V?$basic_string@DU?$char_traits@D@std@@V?$allocator@D@2@@std@@@2@@std@@QAEXXZ 0048eb10 f i ShortcutKey.obj
 0001:0008db40       ??Diterator@?$list@V?$basic_string@DU?$char_traits@D@std@@V?$allocator@D@2@@std@@V?$allocator@V?$basic_string@DU?$char_traits@D@std@@V?$allocator@D@2@@std@@@2@@std@@QBEAAV?$basic_string@DU?$char_traits@D@std@@V?$allocator@D@2@@2@XZ 0048eb40 f i ShortcutKey.obj
 0001:0008db60       ??0?$map@V?$basic_string@DU?$char_traits@D@std@@V?$allocator@D@2@@std@@UShortFuncInfo@@Ustring_iless@@V?$allocator@UShortFuncInfo@@@2@@std@@QAE@ABUstring_iless@@ABV?$allocator@UShortFuncInfo@@@1@@Z 0048eb60 f i ShortcutKey.obj
 0001:0008db90       ?begin@?$map@V?$basic_string@DU?$char_traits@D@std@@V?$allocator@D@2@@std@@UShortFuncInfo@@Ustring_iless@@V?$allocator@UShortFuncInfo@@@2@@std@@QAE?AViterator@?$_Tree@V?$basic_string@DU?$char_traits@D@std@@V?$allocator@D@2@@std@@U?$pair@$$CBV?$basic_string@DU?$char_traits@D@std@@V?$allocator@D@2@@std@@UShortFuncInfo@@@2@U_Kfn@?$map@V?$basic_string@DU?$char_traits@D@std@@V?$allocator@D@2@@std@@UShortFuncInfo@@Ustring_iless@@V?$allocator@UShortFuncInfo@@@2@@2@Ustring_iless@@V?$allocator@UShortFuncInfo@@@2@@2@XZ 0048eb90 f i ShortcutKey.obj
 0001:0008dbc0       ??A?$map@V?$basic_string@DU?$char_traits@D@std@@V?$allocator@D@2@@std@@UShortFuncInfo@@Ustring_iless@@V?$allocator@UShortFuncInfo@@@2@@std@@QAEAAUShortFuncInfo@@ABV?$basic_string@DU?$char_traits@D@std@@V?$allocator@D@2@@1@@Z 0048ebc0 f i ShortcutKey.obj
 0001:0008dc60       ?clear@?$map@V?$basic_string@DU?$char_traits@D@std@@V?$allocator@D@2@@std@@UShortFuncInfo@@Ustring_iless@@V?$allocator@UShortFuncInfo@@@2@@std@@QAEXXZ 0048ec60 f i ShortcutKey.obj
 0001:0008dc80       ??1?$_Tree@V?$basic_string@DU?$char_traits@D@std@@V?$allocator@D@2@@std@@U?$pair@$$CBV?$basic_string@DU?$char_traits@D@std@@V?$allocator@D@2@@std@@UShortFuncInfo@@@2@U_Kfn@?$map@V?$basic_string@DU?$char_traits@D@std@@V?$allocator@D@2@@std@@UShortFuncInfo@@Ustring_iless@@V?$allocator@UShortFuncInfo@@@2@@2@Ustring_iless@@V?$allocator@UShortFuncInfo@@@2@@std@@QAE@XZ 0048ec80 f i ShortcutKey.obj
 0001:0008dd50       ??Citerator@?$_Tree@V?$basic_string@DU?$char_traits@D@std@@V?$allocator@D@2@@std@@U?$pair@$$CBV?$basic_string@DU?$char_traits@D@std@@V?$allocator@D@2@@std@@UShortFuncInfo@@@2@U_Kfn@?$map@V?$basic_string@DU?$char_traits@D@std@@V?$allocator@D@2@@std@@UShortFuncInfo@@Ustring_iless@@V?$allocator@UShortFuncInfo@@@2@@2@Ustring_iless@@V?$allocator@UShortFuncInfo@@@2@@std@@QBEPAU?$pair@$$CBV?$basic_string@DU?$char_traits@D@std@@V?$allocator@D@2@@std@@UShortFuncInfo@@@2@XZ 0048ed50 f i ShortcutKey.obj
 0001:0008dd70       ??Eiterator@?$_Tree@V?$basic_string@DU?$char_traits@D@std@@V?$allocator@D@2@@std@@U?$pair@$$CBV?$basic_string@DU?$char_traits@D@std@@V?$allocator@D@2@@std@@UShortFuncInfo@@@2@U_Kfn@?$map@V?$basic_string@DU?$char_traits@D@std@@V?$allocator@D@2@@std@@UShortFuncInfo@@Ustring_iless@@V?$allocator@UShortFuncInfo@@@2@@2@Ustring_iless@@V?$allocator@UShortFuncInfo@@@2@@std@@QAE?AV012@H@Z 0048ed70 f i ShortcutKey.obj
 0001:0008dda0       ??0?$map@V?$basic_string@DU?$char_traits@D@std@@V?$allocator@D@2@@std@@U?$pair@KK@2@Ustring_iless@@V?$allocator@U?$pair@KK@std@@@2@@std@@QAE@ABUstring_iless@@ABV?$allocator@U?$pair@KK@std@@@1@@Z 0048eda0 f i ShortcutKey.obj
 0001:0008ddd0       ?end@?$map@V?$basic_string@DU?$char_traits@D@std@@V?$allocator@D@2@@std@@U?$pair@KK@2@Ustring_iless@@V?$allocator@U?$pair@KK@std@@@2@@std@@QBE?AVconst_iterator@?$_Tree@V?$basic_string@DU?$char_traits@D@std@@V?$allocator@D@2@@std@@U?$pair@$$CBV?$basic_string@DU?$char_traits@D@std@@V?$allocator@D@2@@std@@U?$pair@KK@2@@2@U_Kfn@?$map@V?$basic_string@DU?$char_traits@D@std@@V?$allocator@D@2@@std@@U?$pair@KK@2@Ustring_iless@@V?$allocator@U?$pair@KK@std@@@2@@2@Ustring_iless@@V?$allocator@U?$pair@KK@std@@@2@@2@XZ 0048edd0 f i ShortcutKey.obj
 0001:0008de00       ??A?$map@V?$basic_string@DU?$char_traits@D@std@@V?$allocator@D@2@@std@@U?$pair@KK@2@Ustring_iless@@V?$allocator@U?$pair@KK@std@@@2@@std@@QAEAAU?$pair@KK@1@ABV?$basic_string@DU?$char_traits@D@std@@V?$allocator@D@2@@1@@Z 0048ee00 f i ShortcutKey.obj
 0001:0008de90       ?find@?$map@V?$basic_string@DU?$char_traits@D@std@@V?$allocator@D@2@@std@@U?$pair@KK@2@Ustring_iless@@V?$allocator@U?$pair@KK@std@@@2@@std@@QBE?AVconst_iterator@?$_Tree@V?$basic_string@DU?$char_traits@D@std@@V?$allocator@D@2@@std@@U?$pair@$$CBV?$basic_string@DU?$char_traits@D@std@@V?$allocator@D@2@@std@@U?$pair@KK@2@@2@U_Kfn@?$map@V?$basic_string@DU?$char_traits@D@std@@V?$allocator@D@2@@std@@U?$pair@KK@2@Ustring_iless@@V?$allocator@U?$pair@KK@std@@@2@@2@Ustring_iless@@V?$allocator@U?$pair@KK@std@@@2@@2@ABV?$basic_string@DU?$char_traits@D@std@@V?$allocator@D@2@@2@@Z 0048ee90 f i ShortcutKey.obj
 0001:0008dec0       ??1?$_Tree@V?$basic_string@DU?$char_traits@D@std@@V?$allocator@D@2@@std@@U?$pair@$$CBV?$basic_string@DU?$char_traits@D@std@@V?$allocator@D@2@@std@@U?$pair@KK@2@@2@U_Kfn@?$map@V?$basic_string@DU?$char_traits@D@std@@V?$allocator@D@2@@std@@U?$pair@KK@2@Ustring_iless@@V?$allocator@U?$pair@KK@std@@@2@@2@Ustring_iless@@V?$allocator@U?$pair@KK@std@@@2@@std@@QAE@XZ 0048eec0 f i ShortcutKey.obj
 0001:0008df90       ??Dconst_iterator@?$_Tree@V?$basic_string@DU?$char_traits@D@std@@V?$allocator@D@2@@std@@U?$pair@$$CBV?$basic_string@DU?$char_traits@D@std@@V?$allocator@D@2@@std@@U?$pair@KK@2@@2@U_Kfn@?$map@V?$basic_string@DU?$char_traits@D@std@@V?$allocator@D@2@@std@@U?$pair@KK@2@Ustring_iless@@V?$allocator@U?$pair@KK@std@@@2@@2@Ustring_iless@@V?$allocator@U?$pair@KK@std@@@2@@std@@QBEABU?$pair@$$CBV?$basic_string@DU?$char_traits@D@std@@V?$allocator@D@2@@std@@U?$pair@KK@2@@2@XZ 0048ef90 f i ShortcutKey.obj
 0001:0008dfb0       ??8const_iterator@?$_Tree@V?$basic_string@DU?$char_traits@D@std@@V?$allocator@D@2@@std@@U?$pair@$$CBV?$basic_string@DU?$char_traits@D@std@@V?$allocator@D@2@@std@@U?$pair@KK@2@@2@U_Kfn@?$map@V?$basic_string@DU?$char_traits@D@std@@V?$allocator@D@2@@std@@U?$pair@KK@2@Ustring_iless@@V?$allocator@U?$pair@KK@std@@@2@@2@Ustring_iless@@V?$allocator@U?$pair@KK@std@@@2@@std@@QBE_NABV012@@Z 0048efb0 f i ShortcutKey.obj
 0001:0008dfd0       ??1?$pair@$$CBV?$basic_string@DU?$char_traits@D@std@@V?$allocator@D@2@@std@@UShortFuncInfo@@@std@@QAE@XZ 0048efd0 f i ShortcutKey.obj
 0001:0008e020       ??1?$pair@$$CBV?$basic_string@DU?$char_traits@D@std@@V?$allocator@D@2@@std@@U?$pair@KK@2@@std@@QAE@XZ 0048f020 f i ShortcutKey.obj
 0001:0008e040       ?insert@?$list@V?$basic_string@DU?$char_traits@D@std@@V?$allocator@D@2@@std@@V?$allocator@V?$basic_string@DU?$char_traits@D@std@@V?$allocator@D@2@@std@@@2@@std@@QAEXViterator@12@Vconst_iterator@12@1@Z 0048f040 f i ShortcutKey.obj
 0001:0008e090       ??Fiterator@?$list@V?$basic_string@DU?$char_traits@D@std@@V?$allocator@D@2@@std@@V?$allocator@V?$basic_string@DU?$char_traits@D@std@@V?$allocator@D@2@@std@@@2@@std@@QAEAAV012@XZ 0048f090 f i ShortcutKey.obj
 0001:0008e0c0       ?insert@?$map@V?$basic_string@DU?$char_traits@D@std@@V?$allocator@D@2@@std@@UShortFuncInfo@@Ustring_iless@@V?$allocator@UShortFuncInfo@@@2@@std@@QAE?AU?$pair@Viterator@?$_Tree@V?$basic_string@DU?$char_traits@D@std@@V?$allocator@D@2@@std@@U?$pair@$$CBV?$basic_string@DU?$char_traits@D@std@@V?$allocator@D@2@@std@@UShortFuncInfo@@@2@U_Kfn@?$map@V?$basic_string@DU?$char_traits@D@std@@V?$allocator@D@2@@std@@UShortFuncInfo@@Ustring_iless@@V?$allocator@UShortFuncInfo@@@2@@2@Ustring_iless@@V?$allocator@UShortFuncInfo@@@2@@std@@_N@2@ABU?$pair@$$CBV?$basic_string@DU?$char_traits@D@std@@V?$allocator@D@2@@std@@UShortFuncInfo@@@2@@Z 0048f0c0 f i ShortcutKey.obj
 0001:0008e110       ??0?$_Tree@V?$basic_string@DU?$char_traits@D@std@@V?$allocator@D@2@@std@@U?$pair@$$CBV?$basic_string@DU?$char_traits@D@std@@V?$allocator@D@2@@std@@UShortFuncInfo@@@2@U_Kfn@?$map@V?$basic_string@DU?$char_traits@D@std@@V?$allocator@D@2@@std@@UShortFuncInfo@@Ustring_iless@@V?$allocator@UShortFuncInfo@@@2@@2@Ustring_iless@@V?$allocator@UShortFuncInfo@@@2@@std@@QAE@ABUstring_iless@@_NABV?$allocator@UShortFuncInfo@@@1@@Z 0048f110 f i ShortcutKey.obj
 0001:0008e150       ?begin@?$_Tree@V?$basic_string@DU?$char_traits@D@std@@V?$allocator@D@2@@std@@U?$pair@$$CBV?$basic_string@DU?$char_traits@D@std@@V?$allocator@D@2@@std@@UShortFuncInfo@@@2@U_Kfn@?$map@V?$basic_string@DU?$char_traits@D@std@@V?$allocator@D@2@@std@@UShortFuncInfo@@Ustring_iless@@V?$allocator@UShortFuncInfo@@@2@@2@Ustring_iless@@V?$allocator@UShortFuncInfo@@@2@@std@@QAE?AViterator@12@XZ 0048f150 f i ShortcutKey.obj
 0001:0008e180       ?erase@?$_Tree@V?$basic_string@DU?$char_traits@D@std@@V?$allocator@D@2@@std@@U?$pair@$$CBV?$basic_string@DU?$char_traits@D@std@@V?$allocator@D@2@@std@@UShortFuncInfo@@@2@U_Kfn@?$map@V?$basic_string@DU?$char_traits@D@std@@V?$allocator@D@2@@std@@UShortFuncInfo@@Ustring_iless@@V?$allocator@UShortFuncInfo@@@2@@2@Ustring_iless@@V?$allocator@UShortFuncInfo@@@2@@std@@QAE?AViterator@12@V312@0@Z 0048f180 f i ShortcutKey.obj
 0001:0008e2c0       ?clear@?$_Tree@V?$basic_string@DU?$char_traits@D@std@@V?$allocator@D@2@@std@@U?$pair@$$CBV?$basic_string@DU?$char_traits@D@std@@V?$allocator@D@2@@std@@UShortFuncInfo@@@2@U_Kfn@?$map@V?$basic_string@DU?$char_traits@D@std@@V?$allocator@D@2@@std@@UShortFuncInfo@@Ustring_iless@@V?$allocator@UShortFuncInfo@@@2@@2@Ustring_iless@@V?$allocator@UShortFuncInfo@@@2@@std@@QAEXXZ 0048f2c0 f i ShortcutKey.obj
 0001:0008e300       ?_Freenode@?$_Tree@V?$basic_string@DU?$char_traits@D@std@@V?$allocator@D@2@@std@@U?$pair@$$CBV?$basic_string@DU?$char_traits@D@std@@V?$allocator@D@2@@std@@UShortFuncInfo@@@2@U_Kfn@?$map@V?$basic_string@DU?$char_traits@D@std@@V?$allocator@D@2@@std@@UShortFuncInfo@@Ustring_iless@@V?$allocator@UShortFuncInfo@@@2@@2@Ustring_iless@@V?$allocator@UShortFuncInfo@@@2@@std@@IAEXPAU_Node@12@@Z 0048f300 f i ShortcutKey.obj
 0001:0008e320       ??0?$pair@$$CBV?$basic_string@DU?$char_traits@D@std@@V?$allocator@D@2@@std@@UShortFuncInfo@@@std@@QAE@ABV?$basic_string@DU?$char_traits@D@std@@V?$allocator@D@2@@1@ABUShortFuncInfo@@@Z 0048f320 f i ShortcutKey.obj
 0001:0008e380       ??Diterator@?$_Tree@V?$basic_string@DU?$char_traits@D@std@@V?$allocator@D@2@@std@@U?$pair@$$CBV?$basic_string@DU?$char_traits@D@std@@V?$allocator@D@2@@std@@UShortFuncInfo@@@2@U_Kfn@?$map@V?$basic_string@DU?$char_traits@D@std@@V?$allocator@D@2@@std@@UShortFuncInfo@@Ustring_iless@@V?$allocator@UShortFuncInfo@@@2@@2@Ustring_iless@@V?$allocator@UShortFuncInfo@@@2@@std@@QBEAAU?$pair@$$CBV?$basic_string@DU?$char_traits@D@std@@V?$allocator@D@2@@std@@UShortFuncInfo@@@2@XZ 0048f380 f i ShortcutKey.obj
 0001:0008e3a0       ??Eiterator@?$_Tree@V?$basic_string@DU?$char_traits@D@std@@V?$allocator@D@2@@std@@U?$pair@$$CBV?$basic_string@DU?$char_traits@D@std@@V?$allocator@D@2@@std@@UShortFuncInfo@@@2@U_Kfn@?$map@V?$basic_string@DU?$char_traits@D@std@@V?$allocator@D@2@@std@@UShortFuncInfo@@Ustring_iless@@V?$allocator@UShortFuncInfo@@@2@@2@Ustring_iless@@V?$allocator@UShortFuncInfo@@@2@@std@@QAEAAV012@XZ 0048f3a0 f i ShortcutKey.obj
 0001:0008e3c0       ?insert@?$map@V?$basic_string@DU?$char_traits@D@std@@V?$allocator@D@2@@std@@U?$pair@KK@2@Ustring_iless@@V?$allocator@U?$pair@KK@std@@@2@@std@@QAE?AU?$pair@Viterator@?$_Tree@V?$basic_string@DU?$char_traits@D@std@@V?$allocator@D@2@@std@@U?$pair@$$CBV?$basic_string@DU?$char_traits@D@std@@V?$allocator@D@2@@std@@U?$pair@KK@2@@2@U_Kfn@?$map@V?$basic_string@DU?$char_traits@D@std@@V?$allocator@D@2@@std@@U?$pair@KK@2@Ustring_iless@@V?$allocator@U?$pair@KK@std@@@2@@2@Ustring_iless@@V?$allocator@U?$pair@KK@std@@@2@@std@@_N@2@ABU?$pair@$$CBV?$basic_string@DU?$char_traits@D@std@@V?$allocator@D@2@@std@@U?$pair@KK@2@@2@@Z 0048f3c0 f i ShortcutKey.obj
 0001:0008e410       ?_Value@?$_Tree@V?$basic_string@DU?$char_traits@D@std@@V?$allocator@D@2@@std@@U?$pair@$$CBV?$basic_string@DU?$char_traits@D@std@@V?$allocator@D@2@@std@@U?$pair@KK@2@@2@U_Kfn@?$map@V?$basic_string@DU?$char_traits@D@std@@V?$allocator@D@2@@std@@U?$pair@KK@2@Ustring_iless@@V?$allocator@U?$pair@KK@std@@@2@@2@Ustring_iless@@V?$allocator@U?$pair@KK@std@@@2@@std@@KAAAU?$pair@$$CBV?$basic_string@DU?$char_traits@D@std@@V?$allocator@D@2@@std@@U?$pair@KK@2@@2@PAU_Node@12@@Z 0048f410 f i ShortcutKey.obj
 0001:0008e420       ??0?$_Tree@V?$basic_string@DU?$char_traits@D@std@@V?$allocator@D@2@@std@@U?$pair@$$CBV?$basic_string@DU?$char_traits@D@std@@V?$allocator@D@2@@std@@U?$pair@KK@2@@2@U_Kfn@?$map@V?$basic_string@DU?$char_traits@D@std@@V?$allocator@D@2@@std@@U?$pair@KK@2@Ustring_iless@@V?$allocator@U?$pair@KK@std@@@2@@2@Ustring_iless@@V?$allocator@U?$pair@KK@std@@@2@@std@@QAE@ABUstring_iless@@_NABV?$allocator@U?$pair@KK@std@@@1@@Z 0048f420 f i ShortcutKey.obj
 0001:0008e460       ?begin@?$_Tree@V?$basic_string@DU?$char_traits@D@std@@V?$allocator@D@2@@std@@U?$pair@$$CBV?$basic_string@DU?$char_traits@D@std@@V?$allocator@D@2@@std@@U?$pair@KK@2@@2@U_Kfn@?$map@V?$basic_string@DU?$char_traits@D@std@@V?$allocator@D@2@@std@@U?$pair@KK@2@Ustring_iless@@V?$allocator@U?$pair@KK@std@@@2@@2@Ustring_iless@@V?$allocator@U?$pair@KK@std@@@2@@std@@QAE?AViterator@12@XZ 0048f460 f i ShortcutKey.obj
 0001:0008e490       ?end@?$_Tree@V?$basic_string@DU?$char_traits@D@std@@V?$allocator@D@2@@std@@U?$pair@$$CBV?$basic_string@DU?$char_traits@D@std@@V?$allocator@D@2@@std@@U?$pair@KK@2@@2@U_Kfn@?$map@V?$basic_string@DU?$char_traits@D@std@@V?$allocator@D@2@@std@@U?$pair@KK@2@Ustring_iless@@V?$allocator@U?$pair@KK@std@@@2@@2@Ustring_iless@@V?$allocator@U?$pair@KK@std@@@2@@std@@QAE?AViterator@12@XZ 0048f490 f i ShortcutKey.obj
 0001:0008e4c0       ?end@?$_Tree@V?$basic_string@DU?$char_traits@D@std@@V?$allocator@D@2@@std@@U?$pair@$$CBV?$basic_string@DU?$char_traits@D@std@@V?$allocator@D@2@@std@@U?$pair@KK@2@@2@U_Kfn@?$map@V?$basic_string@DU?$char_traits@D@std@@V?$allocator@D@2@@std@@U?$pair@KK@2@Ustring_iless@@V?$allocator@U?$pair@KK@std@@@2@@2@Ustring_iless@@V?$allocator@U?$pair@KK@std@@@2@@std@@QBE?AVconst_iterator@12@XZ 0048f4c0 f i ShortcutKey.obj
 0001:0008e4f0       ?erase@?$_Tree@V?$basic_string@DU?$char_traits@D@std@@V?$allocator@D@2@@std@@U?$pair@$$CBV?$basic_string@DU?$char_traits@D@std@@V?$allocator@D@2@@std@@U?$pair@KK@2@@2@U_Kfn@?$map@V?$basic_string@DU?$char_traits@D@std@@V?$allocator@D@2@@std@@U?$pair@KK@2@Ustring_iless@@V?$allocator@U?$pair@KK@std@@@2@@2@Ustring_iless@@V?$allocator@U?$pair@KK@std@@@2@@std@@QAE?AViterator@12@V312@0@Z 0048f4f0 f i ShortcutKey.obj
 0001:0008e630       ?find@?$_Tree@V?$basic_string@DU?$char_traits@D@std@@V?$allocator@D@2@@std@@U?$pair@$$CBV?$basic_string@DU?$char_traits@D@std@@V?$allocator@D@2@@std@@U?$pair@KK@2@@2@U_Kfn@?$map@V?$basic_string@DU?$char_traits@D@std@@V?$allocator@D@2@@std@@U?$pair@KK@2@Ustring_iless@@V?$allocator@U?$pair@KK@std@@@2@@2@Ustring_iless@@V?$allocator@U?$pair@KK@std@@@2@@std@@QBE?AVconst_iterator@12@ABV?$basic_string@DU?$char_traits@D@std@@V?$allocator@D@2@@2@@Z 0048f630 f i ShortcutKey.obj
 0001:0008e6d0       ?_Init@?$_Tree@V?$basic_string@DU?$char_traits@D@std@@V?$allocator@D@2@@std@@U?$pair@$$CBV?$basic_string@DU?$char_traits@D@std@@V?$allocator@D@2@@std@@U?$pair@KK@2@@2@U_Kfn@?$map@V?$basic_string@DU?$char_traits@D@std@@V?$allocator@D@2@@std@@U?$pair@KK@2@Ustring_iless@@V?$allocator@U?$pair@KK@std@@@2@@2@Ustring_iless@@V?$allocator@U?$pair@KK@std@@@2@@std@@IAEXXZ 0048f6d0 f i ShortcutKey.obj
 0001:0008e7b0       ?_Freenode@?$_Tree@V?$basic_string@DU?$char_traits@D@std@@V?$allocator@D@2@@std@@U?$pair@$$CBV?$basic_string@DU?$char_traits@D@std@@V?$allocator@D@2@@std@@U?$pair@KK@2@@2@U_Kfn@?$map@V?$basic_string@DU?$char_traits@D@std@@V?$allocator@D@2@@std@@U?$pair@KK@2@Ustring_iless@@V?$allocator@U?$pair@KK@std@@@2@@2@Ustring_iless@@V?$allocator@U?$pair@KK@std@@@2@@std@@IAEXPAU_Node@12@@Z 0048f7b0 f i ShortcutKey.obj
 0001:0008e7d0       ??0?$pair@$$CBV?$basic_string@DU?$char_traits@D@std@@V?$allocator@D@2@@std@@U?$pair@KK@2@@std@@QAE@ABV?$basic_string@DU?$char_traits@D@std@@V?$allocator@D@2@@1@ABU?$pair@KK@1@@Z 0048f7d0 f i ShortcutKey.obj
 0001:0008e800       ??0?$pair@KK@std@@QAE@XZ   0048f800 f i ShortcutKey.obj
 0001:0008e830       ??Diterator@?$_Tree@V?$basic_string@DU?$char_traits@D@std@@V?$allocator@D@2@@std@@U?$pair@$$CBV?$basic_string@DU?$char_traits@D@std@@V?$allocator@D@2@@std@@U?$pair@KK@2@@2@U_Kfn@?$map@V?$basic_string@DU?$char_traits@D@std@@V?$allocator@D@2@@std@@U?$pair@KK@2@Ustring_iless@@V?$allocator@U?$pair@KK@std@@@2@@2@Ustring_iless@@V?$allocator@U?$pair@KK@std@@@2@@std@@QBEAAU?$pair@$$CBV?$basic_string@DU?$char_traits@D@std@@V?$allocator@D@2@@std@@U?$pair@KK@2@@2@XZ 0048f830 f i ShortcutKey.obj
 0001:0008e850       ??0ShortFuncInfo@@QAE@ABU0@@Z 0048f850 f i ShortcutKey.obj
 0001:0008e8c0       ??0?$list@V?$basic_string@DU?$char_traits@D@std@@V?$allocator@D@2@@std@@V?$allocator@V?$basic_string@DU?$char_traits@D@std@@V?$allocator@D@2@@std@@@2@@std@@QAE@ABV01@@Z 0048f8c0 f i ShortcutKey.obj
 0001:0008e930       ?deallocate@?$allocator@UShortFuncInfo@@@std@@QAEXPAXI@Z 0048f930 f i ShortcutKey.obj
 0001:0008e950       ?size@?$_Tree@V?$basic_string@DU?$char_traits@D@std@@V?$allocator@D@2@@std@@U?$pair@$$CBV?$basic_string@DU?$char_traits@D@std@@V?$allocator@D@2@@std@@UShortFuncInfo@@@2@U_Kfn@?$map@V?$basic_string@DU?$char_traits@D@std@@V?$allocator@D@2@@std@@UShortFuncInfo@@Ustring_iless@@V?$allocator@UShortFuncInfo@@@2@@2@Ustring_iless@@V?$allocator@UShortFuncInfo@@@2@@std@@QBEIXZ 0048f950 f i ShortcutKey.obj
 0001:0008e970       ?insert@?$_Tree@V?$basic_string@DU?$char_traits@D@std@@V?$allocator@D@2@@std@@U?$pair@$$CBV?$basic_string@DU?$char_traits@D@std@@V?$allocator@D@2@@std@@UShortFuncInfo@@@2@U_Kfn@?$map@V?$basic_string@DU?$char_traits@D@std@@V?$allocator@D@2@@std@@UShortFuncInfo@@Ustring_iless@@V?$allocator@UShortFuncInfo@@@2@@2@Ustring_iless@@V?$allocator@UShortFuncInfo@@@2@@std@@QAE?AU?$pair@Viterator@?$_Tree@V?$basic_string@DU?$char_traits@D@std@@V?$allocator@D@2@@std@@U?$pair@$$CBV?$basic_string@DU?$char_traits@D@std@@V?$allocator@D@2@@std@@UShortFuncInfo@@@2@U_Kfn@?$map@V?$basic_string@DU?$char_traits@D@std@@V?$allocator@D@2@@std@@UShortFuncInfo@@Ustring_iless@@V?$allocator@UShortFuncInfo@@@2@@2@Ustring_iless@@V?$allocator@UShortFuncInfo@@@2@@std@@_N@2@ABU?$pair@$$CBV?$basic_string@DU?$char_traits@D@std@@V?$allocator@D@2@@std@@UShortFuncInfo@@@2@@Z 0048f970 f i ShortcutKey.obj
 0001:0008ebb0       ?erase@?$_Tree@V?$basic_string@DU?$char_traits@D@std@@V?$allocator@D@2@@std@@U?$pair@$$CBV?$basic_string@DU?$char_traits@D@std@@V?$allocator@D@2@@std@@UShortFuncInfo@@@2@U_Kfn@?$map@V?$basic_string@DU?$char_traits@D@std@@V?$allocator@D@2@@std@@UShortFuncInfo@@Ustring_iless@@V?$allocator@UShortFuncInfo@@@2@@2@Ustring_iless@@V?$allocator@UShortFuncInfo@@@2@@std@@QAE?AViterator@12@V312@@Z 0048fbb0 f i ShortcutKey.obj
 0001:0008f400       ?_Erase@?$_Tree@V?$basic_string@DU?$char_traits@D@std@@V?$allocator@D@2@@std@@U?$pair@$$CBV?$basic_string@DU?$char_traits@D@std@@V?$allocator@D@2@@std@@UShortFuncInfo@@@2@U_Kfn@?$map@V?$basic_string@DU?$char_traits@D@std@@V?$allocator@D@2@@std@@UShortFuncInfo@@Ustring_iless@@V?$allocator@UShortFuncInfo@@@2@@2@Ustring_iless@@V?$allocator@UShortFuncInfo@@@2@@std@@IAEXPAU_Node@12@@Z 00490400 f i ShortcutKey.obj
 0001:0008f4c0       ?_Init@?$_Tree@V?$basic_string@DU?$char_traits@D@std@@V?$allocator@D@2@@std@@U?$pair@$$CBV?$basic_string@DU?$char_traits@D@std@@V?$allocator@D@2@@std@@UShortFuncInfo@@@2@U_Kfn@?$map@V?$basic_string@DU?$char_traits@D@std@@V?$allocator@D@2@@std@@UShortFuncInfo@@Ustring_iless@@V?$allocator@UShortFuncInfo@@@2@@2@Ustring_iless@@V?$allocator@UShortFuncInfo@@@2@@std@@IAEXXZ 004904c0 f i ShortcutKey.obj
 0001:0008f5a0       ?_Lmost@?$_Tree@V?$basic_string@DU?$char_traits@D@std@@V?$allocator@D@2@@std@@U?$pair@$$CBV?$basic_string@DU?$char_traits@D@std@@V?$allocator@D@2@@std@@UShortFuncInfo@@@2@U_Kfn@?$map@V?$basic_string@DU?$char_traits@D@std@@V?$allocator@D@2@@std@@UShortFuncInfo@@Ustring_iless@@V?$allocator@UShortFuncInfo@@@2@@2@Ustring_iless@@V?$allocator@UShortFuncInfo@@@2@@std@@IAEAAPAU_Node@12@XZ 004905a0 f i ShortcutKey.obj
 0001:0008f5c0       ?_Rmost@?$_Tree@V?$basic_string@DU?$char_traits@D@std@@V?$allocator@D@2@@std@@U?$pair@$$CBV?$basic_string@DU?$char_traits@D@std@@V?$allocator@D@2@@std@@UShortFuncInfo@@@2@U_Kfn@?$map@V?$basic_string@DU?$char_traits@D@std@@V?$allocator@D@2@@std@@UShortFuncInfo@@Ustring_iless@@V?$allocator@UShortFuncInfo@@@2@@2@Ustring_iless@@V?$allocator@UShortFuncInfo@@@2@@std@@IAEAAPAU_Node@12@XZ 004905c0 f i ShortcutKey.obj
 0001:0008f5e0       ?_Root@?$_Tree@V?$basic_string@DU?$char_traits@D@std@@V?$allocator@D@2@@std@@U?$pair@$$CBV?$basic_string@DU?$char_traits@D@std@@V?$allocator@D@2@@std@@UShortFuncInfo@@@2@U_Kfn@?$map@V?$basic_string@DU?$char_traits@D@std@@V?$allocator@D@2@@std@@UShortFuncInfo@@Ustring_iless@@V?$allocator@UShortFuncInfo@@@2@@2@Ustring_iless@@V?$allocator@UShortFuncInfo@@@2@@std@@IAEAAPAU_Node@12@XZ 004905e0 f i ShortcutKey.obj
 0001:0008f600       ?_Inc@const_iterator@?$_Tree@V?$basic_string@DU?$char_traits@D@std@@V?$allocator@D@2@@std@@U?$pair@$$CBV?$basic_string@DU?$char_traits@D@std@@V?$allocator@D@2@@std@@UShortFuncInfo@@@2@U_Kfn@?$map@V?$basic_string@DU?$char_traits@D@std@@V?$allocator@D@2@@std@@UShortFuncInfo@@Ustring_iless@@V?$allocator@UShortFuncInfo@@@2@@2@Ustring_iless@@V?$allocator@UShortFuncInfo@@@2@@std@@QAEXXZ 00490600 f i ShortcutKey.obj
 0001:0008f6e0       ?deallocate@?$allocator@U?$pair@KK@std@@@std@@QAEXPAXI@Z 004906e0 f i ShortcutKey.obj
 0001:0008f700       ?_Key@?$_Tree@V?$basic_string@DU?$char_traits@D@std@@V?$allocator@D@2@@std@@U?$pair@$$CBV?$basic_string@DU?$char_traits@D@std@@V?$allocator@D@2@@std@@U?$pair@KK@2@@2@U_Kfn@?$map@V?$basic_string@DU?$char_traits@D@std@@V?$allocator@D@2@@std@@U?$pair@KK@2@Ustring_iless@@V?$allocator@U?$pair@KK@std@@@2@@2@Ustring_iless@@V?$allocator@U?$pair@KK@std@@@2@@std@@KAABV?$basic_string@DU?$char_traits@D@std@@V?$allocator@D@2@@2@PAU_Node@12@@Z 00490700 f i ShortcutKey.obj
 0001:0008f720       ?_Left@?$_Tree@V?$basic_string@DU?$char_traits@D@std@@V?$allocator@D@2@@std@@U?$pair@$$CBV?$basic_string@DU?$char_traits@D@std@@V?$allocator@D@2@@std@@U?$pair@KK@2@@2@U_Kfn@?$map@V?$basic_string@DU?$char_traits@D@std@@V?$allocator@D@2@@std@@U?$pair@KK@2@Ustring_iless@@V?$allocator@U?$pair@KK@std@@@2@@2@Ustring_iless@@V?$allocator@U?$pair@KK@std@@@2@@std@@KAAAPAU_Node@12@PAU312@@Z 00490720 f i ShortcutKey.obj
 0001:0008f730       ?_Right@?$_Tree@V?$basic_string@DU?$char_traits@D@std@@V?$allocator@D@2@@std@@U?$pair@$$CBV?$basic_string@DU?$char_traits@D@std@@V?$allocator@D@2@@std@@U?$pair@KK@2@@2@U_Kfn@?$map@V?$basic_string@DU?$char_traits@D@std@@V?$allocator@D@2@@std@@U?$pair@KK@2@Ustring_iless@@V?$allocator@U?$pair@KK@std@@@2@@2@Ustring_iless@@V?$allocator@U?$pair@KK@std@@@2@@std@@KAAAPAU_Node@12@PAU312@@Z 00490730 f i ShortcutKey.obj
 0001:0008f740       ?size@?$_Tree@V?$basic_string@DU?$char_traits@D@std@@V?$allocator@D@2@@std@@U?$pair@$$CBV?$basic_string@DU?$char_traits@D@std@@V?$allocator@D@2@@std@@U?$pair@KK@2@@2@U_Kfn@?$map@V?$basic_string@DU?$char_traits@D@std@@V?$allocator@D@2@@std@@U?$pair@KK@2@Ustring_iless@@V?$allocator@U?$pair@KK@std@@@2@@2@Ustring_iless@@V?$allocator@U?$pair@KK@std@@@2@@std@@QBEIXZ 00490740 f i ShortcutKey.obj
 0001:0008f760       ?insert@?$_Tree@V?$basic_string@DU?$char_traits@D@std@@V?$allocator@D@2@@std@@U?$pair@$$CBV?$basic_string@DU?$char_traits@D@std@@V?$allocator@D@2@@std@@U?$pair@KK@2@@2@U_Kfn@?$map@V?$basic_string@DU?$char_traits@D@std@@V?$allocator@D@2@@std@@U?$pair@KK@2@Ustring_iless@@V?$allocator@U?$pair@KK@std@@@2@@2@Ustring_iless@@V?$allocator@U?$pair@KK@std@@@2@@std@@QAE?AU?$pair@Viterator@?$_Tree@V?$basic_string@DU?$char_traits@D@std@@V?$allocator@D@2@@std@@U?$pair@$$CBV?$basic_string@DU?$char_traits@D@std@@V?$allocator@D@2@@std@@U?$pair@KK@2@@2@U_Kfn@?$map@V?$basic_string@DU?$char_traits@D@std@@V?$allocator@D@2@@std@@U?$pair@KK@2@Ustring_iless@@V?$allocator@U?$pair@KK@std@@@2@@2@Ustring_iless@@V?$allocator@U?$pair@KK@std@@@2@@std@@_N@2@ABU?$pair@$$CBV?$basic_string@DU?$char_traits@D@std@@V?$allocator@D@2@@std@@U?$pair@KK@2@@2@@Z 00490760 f i ShortcutKey.obj
 0001:0008f9a0       ?erase@?$_Tree@V?$basic_string@DU?$char_traits@D@std@@V?$allocator@D@2@@std@@U?$pair@$$CBV?$basic_string@DU?$char_traits@D@std@@V?$allocator@D@2@@std@@U?$pair@KK@2@@2@U_Kfn@?$map@V?$basic_string@DU?$char_traits@D@std@@V?$allocator@D@2@@std@@U?$pair@KK@2@Ustring_iless@@V?$allocator@U?$pair@KK@std@@@2@@2@Ustring_iless@@V?$allocator@U?$pair@KK@std@@@2@@std@@QAE?AViterator@12@V312@@Z 004909a0 f i ShortcutKey.obj
 0001:000901f0       ?lower_bound@?$_Tree@V?$basic_string@DU?$char_traits@D@std@@V?$allocator@D@2@@std@@U?$pair@$$CBV?$basic_string@DU?$char_traits@D@std@@V?$allocator@D@2@@std@@U?$pair@KK@2@@2@U_Kfn@?$map@V?$basic_string@DU?$char_traits@D@std@@V?$allocator@D@2@@std@@U?$pair@KK@2@Ustring_iless@@V?$allocator@U?$pair@KK@std@@@2@@2@Ustring_iless@@V?$allocator@U?$pair@KK@std@@@2@@std@@QBE?AVconst_iterator@12@ABV?$basic_string@DU?$char_traits@D@std@@V?$allocator@D@2@@2@@Z 004911f0 f i ShortcutKey.obj
 0001:00090220       ?_Erase@?$_Tree@V?$basic_string@DU?$char_traits@D@std@@V?$allocator@D@2@@std@@U?$pair@$$CBV?$basic_string@DU?$char_traits@D@std@@V?$allocator@D@2@@std@@U?$pair@KK@2@@2@U_Kfn@?$map@V?$basic_string@DU?$char_traits@D@std@@V?$allocator@D@2@@std@@U?$pair@KK@2@Ustring_iless@@V?$allocator@U?$pair@KK@std@@@2@@2@Ustring_iless@@V?$allocator@U?$pair@KK@std@@@2@@std@@IAEXPAU_Node@12@@Z 00491220 f i ShortcutKey.obj
 0001:000902e0       ?_Lmost@?$_Tree@V?$basic_string@DU?$char_traits@D@std@@V?$allocator@D@2@@std@@U?$pair@$$CBV?$basic_string@DU?$char_traits@D@std@@V?$allocator@D@2@@std@@U?$pair@KK@2@@2@U_Kfn@?$map@V?$basic_string@DU?$char_traits@D@std@@V?$allocator@D@2@@std@@U?$pair@KK@2@Ustring_iless@@V?$allocator@U?$pair@KK@std@@@2@@2@Ustring_iless@@V?$allocator@U?$pair@KK@std@@@2@@std@@IAEAAPAU_Node@12@XZ 004912e0 f i ShortcutKey.obj
 0001:00090300       ?_Max@?$_Tree@V?$basic_string@DU?$char_traits@D@std@@V?$allocator@D@2@@std@@U?$pair@$$CBV?$basic_string@DU?$char_traits@D@std@@V?$allocator@D@2@@std@@U?$pair@KK@2@@2@U_Kfn@?$map@V?$basic_string@DU?$char_traits@D@std@@V?$allocator@D@2@@std@@U?$pair@KK@2@Ustring_iless@@V?$allocator@U?$pair@KK@std@@@2@@2@Ustring_iless@@V?$allocator@U?$pair@KK@std@@@2@@std@@KAPAU_Node@12@PAU312@@Z 00491300 f i ShortcutKey.obj
 0001:00090380       ?_Min@?$_Tree@V?$basic_string@DU?$char_traits@D@std@@V?$allocator@D@2@@std@@U?$pair@$$CBV?$basic_string@DU?$char_traits@D@std@@V?$allocator@D@2@@std@@U?$pair@KK@2@@2@U_Kfn@?$map@V?$basic_string@DU?$char_traits@D@std@@V?$allocator@D@2@@std@@U?$pair@KK@2@Ustring_iless@@V?$allocator@U?$pair@KK@std@@@2@@2@Ustring_iless@@V?$allocator@U?$pair@KK@std@@@2@@std@@KAPAU_Node@12@PAU312@@Z 00491380 f i ShortcutKey.obj
 0001:00090400       ?_Rmost@?$_Tree@V?$basic_string@DU?$char_traits@D@std@@V?$allocator@D@2@@std@@U?$pair@$$CBV?$basic_string@DU?$char_traits@D@std@@V?$allocator@D@2@@std@@U?$pair@KK@2@@2@U_Kfn@?$map@V?$basic_string@DU?$char_traits@D@std@@V?$allocator@D@2@@std@@U?$pair@KK@2@Ustring_iless@@V?$allocator@U?$pair@KK@std@@@2@@2@Ustring_iless@@V?$allocator@U?$pair@KK@std@@@2@@std@@IAEAAPAU_Node@12@XZ 00491400 f i ShortcutKey.obj
 0001:00090420       ?_Root@?$_Tree@V?$basic_string@DU?$char_traits@D@std@@V?$allocator@D@2@@std@@U?$pair@$$CBV?$basic_string@DU?$char_traits@D@std@@V?$allocator@D@2@@std@@U?$pair@KK@2@@2@U_Kfn@?$map@V?$basic_string@DU?$char_traits@D@std@@V?$allocator@D@2@@std@@U?$pair@KK@2@Ustring_iless@@V?$allocator@U?$pair@KK@std@@@2@@2@Ustring_iless@@V?$allocator@U?$pair@KK@std@@@2@@std@@IAEAAPAU_Node@12@XZ 00491420 f i ShortcutKey.obj
 0001:00090440       ?_Buynode@?$_Tree@V?$basic_string@DU?$char_traits@D@std@@V?$allocator@D@2@@std@@U?$pair@$$CBV?$basic_string@DU?$char_traits@D@std@@V?$allocator@D@2@@std@@U?$pair@KK@2@@2@U_Kfn@?$map@V?$basic_string@DU?$char_traits@D@std@@V?$allocator@D@2@@std@@U?$pair@KK@2@Ustring_iless@@V?$allocator@U?$pair@KK@std@@@2@@2@Ustring_iless@@V?$allocator@U?$pair@KK@std@@@2@@std@@IAEPAU_Node@12@PAU312@W4_Redbl@12@@Z 00491440 f i ShortcutKey.obj
 0001:00090490       ??0const_iterator@?$_Tree@V?$basic_string@DU?$char_traits@D@std@@V?$allocator@D@2@@std@@U?$pair@$$CBV?$basic_string@DU?$char_traits@D@std@@V?$allocator@D@2@@std@@U?$pair@KK@2@@2@U_Kfn@?$map@V?$basic_string@DU?$char_traits@D@std@@V?$allocator@D@2@@std@@U?$pair@KK@2@Ustring_iless@@V?$allocator@U?$pair@KK@std@@@2@@2@Ustring_iless@@V?$allocator@U?$pair@KK@std@@@2@@std@@QAE@PAU_Node@12@@Z 00491490 f i ShortcutKey.obj
 0001:000904b0       ?_Mynode@const_iterator@?$_Tree@V?$basic_string@DU?$char_traits@D@std@@V?$allocator@D@2@@std@@U?$pair@$$CBV?$basic_string@DU?$char_traits@D@std@@V?$allocator@D@2@@std@@U?$pair@KK@2@@2@U_Kfn@?$map@V?$basic_string@DU?$char_traits@D@std@@V?$allocator@D@2@@std@@U?$pair@KK@2@Ustring_iless@@V?$allocator@U?$pair@KK@std@@@2@@2@Ustring_iless@@V?$allocator@U?$pair@KK@std@@@2@@std@@QBEPAU_Node@23@XZ 004914b0 f i ShortcutKey.obj
 0001:000904c0       ??0iterator@?$_Tree@V?$basic_string@DU?$char_traits@D@std@@V?$allocator@D@2@@std@@U?$pair@$$CBV?$basic_string@DU?$char_traits@D@std@@V?$allocator@D@2@@std@@U?$pair@KK@2@@2@U_Kfn@?$map@V?$basic_string@DU?$char_traits@D@std@@V?$allocator@D@2@@std@@U?$pair@KK@2@Ustring_iless@@V?$allocator@U?$pair@KK@std@@@2@@2@Ustring_iless@@V?$allocator@U?$pair@KK@std@@@2@@std@@QAE@PAU_Node@12@@Z 004914c0 f i ShortcutKey.obj
 0001:000904e0       ??Eiterator@?$_Tree@V?$basic_string@DU?$char_traits@D@std@@V?$allocator@D@2@@std@@U?$pair@$$CBV?$basic_string@DU?$char_traits@D@std@@V?$allocator@D@2@@std@@U?$pair@KK@2@@2@U_Kfn@?$map@V?$basic_string@DU?$char_traits@D@std@@V?$allocator@D@2@@std@@U?$pair@KK@2@Ustring_iless@@V?$allocator@U?$pair@KK@std@@@2@@2@Ustring_iless@@V?$allocator@U?$pair@KK@std@@@2@@std@@QAE?AV012@H@Z 004914e0 f i ShortcutKey.obj
 0001:00090510       ??9iterator@?$_Tree@V?$basic_string@DU?$char_traits@D@std@@V?$allocator@D@2@@std@@U?$pair@$$CBV?$basic_string@DU?$char_traits@D@std@@V?$allocator@D@2@@std@@U?$pair@KK@2@@2@U_Kfn@?$map@V?$basic_string@DU?$char_traits@D@std@@V?$allocator@D@2@@std@@U?$pair@KK@2@Ustring_iless@@V?$allocator@U?$pair@KK@std@@@2@@2@Ustring_iless@@V?$allocator@U?$pair@KK@std@@@2@@std@@QBE_NABV012@@Z 00491510 f i ShortcutKey.obj
 0001:00090540       ??0?$pair@Viterator@?$_Tree@V?$basic_string@DU?$char_traits@D@std@@V?$allocator@D@2@@std@@U?$pair@$$CBV?$basic_string@DU?$char_traits@D@std@@V?$allocator@D@2@@std@@UShortFuncInfo@@@2@U_Kfn@?$map@V?$basic_string@DU?$char_traits@D@std@@V?$allocator@D@2@@std@@UShortFuncInfo@@Ustring_iless@@V?$allocator@UShortFuncInfo@@@2@@2@Ustring_iless@@V?$allocator@UShortFuncInfo@@@2@@std@@_N@std@@QAE@ABViterator@?$_Tree@V?$basic_string@DU?$char_traits@D@std@@V?$allocator@D@2@@std@@U?$pair@$$CBV?$basic_string@DU?$char_traits@D@std@@V?$allocator@D@2@@std@@UShortFuncInfo@@@2@U_Kfn@?$map@V?$basic_string@DU?$char_traits@D@std@@V?$allocator@D@2@@std@@UShortFuncInfo@@Ustring_iless@@V?$allocator@UShortFuncInfo@@@2@@2@Ustring_iless@@V?$allocator@UShortFuncInfo@@@2@@1@AB_N@Z 00491540 f i ShortcutKey.obj
 0001:00090570       ??0?$pair@Viterator@?$_Tree@V?$basic_string@DU?$char_traits@D@std@@V?$allocator@D@2@@std@@U?$pair@$$CBV?$basic_string@DU?$char_traits@D@std@@V?$allocator@D@2@@std@@U?$pair@KK@2@@2@U_Kfn@?$map@V?$basic_string@DU?$char_traits@D@std@@V?$allocator@D@2@@std@@U?$pair@KK@2@Ustring_iless@@V?$allocator@U?$pair@KK@std@@@2@@2@Ustring_iless@@V?$allocator@U?$pair@KK@std@@@2@@std@@_N@std@@QAE@ABViterator@?$_Tree@V?$basic_string@DU?$char_traits@D@std@@V?$allocator@D@2@@std@@U?$pair@$$CBV?$basic_string@DU?$char_traits@D@std@@V?$allocator@D@2@@std@@U?$pair@KK@2@@2@U_Kfn@?$map@V?$basic_string@DU?$char_traits@D@std@@V?$allocator@D@2@@std@@U?$pair@KK@2@Ustring_iless@@V?$allocator@U?$pair@KK@std@@@2@@2@Ustring_iless@@V?$allocator@U?$pair@KK@std@@@2@@1@AB_N@Z 00491570 f i ShortcutKey.obj
 0001:000905a0       ?_Color@?$_Tree@V?$basic_string@DU?$char_traits@D@std@@V?$allocator@D@2@@std@@U?$pair@$$CBV?$basic_string@DU?$char_traits@D@std@@V?$allocator@D@2@@std@@UShortFuncInfo@@@2@U_Kfn@?$map@V?$basic_string@DU?$char_traits@D@std@@V?$allocator@D@2@@std@@UShortFuncInfo@@Ustring_iless@@V?$allocator@UShortFuncInfo@@@2@@2@Ustring_iless@@V?$allocator@UShortFuncInfo@@@2@@std@@KAAAW4_Redbl@12@PAU_Node@12@@Z 004915a0 f i ShortcutKey.obj
 0001:000905b0       ?_Insert@?$_Tree@V?$basic_string@DU?$char_traits@D@std@@V?$allocator@D@2@@std@@U?$pair@$$CBV?$basic_string@DU?$char_traits@D@std@@V?$allocator@D@2@@std@@UShortFuncInfo@@@2@U_Kfn@?$map@V?$basic_string@DU?$char_traits@D@std@@V?$allocator@D@2@@std@@UShortFuncInfo@@Ustring_iless@@V?$allocator@UShortFuncInfo@@@2@@2@Ustring_iless@@V?$allocator@UShortFuncInfo@@@2@@std@@IAE?AViterator@12@PAU_Node@12@0ABU?$pair@$$CBV?$basic_string@DU?$char_traits@D@std@@V?$allocator@D@2@@std@@UShortFuncInfo@@@2@@Z 004915b0 f i ShortcutKey.obj
 0001:00090a80       ?_Lrotate@?$_Tree@V?$basic_string@DU?$char_traits@D@std@@V?$allocator@D@2@@std@@U?$pair@$$CBV?$basic_string@DU?$char_traits@D@std@@V?$allocator@D@2@@std@@UShortFuncInfo@@@2@U_Kfn@?$map@V?$basic_string@DU?$char_traits@D@std@@V?$allocator@D@2@@std@@UShortFuncInfo@@Ustring_iless@@V?$allocator@UShortFuncInfo@@@2@@2@Ustring_iless@@V?$allocator@UShortFuncInfo@@@2@@std@@IAEXPAU_Node@12@@Z 00491a80 f i ShortcutKey.obj
 0001:00090bf0       ?_Max@?$_Tree@V?$basic_string@DU?$char_traits@D@std@@V?$allocator@D@2@@std@@U?$pair@$$CBV?$basic_string@DU?$char_traits@D@std@@V?$allocator@D@2@@std@@UShortFuncInfo@@@2@U_Kfn@?$map@V?$basic_string@DU?$char_traits@D@std@@V?$allocator@D@2@@std@@UShortFuncInfo@@Ustring_iless@@V?$allocator@UShortFuncInfo@@@2@@2@Ustring_iless@@V?$allocator@UShortFuncInfo@@@2@@std@@KAPAU_Node@12@PAU312@@Z 00491bf0 f i ShortcutKey.obj
 0001:00090c70       ?_Min@?$_Tree@V?$basic_string@DU?$char_traits@D@std@@V?$allocator@D@2@@std@@U?$pair@$$CBV?$basic_string@DU?$char_traits@D@std@@V?$allocator@D@2@@std@@UShortFuncInfo@@@2@U_Kfn@?$map@V?$basic_string@DU?$char_traits@D@std@@V?$allocator@D@2@@std@@UShortFuncInfo@@Ustring_iless@@V?$allocator@UShortFuncInfo@@@2@@2@Ustring_iless@@V?$allocator@UShortFuncInfo@@@2@@std@@KAPAU_Node@12@PAU312@@Z 00491c70 f i ShortcutKey.obj
 0001:00090cf0       ?_Rrotate@?$_Tree@V?$basic_string@DU?$char_traits@D@std@@V?$allocator@D@2@@std@@U?$pair@$$CBV?$basic_string@DU?$char_traits@D@std@@V?$allocator@D@2@@std@@UShortFuncInfo@@@2@U_Kfn@?$map@V?$basic_string@DU?$char_traits@D@std@@V?$allocator@D@2@@std@@UShortFuncInfo@@Ustring_iless@@V?$allocator@UShortFuncInfo@@@2@@2@Ustring_iless@@V?$allocator@UShortFuncInfo@@@2@@std@@IAEXPAU_Node@12@@Z 00491cf0 f i ShortcutKey.obj
 0001:00090e60       ?_Buynode@?$_Tree@V?$basic_string@DU?$char_traits@D@std@@V?$allocator@D@2@@std@@U?$pair@$$CBV?$basic_string@DU?$char_traits@D@std@@V?$allocator@D@2@@std@@UShortFuncInfo@@@2@U_Kfn@?$map@V?$basic_string@DU?$char_traits@D@std@@V?$allocator@D@2@@std@@UShortFuncInfo@@Ustring_iless@@V?$allocator@UShortFuncInfo@@@2@@2@Ustring_iless@@V?$allocator@UShortFuncInfo@@@2@@std@@IAEPAU_Node@12@PAU312@W4_Redbl@12@@Z 00491e60 f i ShortcutKey.obj
 0001:00090eb0       ?_Destval@?$_Tree@V?$basic_string@DU?$char_traits@D@std@@V?$allocator@D@2@@std@@U?$pair@$$CBV?$basic_string@DU?$char_traits@D@std@@V?$allocator@D@2@@std@@UShortFuncInfo@@@2@U_Kfn@?$map@V?$basic_string@DU?$char_traits@D@std@@V?$allocator@D@2@@std@@UShortFuncInfo@@Ustring_iless@@V?$allocator@UShortFuncInfo@@@2@@2@Ustring_iless@@V?$allocator@UShortFuncInfo@@@2@@std@@IAEXPAU?$pair@$$CBV?$basic_string@DU?$char_traits@D@std@@V?$allocator@D@2@@std@@UShortFuncInfo@@@2@@Z 00491eb0 f i ShortcutKey.obj
 0001:00090ed0       ??Fiterator@?$_Tree@V?$basic_string@DU?$char_traits@D@std@@V?$allocator@D@2@@std@@U?$pair@$$CBV?$basic_string@DU?$char_traits@D@std@@V?$allocator@D@2@@std@@UShortFuncInfo@@@2@U_Kfn@?$map@V?$basic_string@DU?$char_traits@D@std@@V?$allocator@D@2@@std@@UShortFuncInfo@@Ustring_iless@@V?$allocator@UShortFuncInfo@@@2@@2@Ustring_iless@@V?$allocator@UShortFuncInfo@@@2@@std@@QAEAAV012@XZ 00491ed0 f i ShortcutKey.obj
 0001:00090ef0       ??R_Kfn@?$map@V?$basic_string@DU?$char_traits@D@std@@V?$allocator@D@2@@std@@U?$pair@KK@2@Ustring_iless@@V?$allocator@U?$pair@KK@std@@@2@@std@@QBEABV?$basic_string@DU?$char_traits@D@std@@V?$allocator@D@2@@2@ABU?$pair@$$CBV?$basic_string@DU?$char_traits@D@std@@V?$allocator@D@2@@std@@U?$pair@KK@2@@2@@Z 00491ef0 f i ShortcutKey.obj
 0001:00090f00       ?_Charalloc@?$allocator@U?$pair@KK@std@@@std@@QAEPADI@Z 00491f00 f i ShortcutKey.obj
 0001:00090f20       ?_Color@?$_Tree@V?$basic_string@DU?$char_traits@D@std@@V?$allocator@D@2@@std@@U?$pair@$$CBV?$basic_string@DU?$char_traits@D@std@@V?$allocator@D@2@@std@@U?$pair@KK@2@@2@U_Kfn@?$map@V?$basic_string@DU?$char_traits@D@std@@V?$allocator@D@2@@std@@U?$pair@KK@2@Ustring_iless@@V?$allocator@U?$pair@KK@std@@@2@@2@Ustring_iless@@V?$allocator@U?$pair@KK@std@@@2@@std@@KAAAW4_Redbl@12@PAU_Node@12@@Z 00491f20 f i ShortcutKey.obj
 0001:00090f30       ?_Parent@?$_Tree@V?$basic_string@DU?$char_traits@D@std@@V?$allocator@D@2@@std@@U?$pair@$$CBV?$basic_string@DU?$char_traits@D@std@@V?$allocator@D@2@@std@@U?$pair@KK@2@@2@U_Kfn@?$map@V?$basic_string@DU?$char_traits@D@std@@V?$allocator@D@2@@std@@U?$pair@KK@2@Ustring_iless@@V?$allocator@U?$pair@KK@std@@@2@@2@Ustring_iless@@V?$allocator@U?$pair@KK@std@@@2@@std@@KAAAPAU_Node@12@PAU312@@Z 00491f30 f i ShortcutKey.obj
 0001:00090f40       ?_Insert@?$_Tree@V?$basic_string@DU?$char_traits@D@std@@V?$allocator@D@2@@std@@U?$pair@$$CBV?$basic_string@DU?$char_traits@D@std@@V?$allocator@D@2@@std@@U?$pair@KK@2@@2@U_Kfn@?$map@V?$basic_string@DU?$char_traits@D@std@@V?$allocator@D@2@@std@@U?$pair@KK@2@Ustring_iless@@V?$allocator@U?$pair@KK@std@@@2@@2@Ustring_iless@@V?$allocator@U?$pair@KK@std@@@2@@std@@IAE?AViterator@12@PAU_Node@12@0ABU?$pair@$$CBV?$basic_string@DU?$char_traits@D@std@@V?$allocator@D@2@@std@@U?$pair@KK@2@@2@@Z 00491f40 f i ShortcutKey.obj
 0001:00091410       ?_Lbound@?$_Tree@V?$basic_string@DU?$char_traits@D@std@@V?$allocator@D@2@@std@@U?$pair@$$CBV?$basic_string@DU?$char_traits@D@std@@V?$allocator@D@2@@std@@U?$pair@KK@2@@2@U_Kfn@?$map@V?$basic_string@DU?$char_traits@D@std@@V?$allocator@D@2@@std@@U?$pair@KK@2@Ustring_iless@@V?$allocator@U?$pair@KK@std@@@2@@2@Ustring_iless@@V?$allocator@U?$pair@KK@std@@@2@@std@@IBEPAU_Node@12@ABV?$basic_string@DU?$char_traits@D@std@@V?$allocator@D@2@@2@@Z 00492410 f i ShortcutKey.obj
 0001:000914e0       ?_Root@?$_Tree@V?$basic_string@DU?$char_traits@D@std@@V?$allocator@D@2@@std@@U?$pair@$$CBV?$basic_string@DU?$char_traits@D@std@@V?$allocator@D@2@@std@@U?$pair@KK@2@@2@U_Kfn@?$map@V?$basic_string@DU?$char_traits@D@std@@V?$allocator@D@2@@std@@U?$pair@KK@2@Ustring_iless@@V?$allocator@U?$pair@KK@std@@@2@@2@Ustring_iless@@V?$allocator@U?$pair@KK@std@@@2@@std@@IBEAAPAU_Node@12@XZ 004924e0 f i ShortcutKey.obj
 0001:00091500       ?_Lrotate@?$_Tree@V?$basic_string@DU?$char_traits@D@std@@V?$allocator@D@2@@std@@U?$pair@$$CBV?$basic_string@DU?$char_traits@D@std@@V?$allocator@D@2@@std@@U?$pair@KK@2@@2@U_Kfn@?$map@V?$basic_string@DU?$char_traits@D@std@@V?$allocator@D@2@@std@@U?$pair@KK@2@Ustring_iless@@V?$allocator@U?$pair@KK@std@@@2@@2@Ustring_iless@@V?$allocator@U?$pair@KK@std@@@2@@std@@IAEXPAU_Node@12@@Z 00492500 f i ShortcutKey.obj
 0001:00091670       ?_Rrotate@?$_Tree@V?$basic_string@DU?$char_traits@D@std@@V?$allocator@D@2@@std@@U?$pair@$$CBV?$basic_string@DU?$char_traits@D@std@@V?$allocator@D@2@@std@@U?$pair@KK@2@@2@U_Kfn@?$map@V?$basic_string@DU?$char_traits@D@std@@V?$allocator@D@2@@std@@U?$pair@KK@2@Ustring_iless@@V?$allocator@U?$pair@KK@std@@@2@@2@Ustring_iless@@V?$allocator@U?$pair@KK@std@@@2@@std@@IAEXPAU_Node@12@@Z 00492670 f i ShortcutKey.obj
 0001:000917e0       ?_Consval@?$_Tree@V?$basic_string@DU?$char_traits@D@std@@V?$allocator@D@2@@std@@U?$pair@$$CBV?$basic_string@DU?$char_traits@D@std@@V?$allocator@D@2@@std@@U?$pair@KK@2@@2@U_Kfn@?$map@V?$basic_string@DU?$char_traits@D@std@@V?$allocator@D@2@@std@@U?$pair@KK@2@Ustring_iless@@V?$allocator@U?$pair@KK@std@@@2@@2@Ustring_iless@@V?$allocator@U?$pair@KK@std@@@2@@std@@IAEXPAU?$pair@$$CBV?$basic_string@DU?$char_traits@D@std@@V?$allocator@D@2@@std@@U?$pair@KK@2@@2@ABU32@@Z 004927e0 f i ShortcutKey.obj
 0001:00091800       ?_Destval@?$_Tree@V?$basic_string@DU?$char_traits@D@std@@V?$allocator@D@2@@std@@U?$pair@$$CBV?$basic_string@DU?$char_traits@D@std@@V?$allocator@D@2@@std@@U?$pair@KK@2@@2@U_Kfn@?$map@V?$basic_string@DU?$char_traits@D@std@@V?$allocator@D@2@@std@@U?$pair@KK@2@Ustring_iless@@V?$allocator@U?$pair@KK@std@@@2@@2@Ustring_iless@@V?$allocator@U?$pair@KK@std@@@2@@std@@IAEXPAU?$pair@$$CBV?$basic_string@DU?$char_traits@D@std@@V?$allocator@D@2@@std@@U?$pair@KK@2@@2@@Z 00492800 f i ShortcutKey.obj
 0001:00091820       ??Eiterator@?$_Tree@V?$basic_string@DU?$char_traits@D@std@@V?$allocator@D@2@@std@@U?$pair@$$CBV?$basic_string@DU?$char_traits@D@std@@V?$allocator@D@2@@std@@U?$pair@KK@2@@2@U_Kfn@?$map@V?$basic_string@DU?$char_traits@D@std@@V?$allocator@D@2@@std@@U?$pair@KK@2@Ustring_iless@@V?$allocator@U?$pair@KK@std@@@2@@2@Ustring_iless@@V?$allocator@U?$pair@KK@std@@@2@@std@@QAEAAV012@XZ 00492820 f i ShortcutKey.obj
 0001:00091840       ??Fiterator@?$_Tree@V?$basic_string@DU?$char_traits@D@std@@V?$allocator@D@2@@std@@U?$pair@$$CBV?$basic_string@DU?$char_traits@D@std@@V?$allocator@D@2@@std@@U?$pair@KK@2@@2@U_Kfn@?$map@V?$basic_string@DU?$char_traits@D@std@@V?$allocator@D@2@@std@@U?$pair@KK@2@Ustring_iless@@V?$allocator@U?$pair@KK@std@@@2@@2@Ustring_iless@@V?$allocator@U?$pair@KK@std@@@2@@std@@QAEAAV012@XZ 00492840 f i ShortcutKey.obj
 0001:00091860       ??8iterator@?$_Tree@V?$basic_string@DU?$char_traits@D@std@@V?$allocator@D@2@@std@@U?$pair@$$CBV?$basic_string@DU?$char_traits@D@std@@V?$allocator@D@2@@std@@U?$pair@KK@2@@2@U_Kfn@?$map@V?$basic_string@DU?$char_traits@D@std@@V?$allocator@D@2@@std@@U?$pair@KK@2@Ustring_iless@@V?$allocator@U?$pair@KK@std@@@2@@2@Ustring_iless@@V?$allocator@U?$pair@KK@std@@@2@@std@@QBE_NABV012@@Z 00492860 f i ShortcutKey.obj
 0001:00091880       ?_Charalloc@?$allocator@UShortFuncInfo@@@std@@QAEPADI@Z 00492880 f i ShortcutKey.obj
 0001:000918a0       ?_Consval@?$_Tree@V?$basic_string@DU?$char_traits@D@std@@V?$allocator@D@2@@std@@U?$pair@$$CBV?$basic_string@DU?$char_traits@D@std@@V?$allocator@D@2@@std@@UShortFuncInfo@@@2@U_Kfn@?$map@V?$basic_string@DU?$char_traits@D@std@@V?$allocator@D@2@@std@@UShortFuncInfo@@Ustring_iless@@V?$allocator@UShortFuncInfo@@@2@@2@Ustring_iless@@V?$allocator@UShortFuncInfo@@@2@@std@@IAEXPAU?$pair@$$CBV?$basic_string@DU?$char_traits@D@std@@V?$allocator@D@2@@std@@UShortFuncInfo@@@2@ABU32@@Z 004928a0 f i ShortcutKey.obj
 0001:000918c0       ?_Dec@const_iterator@?$_Tree@V?$basic_string@DU?$char_traits@D@std@@V?$allocator@D@2@@std@@U?$pair@$$CBV?$basic_string@DU?$char_traits@D@std@@V?$allocator@D@2@@std@@UShortFuncInfo@@@2@U_Kfn@?$map@V?$basic_string@DU?$char_traits@D@std@@V?$allocator@D@2@@std@@UShortFuncInfo@@Ustring_iless@@V?$allocator@UShortFuncInfo@@@2@@2@Ustring_iless@@V?$allocator@UShortFuncInfo@@@2@@std@@QAEXXZ 004928c0 f i ShortcutKey.obj
 0001:000919d0       ?_Dec@const_iterator@?$_Tree@V?$basic_string@DU?$char_traits@D@std@@V?$allocator@D@2@@std@@U?$pair@$$CBV?$basic_string@DU?$char_traits@D@std@@V?$allocator@D@2@@std@@U?$pair@KK@2@@2@U_Kfn@?$map@V?$basic_string@DU?$char_traits@D@std@@V?$allocator@D@2@@std@@U?$pair@KK@2@Ustring_iless@@V?$allocator@U?$pair@KK@std@@@2@@2@Ustring_iless@@V?$allocator@U?$pair@KK@std@@@2@@std@@QAEXXZ 004929d0 f i ShortcutKey.obj
 0001:00091ae0       ?_Inc@const_iterator@?$_Tree@V?$basic_string@DU?$char_traits@D@std@@V?$allocator@D@2@@std@@U?$pair@$$CBV?$basic_string@DU?$char_traits@D@std@@V?$allocator@D@2@@std@@U?$pair@KK@2@@2@U_Kfn@?$map@V?$basic_string@DU?$char_traits@D@std@@V?$allocator@D@2@@std@@U?$pair@KK@2@Ustring_iless@@V?$allocator@U?$pair@KK@std@@@2@@2@Ustring_iless@@V?$allocator@U?$pair@KK@std@@@2@@std@@QAEXXZ 00492ae0 f i ShortcutKey.obj
 0001:00091bc0       ?make_pair@std@@YA?AU?$pair@KK@1@ABK0@Z 00492bc0 f i ShortcutKey.obj
 0001:00091bf0       ?swap@std@@YAXAAW4_Redbl@?$_Tree@V?$basic_string@DU?$char_traits@D@std@@V?$allocator@D@2@@std@@U?$pair@$$CBV?$basic_string@DU?$char_traits@D@std@@V?$allocator@D@2@@std@@UShortFuncInfo@@@2@U_Kfn@?$map@V?$basic_string@DU?$char_traits@D@std@@V?$allocator@D@2@@std@@UShortFuncInfo@@Ustring_iless@@V?$allocator@UShortFuncInfo@@@2@@2@Ustring_iless@@V?$allocator@UShortFuncInfo@@@2@@1@0@Z 00492bf0 f i ShortcutKey.obj
 0001:00091c20       ?swap@std@@YAXAAW4_Redbl@?$_Tree@V?$basic_string@DU?$char_traits@D@std@@V?$allocator@D@2@@std@@U?$pair@$$CBV?$basic_string@DU?$char_traits@D@std@@V?$allocator@D@2@@std@@U?$pair@KK@2@@2@U_Kfn@?$map@V?$basic_string@DU?$char_traits@D@std@@V?$allocator@D@2@@std@@U?$pair@KK@2@Ustring_iless@@V?$allocator@U?$pair@KK@std@@@2@@2@Ustring_iless@@V?$allocator@U?$pair@KK@std@@@2@@1@0@Z 00492c20 f i ShortcutKey.obj
 0001:00091c50       ?_Destroy@std@@YAXPAU?$pair@$$CBV?$basic_string@DU?$char_traits@D@std@@V?$allocator@D@2@@std@@UShortFuncInfo@@@1@@Z 00492c50 f i ShortcutKey.obj
 0001:00091c60       ?_Construct@std@@YAXPAU?$pair@$$CBV?$basic_string@DU?$char_traits@D@std@@V?$allocator@D@2@@std@@U?$pair@KK@2@@1@ABU21@@Z 00492c60 f i ShortcutKey.obj
 0001:00091cd0       ?_Destroy@std@@YAXPAU?$pair@$$CBV?$basic_string@DU?$char_traits@D@std@@V?$allocator@D@2@@std@@U?$pair@KK@2@@1@@Z 00492cd0 f i ShortcutKey.obj
 0001:00091ce0       ?_Construct@std@@YAXPAU?$pair@$$CBV?$basic_string@DU?$char_traits@D@std@@V?$allocator@D@2@@std@@UShortFuncInfo@@@1@ABU21@@Z 00492ce0 f i ShortcutKey.obj
 0001:00091d50       ??_G?$pair@$$CBV?$basic_string@DU?$char_traits@D@std@@V?$allocator@D@2@@std@@UShortFuncInfo@@@std@@QAEPAXI@Z 00492d50 f i ShortcutKey.obj
 0001:00091d80       ??0?$pair@$$CBV?$basic_string@DU?$char_traits@D@std@@V?$allocator@D@2@@std@@U?$pair@KK@2@@std@@QAE@ABU01@@Z 00492d80 f i ShortcutKey.obj
 0001:00091db0       ??_G?$pair@$$CBV?$basic_string@DU?$char_traits@D@std@@V?$allocator@D@2@@std@@U?$pair@KK@2@@std@@QAEPAXI@Z 00492db0 f i ShortcutKey.obj
 0001:00091de0       ??0?$pair@$$CBV?$basic_string@DU?$char_traits@D@std@@V?$allocator@D@2@@std@@UShortFuncInfo@@@std@@QAE@ABU01@@Z 00492de0 f i ShortcutKey.obj
 0001:00091e40       ??0?$pair@KK@std@@QAE@ABK0@Z 00492e40 f i ShortcutKey.obj
 0001:00091eaf       ??0KUiBase@@QAE@XZ         00492eaf f   UiBase.obj
 0001:00091f07       ??1KUiBase@@QAE@XZ         00492f07 f   UiBase.obj
 0001:00091f20       ?Exit@KUiBase@@QAEXXZ      00492f20 f   UiBase.obj
 0001:00091f4e       ?GetUserTempDataFolder@KUiBase@@QAEPBDXZ 00492f4e f   UiBase.obj
 0001:00091f5e       ?CleanTempDataFolder@KUiBase@@QAEXXZ 00492f5e f   UiBase.obj
 0001:00091f78       ?ClearFolder@KUiBase@@AAEXPBD_N@Z 00492f78 f   UiBase.obj
 0001:00092085       ?Init@KUiBase@@QAEHXZ      00493085 f   UiBase.obj
 0001:00092171       ?SetUserAccount@KUiBase@@QAEXPAD0@Z 00493171 f   UiBase.obj
 0001:0009220e       ?CleanPrivateDataFolder@KUiBase@@QAEXXZ 0049320e f   UiBase.obj
 0001:00092253       ?DeletePrivateDataFile@KUiBase@@QAEXPBD@Z 00493253 f   UiBase.obj
 0001:000922d0       ?LoadPrivateConfig@KUiBase@@QAEXXZ 004932d0 f   UiBase.obj
 0001:00092377       ?SavePrivateConfig@KUiBase@@QAEHXZ 00493377 f   UiBase.obj
 0001:0009241c       ?GetUserPrivateDataFolder@KUiBase@@QAEHPADH@Z 0049341c f   UiBase.obj
 0001:0009248f       ?LoadScheme@KUiBase@@QAEHPBD@Z 0049348f f   UiBase.obj
 0001:0009287b       ?LoadSchemeForEachWnd@KUiBase@@AAEXXZ 0049387b f   UiBase.obj
 0001:00092a21       ?GetSchemePath@KUiBase@@AAEHPBD@Z 00493a21 f   UiBase.obj
 0001:00092be0       ?SchemeCount@KUiBase@@QAEHXZ 00493be0 f   UiBase.obj
 0001:00092c36       ?GetScheme@KUiBase@@QAEHHPAD0@Z 00493c36 f   UiBase.obj
 0001:00092d6b       ?GetCurSchemePath@KUiBase@@QAEHPADH@Z 00493d6b f   UiBase.obj
 0001:00092db1       ?GetCommSettingFile@KUiBase@@QAEPAVKIniFile@@XZ 00493db1 f   UiBase.obj
 0001:00092e4b       ?CloseCommSettingFile@KUiBase@@QAEX_N@Z 00493e4b f   UiBase.obj
 0001:00092eb6       ?GetCommConfigFile@KUiBase@@QAEPAVKIniFile@@XZ 00493eb6 f   UiBase.obj
 0001:00092f8d       ?CloseCommConfigFile@KUiBase@@QAEXXZ 00493f8d f   UiBase.obj
 0001:00092fd8       ?GetGameSettingFile@KUiBase@@QAEPAVKIniFile@@XZ 00493fd8 f   UiBase.obj
 0001:00093072       ?CloseGameSettingFile@KUiBase@@QAEXXZ 00494072 f   UiBase.obj
 0001:000930bd       ?GetAutoSettingFile@KUiBase@@QAEPAVKIniFile@@XZ 004940bd f   UiBase.obj
 0001:000931c5       ?CloseAutoSettingFile@KUiBase@@QAEX_N@Z 004941c5 f   UiBase.obj
 0001:000932b8       ?GetPrivateSettingFile@KUiBase@@QAEPAVKIniFile@@XZ 004942b8 f   UiBase.obj
 0001:000933c0       ?ClosePrivateSettingFile@KUiBase@@QAEX_N@Z 004943c0 f   UiBase.obj
 0001:000934b3       ?SetStatus@KUiBase@@QAEXW4UISYS_STATUS@@@Z 004944b3 f   UiBase.obj
 0001:000934f0       ?SetCurrentCursor@KUiBase@@QAEXXZ 004944f0 f   UiBase.obj
 0001:00093590       ?IsOperationEnable@KUiBase@@QAEHW4UISYS_OPERATION@@@Z 00494590 f   UiBase.obj
 0001:00093655       ?RegisterEvent@KUiBase@@QAEXPBDPAX@Z 00494655 f   UiBase.obj
 0001:00093734       ?UnregisterEvent@KUiBase@@QAEXPBDPAX@Z 00494734 f   UiBase.obj
 0001:000937fa       ?NotifyOneEvent@KUiBase@@QAEHPBD0@Z 004947fa f   UiBase.obj
 0001:0009390b       ?NotifyEvent@KUiBase@@QAEHPBD@Z 0049490b f   UiBase.obj
 0001:000939ea       ?CreateUnit@AddinNotify@@UAEHPBD@Z 004949ea f   UiBase.obj
 0001:00093a40       ?DeleteUnit@AddinNotify@@UAEHPBD@Z 00494a40 f   UiBase.obj
 0001:00093a96       ?CreateUnitGroup@AddinNotify@@UAEHPBD0@Z 00494a96 f   UiBase.obj
 0001:00093af6       ?RenameUnitGroup@AddinNotify@@UAEHPBD00ABV?$list@V?$basic_string@DU?$char_traits@D@std@@V?$allocator@D@2@@std@@V?$allocator@V?$basic_string@DU?$char_traits@D@std@@V?$allocator@D@2@@std@@@2@@std@@@Z 00494af6 f   UiBase.obj
 0001:00093b63       ?DeleteUnitGroup@AddinNotify@@UAEHPBD0ABV?$list@V?$basic_string@DU?$char_traits@D@std@@V?$allocator@D@2@@std@@V?$allocator@V?$basic_string@DU?$char_traits@D@std@@V?$allocator@D@2@@std@@@2@@std@@@Z 00494b63 f   UiBase.obj
 0001:00093bc6       ?MoveUnitGroup@AddinNotify@@UAEHPBD00ABV?$list@V?$basic_string@DU?$char_traits@D@std@@V?$allocator@D@2@@std@@V?$allocator@V?$basic_string@DU?$char_traits@D@std@@V?$allocator@D@2@@std@@@2@@std@@@Z 00494bc6 f   UiBase.obj
 0001:00093c33       ?CreateUnitMember@AddinNotify@@UAEHPBD00@Z 00494c33 f   UiBase.obj
 0001:00093c9d       ?DeleteUnitMember@AddinNotify@@UAEHPBD0@Z 00494c9d f   UiBase.obj
 0001:00093cfd       ?MoveUnitMember@AddinNotify@@UAEHPBD00@Z 00494cfd f   UiBase.obj
 0001:00093d67       ?SetUnitMemberStatus@AddinNotify@@UAEHPBD00@Z 00494d67 f   UiBase.obj
 0001:00093dea       ?CreateAddinUnit@@YAXPBD@Z 00494dea f   UiBase.obj
 0001:00093e00       ?DeleteAddinUnit@@YAXPBD@Z 00494e00 f   UiBase.obj
 0001:00093e20       ??1?$map@V?$basic_string@DU?$char_traits@D@std@@V?$allocator@D@2@@std@@PAXU?$less@V?$basic_string@DU?$char_traits@D@std@@V?$allocator@D@2@@std@@@2@V?$allocator@PAX@2@@std@@QAE@XZ 00494e20 f i UiBase.obj
 0001:00093e40       ??_GKIniFile@@QAEPAXI@Z    00494e40 f i UiBase.obj
 0001:00093e70       ??0?$map@V?$basic_string@DU?$char_traits@D@std@@V?$allocator@D@2@@std@@PAXU?$less@V?$basic_string@DU?$char_traits@D@std@@V?$allocator@D@2@@std@@@2@V?$allocator@PAX@2@@std@@QAE@ABU?$less@V?$basic_string@DU?$char_traits@D@std@@V?$allocator@D@2@@std@@@1@ABV?$allocator@PAX@1@@Z 00494e70 f i UiBase.obj
 0001:00093ea0       ?begin@?$map@V?$basic_string@DU?$char_traits@D@std@@V?$allocator@D@2@@std@@PAXU?$less@V?$basic_string@DU?$char_traits@D@std@@V?$allocator@D@2@@std@@@2@V?$allocator@PAX@2@@std@@QAE?AViterator@?$_Tree@V?$basic_string@DU?$char_traits@D@std@@V?$allocator@D@2@@std@@U?$pair@$$CBV?$basic_string@DU?$char_traits@D@std@@V?$allocator@D@2@@std@@PAX@2@U_Kfn@?$map@V?$basic_string@DU?$char_traits@D@std@@V?$allocator@D@2@@std@@PAXU?$less@V?$basic_string@DU?$char_traits@D@std@@V?$allocator@D@2@@std@@@2@V?$allocator@PAX@2@@2@U?$less@V?$basic_string@DU?$char_traits@D@std@@V?$allocator@D@2@@std@@@2@V?$allocator@PAX@2@@2@XZ 00494ea0 f i UiBase.obj
 0001:00093ed0       ?end@?$map@V?$basic_string@DU?$char_traits@D@std@@V?$allocator@D@2@@std@@PAXU?$less@V?$basic_string@DU?$char_traits@D@std@@V?$allocator@D@2@@std@@@2@V?$allocator@PAX@2@@std@@QAE?AViterator@?$_Tree@V?$basic_string@DU?$char_traits@D@std@@V?$allocator@D@2@@std@@U?$pair@$$CBV?$basic_string@DU?$char_traits@D@std@@V?$allocator@D@2@@std@@PAX@2@U_Kfn@?$map@V?$basic_string@DU?$char_traits@D@std@@V?$allocator@D@2@@std@@PAXU?$less@V?$basic_string@DU?$char_traits@D@std@@V?$allocator@D@2@@std@@@2@V?$allocator@PAX@2@@2@U?$less@V?$basic_string@DU?$char_traits@D@std@@V?$allocator@D@2@@std@@@2@V?$allocator@PAX@2@@2@XZ 00494ed0 f i UiBase.obj
 0001:00093f00       ??A?$map@V?$basic_string@DU?$char_traits@D@std@@V?$allocator@D@2@@std@@PAXU?$less@V?$basic_string@DU?$char_traits@D@std@@V?$allocator@D@2@@std@@@2@V?$allocator@PAX@2@@std@@QAEAAPAXABV?$basic_string@DU?$char_traits@D@std@@V?$allocator@D@2@@1@@Z 00494f00 f i UiBase.obj
 0001:00093f90       ?erase@?$map@V?$basic_string@DU?$char_traits@D@std@@V?$allocator@D@2@@std@@PAXU?$less@V?$basic_string@DU?$char_traits@D@std@@V?$allocator@D@2@@std@@@2@V?$allocator@PAX@2@@std@@QAE?AViterator@?$_Tree@V?$basic_string@DU?$char_traits@D@std@@V?$allocator@D@2@@std@@U?$pair@$$CBV?$basic_string@DU?$char_traits@D@std@@V?$allocator@D@2@@std@@PAX@2@U_Kfn@?$map@V?$basic_string@DU?$char_traits@D@std@@V?$allocator@D@2@@std@@PAXU?$less@V?$basic_string@DU?$char_traits@D@std@@V?$allocator@D@2@@std@@@2@V?$allocator@PAX@2@@2@U?$less@V?$basic_string@DU?$char_traits@D@std@@V?$allocator@D@2@@std@@@2@V?$allocator@PAX@2@@2@V342@@Z 00494f90 f i UiBase.obj
 0001:00093fc0       ?find@?$map@V?$basic_string@DU?$char_traits@D@std@@V?$allocator@D@2@@std@@PAXU?$less@V?$basic_string@DU?$char_traits@D@std@@V?$allocator@D@2@@std@@@2@V?$allocator@PAX@2@@std@@QAE?AViterator@?$_Tree@V?$basic_string@DU?$char_traits@D@std@@V?$allocator@D@2@@std@@U?$pair@$$CBV?$basic_string@DU?$char_traits@D@std@@V?$allocator@D@2@@std@@PAX@2@U_Kfn@?$map@V?$basic_string@DU?$char_traits@D@std@@V?$allocator@D@2@@std@@PAXU?$less@V?$basic_string@DU?$char_traits@D@std@@V?$allocator@D@2@@std@@@2@V?$allocator@PAX@2@@2@U?$less@V?$basic_string@DU?$char_traits@D@std@@V?$allocator@D@2@@std@@@2@V?$allocator@PAX@2@@2@ABV?$basic_string@DU?$char_traits@D@std@@V?$allocator@D@2@@2@@Z 00494fc0 f i UiBase.obj
 0001:00093ff0       ??1?$_Tree@V?$basic_string@DU?$char_traits@D@std@@V?$allocator@D@2@@std@@U?$pair@$$CBV?$basic_string@DU?$char_traits@D@std@@V?$allocator@D@2@@std@@PAX@2@U_Kfn@?$map@V?$basic_string@DU?$char_traits@D@std@@V?$allocator@D@2@@std@@PAXU?$less@V?$basic_string@DU?$char_traits@D@std@@V?$allocator@D@2@@std@@@2@V?$allocator@PAX@2@@2@U?$less@V?$basic_string@DU?$char_traits@D@std@@V?$allocator@D@2@@std@@@2@V?$allocator@PAX@2@@std@@QAE@XZ 00494ff0 f i UiBase.obj
 0001:000940c0       ??Citerator@?$_Tree@V?$basic_string@DU?$char_traits@D@std@@V?$allocator@D@2@@std@@U?$pair@$$CBV?$basic_string@DU?$char_traits@D@std@@V?$allocator@D@2@@std@@PAX@2@U_Kfn@?$map@V?$basic_string@DU?$char_traits@D@std@@V?$allocator@D@2@@std@@PAXU?$less@V?$basic_string@DU?$char_traits@D@std@@V?$allocator@D@2@@std@@@2@V?$allocator@PAX@2@@2@U?$less@V?$basic_string@DU?$char_traits@D@std@@V?$allocator@D@2@@std@@@2@V?$allocator@PAX@2@@std@@QBEPAU?$pair@$$CBV?$basic_string@DU?$char_traits@D@std@@V?$allocator@D@2@@std@@PAX@2@XZ 004950c0 f i UiBase.obj
 0001:000940e0       ??Eiterator@?$_Tree@V?$basic_string@DU?$char_traits@D@std@@V?$allocator@D@2@@std@@U?$pair@$$CBV?$basic_string@DU?$char_traits@D@std@@V?$allocator@D@2@@std@@PAX@2@U_Kfn@?$map@V?$basic_string@DU?$char_traits@D@std@@V?$allocator@D@2@@std@@PAXU?$less@V?$basic_string@DU?$char_traits@D@std@@V?$allocator@D@2@@std@@@2@V?$allocator@PAX@2@@2@U?$less@V?$basic_string@DU?$char_traits@D@std@@V?$allocator@D@2@@std@@@2@V?$allocator@PAX@2@@std@@QAE?AV012@H@Z 004950e0 f i UiBase.obj
 0001:00094110       ??8iterator@?$_Tree@V?$basic_string@DU?$char_traits@D@std@@V?$allocator@D@2@@std@@U?$pair@$$CBV?$basic_string@DU?$char_traits@D@std@@V?$allocator@D@2@@std@@PAX@2@U_Kfn@?$map@V?$basic_string@DU?$char_traits@D@std@@V?$allocator@D@2@@std@@PAXU?$less@V?$basic_string@DU?$char_traits@D@std@@V?$allocator@D@2@@std@@@2@V?$allocator@PAX@2@@2@U?$less@V?$basic_string@DU?$char_traits@D@std@@V?$allocator@D@2@@std@@@2@V?$allocator@PAX@2@@std@@QBE_NABV012@@Z 00495110 f i UiBase.obj
 0001:00094130       ??9iterator@?$_Tree@V?$basic_string@DU?$char_traits@D@std@@V?$allocator@D@2@@std@@U?$pair@$$CBV?$basic_string@DU?$char_traits@D@std@@V?$allocator@D@2@@std@@PAX@2@U_Kfn@?$map@V?$basic_string@DU?$char_traits@D@std@@V?$allocator@D@2@@std@@PAXU?$less@V?$basic_string@DU?$char_traits@D@std@@V?$allocator@D@2@@std@@@2@V?$allocator@PAX@2@@2@U?$less@V?$basic_string@DU?$char_traits@D@std@@V?$allocator@D@2@@std@@@2@V?$allocator@PAX@2@@std@@QBE_NABV012@@Z 00495130 f i UiBase.obj
 0001:00094160       ??1?$pair@$$CBV?$basic_string@DU?$char_traits@D@std@@V?$allocator@D@2@@std@@PAX@std@@QAE@XZ 00495160 f i UiBase.obj
 0001:00094180       ?insert@?$map@V?$basic_string@DU?$char_traits@D@std@@V?$allocator@D@2@@std@@PAXU?$less@V?$basic_string@DU?$char_traits@D@std@@V?$allocator@D@2@@std@@@2@V?$allocator@PAX@2@@std@@QAE?AU?$pair@Viterator@?$_Tree@V?$basic_string@DU?$char_traits@D@std@@V?$allocator@D@2@@std@@U?$pair@$$CBV?$basic_string@DU?$char_traits@D@std@@V?$allocator@D@2@@std@@PAX@2@U_Kfn@?$map@V?$basic_string@DU?$char_traits@D@std@@V?$allocator@D@2@@std@@PAXU?$less@V?$basic_string@DU?$char_traits@D@std@@V?$allocator@D@2@@std@@@2@V?$allocator@PAX@2@@2@U?$less@V?$basic_string@DU?$char_traits@D@std@@V?$allocator@D@2@@std@@@2@V?$allocator@PAX@2@@std@@_N@2@ABU?$pair@$$CBV?$basic_string@DU?$char_traits@D@std@@V?$allocator@D@2@@std@@PAX@2@@Z 00495180 f i UiBase.obj
 0001:000941d0       ??0?$_Tree@V?$basic_string@DU?$char_traits@D@std@@V?$allocator@D@2@@std@@U?$pair@$$CBV?$basic_string@DU?$char_traits@D@std@@V?$allocator@D@2@@std@@PAX@2@U_Kfn@?$map@V?$basic_string@DU?$char_traits@D@std@@V?$allocator@D@2@@std@@PAXU?$less@V?$basic_string@DU?$char_traits@D@std@@V?$allocator@D@2@@std@@@2@V?$allocator@PAX@2@@2@U?$less@V?$basic_string@DU?$char_traits@D@std@@V?$allocator@D@2@@std@@@2@V?$allocator@PAX@2@@std@@QAE@ABU?$less@V?$basic_string@DU?$char_traits@D@std@@V?$allocator@D@2@@std@@@1@_NABV?$allocator@PAX@1@@Z 004951d0 f i UiBase.obj
 0001:00094210       ?begin@?$_Tree@V?$basic_string@DU?$char_traits@D@std@@V?$allocator@D@2@@std@@U?$pair@$$CBV?$basic_string@DU?$char_traits@D@std@@V?$allocator@D@2@@std@@PAX@2@U_Kfn@?$map@V?$basic_string@DU?$char_traits@D@std@@V?$allocator@D@2@@std@@PAXU?$less@V?$basic_string@DU?$char_traits@D@std@@V?$allocator@D@2@@std@@@2@V?$allocator@PAX@2@@2@U?$less@V?$basic_string@DU?$char_traits@D@std@@V?$allocator@D@2@@std@@@2@V?$allocator@PAX@2@@std@@QAE?AViterator@12@XZ 00495210 f i UiBase.obj
 0001:00094240       ?end@?$_Tree@V?$basic_string@DU?$char_traits@D@std@@V?$allocator@D@2@@std@@U?$pair@$$CBV?$basic_string@DU?$char_traits@D@std@@V?$allocator@D@2@@std@@PAX@2@U_Kfn@?$map@V?$basic_string@DU?$char_traits@D@std@@V?$allocator@D@2@@std@@PAXU?$less@V?$basic_string@DU?$char_traits@D@std@@V?$allocator@D@2@@std@@@2@V?$allocator@PAX@2@@2@U?$less@V?$basic_string@DU?$char_traits@D@std@@V?$allocator@D@2@@std@@@2@V?$allocator@PAX@2@@std@@QAE?AViterator@12@XZ 00495240 f i UiBase.obj
 0001:00094270       ?erase@?$_Tree@V?$basic_string@DU?$char_traits@D@std@@V?$allocator@D@2@@std@@U?$pair@$$CBV?$basic_string@DU?$char_traits@D@std@@V?$allocator@D@2@@std@@PAX@2@U_Kfn@?$map@V?$basic_string@DU?$char_traits@D@std@@V?$allocator@D@2@@std@@PAXU?$less@V?$basic_string@DU?$char_traits@D@std@@V?$allocator@D@2@@std@@@2@V?$allocator@PAX@2@@2@U?$less@V?$basic_string@DU?$char_traits@D@std@@V?$allocator@D@2@@std@@@2@V?$allocator@PAX@2@@std@@QAE?AViterator@12@V312@@Z 00495270 f i UiBase.obj
 0001:00094ac0       ?erase@?$_Tree@V?$basic_string@DU?$char_traits@D@std@@V?$allocator@D@2@@std@@U?$pair@$$CBV?$basic_string@DU?$char_traits@D@std@@V?$allocator@D@2@@std@@PAX@2@U_Kfn@?$map@V?$basic_string@DU?$char_traits@D@std@@V?$allocator@D@2@@std@@PAXU?$less@V?$basic_string@DU?$char_traits@D@std@@V?$allocator@D@2@@std@@@2@V?$allocator@PAX@2@@2@U?$less@V?$basic_string@DU?$char_traits@D@std@@V?$allocator@D@2@@std@@@2@V?$allocator@PAX@2@@std@@QAE?AViterator@12@V312@0@Z 00495ac0 f i UiBase.obj
 0001:00094c00       ?find@?$_Tree@V?$basic_string@DU?$char_traits@D@std@@V?$allocator@D@2@@std@@U?$pair@$$CBV?$basic_string@DU?$char_traits@D@std@@V?$allocator@D@2@@std@@PAX@2@U_Kfn@?$map@V?$basic_string@DU?$char_traits@D@std@@V?$allocator@D@2@@std@@PAXU?$less@V?$basic_string@DU?$char_traits@D@std@@V?$allocator@D@2@@std@@@2@V?$allocator@PAX@2@@2@U?$less@V?$basic_string@DU?$char_traits@D@std@@V?$allocator@D@2@@std@@@2@V?$allocator@PAX@2@@std@@QAE?AViterator@12@ABV?$basic_string@DU?$char_traits@D@std@@V?$allocator@D@2@@2@@Z 00495c00 f i UiBase.obj
 0001:00094ca0       ?_Freenode@?$_Tree@V?$basic_string@DU?$char_traits@D@std@@V?$allocator@D@2@@std@@U?$pair@$$CBV?$basic_string@DU?$char_traits@D@std@@V?$allocator@D@2@@std@@PAX@2@U_Kfn@?$map@V?$basic_string@DU?$char_traits@D@std@@V?$allocator@D@2@@std@@PAXU?$less@V?$basic_string@DU?$char_traits@D@std@@V?$allocator@D@2@@std@@@2@V?$allocator@PAX@2@@2@U?$less@V?$basic_string@DU?$char_traits@D@std@@V?$allocator@D@2@@std@@@2@V?$allocator@PAX@2@@std@@IAEXPAU_Node@12@@Z 00495ca0 f i UiBase.obj
 0001:00094cc0       ??0?$pair@$$CBV?$basic_string@DU?$char_traits@D@std@@V?$allocator@D@2@@std@@PAX@std@@QAE@ABV?$basic_string@DU?$char_traits@D@std@@V?$allocator@D@2@@1@ABQAX@Z 00495cc0 f i UiBase.obj
 0001:00094cf0       ??Diterator@?$_Tree@V?$basic_string@DU?$char_traits@D@std@@V?$allocator@D@2@@std@@U?$pair@$$CBV?$basic_string@DU?$char_traits@D@std@@V?$allocator@D@2@@std@@PAX@2@U_Kfn@?$map@V?$basic_string@DU?$char_traits@D@std@@V?$allocator@D@2@@std@@PAXU?$less@V?$basic_string@DU?$char_traits@D@std@@V?$allocator@D@2@@std@@@2@V?$allocator@PAX@2@@2@U?$less@V?$basic_string@DU?$char_traits@D@std@@V?$allocator@D@2@@std@@@2@V?$allocator@PAX@2@@std@@QBEAAU?$pair@$$CBV?$basic_string@DU?$char_traits@D@std@@V?$allocator@D@2@@std@@PAX@2@XZ 00495cf0 f i UiBase.obj
 0001:00094d10       ??Eiterator@?$_Tree@V?$basic_string@DU?$char_traits@D@std@@V?$allocator@D@2@@std@@U?$pair@$$CBV?$basic_string@DU?$char_traits@D@std@@V?$allocator@D@2@@std@@PAX@2@U_Kfn@?$map@V?$basic_string@DU?$char_traits@D@std@@V?$allocator@D@2@@std@@PAXU?$less@V?$basic_string@DU?$char_traits@D@std@@V?$allocator@D@2@@std@@@2@V?$allocator@PAX@2@@2@U?$less@V?$basic_string@DU?$char_traits@D@std@@V?$allocator@D@2@@std@@@2@V?$allocator@PAX@2@@std@@QAEAAV012@XZ 00495d10 f i UiBase.obj
 0001:00094d30       ?deallocate@?$allocator@PAX@std@@QAEXPAXI@Z 00495d30 f i UiBase.obj
 0001:00094d50       ?_Color@?$_Tree@V?$basic_string@DU?$char_traits@D@std@@V?$allocator@D@2@@std@@U?$pair@$$CBV?$basic_string@DU?$char_traits@D@std@@V?$allocator@D@2@@std@@PAX@2@U_Kfn@?$map@V?$basic_string@DU?$char_traits@D@std@@V?$allocator@D@2@@std@@PAXU?$less@V?$basic_string@DU?$char_traits@D@std@@V?$allocator@D@2@@std@@@2@V?$allocator@PAX@2@@2@U?$less@V?$basic_string@DU?$char_traits@D@std@@V?$allocator@D@2@@std@@@2@V?$allocator@PAX@2@@std@@KAAAW4_Redbl@12@PAU_Node@12@@Z 00495d50 f i UiBase.obj
 0001:00094d60       ?_Key@?$_Tree@V?$basic_string@DU?$char_traits@D@std@@V?$allocator@D@2@@std@@U?$pair@$$CBV?$basic_string@DU?$char_traits@D@std@@V?$allocator@D@2@@std@@PAX@2@U_Kfn@?$map@V?$basic_string@DU?$char_traits@D@std@@V?$allocator@D@2@@std@@PAXU?$less@V?$basic_string@DU?$char_traits@D@std@@V?$allocator@D@2@@std@@@2@V?$allocator@PAX@2@@2@U?$less@V?$basic_string@DU?$char_traits@D@std@@V?$allocator@D@2@@std@@@2@V?$allocator@PAX@2@@std@@KAABV?$basic_string@DU?$char_traits@D@std@@V?$allocator@D@2@@2@PAU_Node@12@@Z 00495d60 f i UiBase.obj
 0001:00094d80       ?_Left@?$_Tree@V?$basic_string@DU?$char_traits@D@std@@V?$allocator@D@2@@std@@U?$pair@$$CBV?$basic_string@DU?$char_traits@D@std@@V?$allocator@D@2@@std@@PAX@2@U_Kfn@?$map@V?$basic_string@DU?$char_traits@D@std@@V?$allocator@D@2@@std@@PAXU?$less@V?$basic_string@DU?$char_traits@D@std@@V?$allocator@D@2@@std@@@2@V?$allocator@PAX@2@@2@U?$less@V?$basic_string@DU?$char_traits@D@std@@V?$allocator@D@2@@std@@@2@V?$allocator@PAX@2@@std@@KAAAPAU_Node@12@PAU312@@Z 00495d80 f i UiBase.obj
 0001:00094d90       ?_Parent@?$_Tree@V?$basic_string@DU?$char_traits@D@std@@V?$allocator@D@2@@std@@U?$pair@$$CBV?$basic_string@DU?$char_traits@D@std@@V?$allocator@D@2@@std@@PAX@2@U_Kfn@?$map@V?$basic_string@DU?$char_traits@D@std@@V?$allocator@D@2@@std@@PAXU?$less@V?$basic_string@DU?$char_traits@D@std@@V?$allocator@D@2@@std@@@2@V?$allocator@PAX@2@@2@U?$less@V?$basic_string@DU?$char_traits@D@std@@V?$allocator@D@2@@std@@@2@V?$allocator@PAX@2@@std@@KAAAPAU_Node@12@PAU312@@Z 00495d90 f i UiBase.obj
 0001:00094da0       ?_Right@?$_Tree@V?$basic_string@DU?$char_traits@D@std@@V?$allocator@D@2@@std@@U?$pair@$$CBV?$basic_string@DU?$char_traits@D@std@@V?$allocator@D@2@@std@@PAX@2@U_Kfn@?$map@V?$basic_string@DU?$char_traits@D@std@@V?$allocator@D@2@@std@@PAXU?$less@V?$basic_string@DU?$char_traits@D@std@@V?$allocator@D@2@@std@@@2@V?$allocator@PAX@2@@2@U?$less@V?$basic_string@DU?$char_traits@D@std@@V?$allocator@D@2@@std@@@2@V?$allocator@PAX@2@@std@@KAAAPAU_Node@12@PAU312@@Z 00495da0 f i UiBase.obj
 0001:00094db0       ?_Value@?$_Tree@V?$basic_string@DU?$char_traits@D@std@@V?$allocator@D@2@@std@@U?$pair@$$CBV?$basic_string@DU?$char_traits@D@std@@V?$allocator@D@2@@std@@PAX@2@U_Kfn@?$map@V?$basic_string@DU?$char_traits@D@std@@V?$allocator@D@2@@std@@PAXU?$less@V?$basic_string@DU?$char_traits@D@std@@V?$allocator@D@2@@std@@@2@V?$allocator@PAX@2@@2@U?$less@V?$basic_string@DU?$char_traits@D@std@@V?$allocator@D@2@@std@@@2@V?$allocator@PAX@2@@std@@KAAAU?$pair@$$CBV?$basic_string@DU?$char_traits@D@std@@V?$allocator@D@2@@std@@PAX@2@PAU_Node@12@@Z 00495db0 f i UiBase.obj
 0001:00094dc0       ?size@?$_Tree@V?$basic_string@DU?$char_traits@D@std@@V?$allocator@D@2@@std@@U?$pair@$$CBV?$basic_string@DU?$char_traits@D@std@@V?$allocator@D@2@@std@@PAX@2@U_Kfn@?$map@V?$basic_string@DU?$char_traits@D@std@@V?$allocator@D@2@@std@@PAXU?$less@V?$basic_string@DU?$char_traits@D@std@@V?$allocator@D@2@@std@@@2@V?$allocator@PAX@2@@2@U?$less@V?$basic_string@DU?$char_traits@D@std@@V?$allocator@D@2@@std@@@2@V?$allocator@PAX@2@@std@@QBEIXZ 00495dc0 f i UiBase.obj
 0001:00094de0       ?insert@?$_Tree@V?$basic_string@DU?$char_traits@D@std@@V?$allocator@D@2@@std@@U?$pair@$$CBV?$basic_string@DU?$char_traits@D@std@@V?$allocator@D@2@@std@@PAX@2@U_Kfn@?$map@V?$basic_string@DU?$char_traits@D@std@@V?$allocator@D@2@@std@@PAXU?$less@V?$basic_string@DU?$char_traits@D@std@@V?$allocator@D@2@@std@@@2@V?$allocator@PAX@2@@2@U?$less@V?$basic_string@DU?$char_traits@D@std@@V?$allocator@D@2@@std@@@2@V?$allocator@PAX@2@@std@@QAE?AU?$pair@Viterator@?$_Tree@V?$basic_string@DU?$char_traits@D@std@@V?$allocator@D@2@@std@@U?$pair@$$CBV?$basic_string@DU?$char_traits@D@std@@V?$allocator@D@2@@std@@PAX@2@U_Kfn@?$map@V?$basic_string@DU?$char_traits@D@std@@V?$allocator@D@2@@std@@PAXU?$less@V?$basic_string@DU?$char_traits@D@std@@V?$allocator@D@2@@std@@@2@V?$allocator@PAX@2@@2@U?$less@V?$basic_string@DU?$char_traits@D@std@@V?$allocator@D@2@@std@@@2@V?$allocator@PAX@2@@std@@_N@2@ABU?$pair@$$CBV?$basic_string@DU?$char_traits@D@std@@V?$allocator@D@2@@std@@PAX@2@@Z 00495de0 f i UiBase.obj
 0001:00095020       ?lower_bound@?$_Tree@V?$basic_string@DU?$char_traits@D@std@@V?$allocator@D@2@@std@@U?$pair@$$CBV?$basic_string@DU?$char_traits@D@std@@V?$allocator@D@2@@std@@PAX@2@U_Kfn@?$map@V?$basic_string@DU?$char_traits@D@std@@V?$allocator@D@2@@std@@PAXU?$less@V?$basic_string@DU?$char_traits@D@std@@V?$allocator@D@2@@std@@@2@V?$allocator@PAX@2@@2@U?$less@V?$basic_string@DU?$char_traits@D@std@@V?$allocator@D@2@@std@@@2@V?$allocator@PAX@2@@std@@QAE?AViterator@12@ABV?$basic_string@DU?$char_traits@D@std@@V?$allocator@D@2@@2@@Z 00496020 f i UiBase.obj
 0001:00095050       ?_Erase@?$_Tree@V?$basic_string@DU?$char_traits@D@std@@V?$allocator@D@2@@std@@U?$pair@$$CBV?$basic_string@DU?$char_traits@D@std@@V?$allocator@D@2@@std@@PAX@2@U_Kfn@?$map@V?$basic_string@DU?$char_traits@D@std@@V?$allocator@D@2@@std@@PAXU?$less@V?$basic_string@DU?$char_traits@D@std@@V?$allocator@D@2@@std@@@2@V?$allocator@PAX@2@@2@U?$less@V?$basic_string@DU?$char_traits@D@std@@V?$allocator@D@2@@std@@@2@V?$allocator@PAX@2@@std@@IAEXPAU_Node@12@@Z 00496050 f i UiBase.obj
 0001:00095110       ?_Init@?$_Tree@V?$basic_string@DU?$char_traits@D@std@@V?$allocator@D@2@@std@@U?$pair@$$CBV?$basic_string@DU?$char_traits@D@std@@V?$allocator@D@2@@std@@PAX@2@U_Kfn@?$map@V?$basic_string@DU?$char_traits@D@std@@V?$allocator@D@2@@std@@PAXU?$less@V?$basic_string@DU?$char_traits@D@std@@V?$allocator@D@2@@std@@@2@V?$allocator@PAX@2@@2@U?$less@V?$basic_string@DU?$char_traits@D@std@@V?$allocator@D@2@@std@@@2@V?$allocator@PAX@2@@std@@IAEXXZ 00496110 f i UiBase.obj
 0001:000951f0       ?_Lmost@?$_Tree@V?$basic_string@DU?$char_traits@D@std@@V?$allocator@D@2@@std@@U?$pair@$$CBV?$basic_string@DU?$char_traits@D@std@@V?$allocator@D@2@@std@@PAX@2@U_Kfn@?$map@V?$basic_string@DU?$char_traits@D@std@@V?$allocator@D@2@@std@@PAXU?$less@V?$basic_string@DU?$char_traits@D@std@@V?$allocator@D@2@@std@@@2@V?$allocator@PAX@2@@2@U?$less@V?$basic_string@DU?$char_traits@D@std@@V?$allocator@D@2@@std@@@2@V?$allocator@PAX@2@@std@@IAEAAPAU_Node@12@XZ 004961f0 f i UiBase.obj
 0001:00095210       ?_Lrotate@?$_Tree@V?$basic_string@DU?$char_traits@D@std@@V?$allocator@D@2@@std@@U?$pair@$$CBV?$basic_string@DU?$char_traits@D@std@@V?$allocator@D@2@@std@@PAX@2@U_Kfn@?$map@V?$basic_string@DU?$char_traits@D@std@@V?$allocator@D@2@@std@@PAXU?$less@V?$basic_string@DU?$char_traits@D@std@@V?$allocator@D@2@@std@@@2@V?$allocator@PAX@2@@2@U?$less@V?$basic_string@DU?$char_traits@D@std@@V?$allocator@D@2@@std@@@2@V?$allocator@PAX@2@@std@@IAEXPAU_Node@12@@Z 00496210 f i UiBase.obj
 0001:00095380       ?_Max@?$_Tree@V?$basic_string@DU?$char_traits@D@std@@V?$allocator@D@2@@std@@U?$pair@$$CBV?$basic_string@DU?$char_traits@D@std@@V?$allocator@D@2@@std@@PAX@2@U_Kfn@?$map@V?$basic_string@DU?$char_traits@D@std@@V?$allocator@D@2@@std@@PAXU?$less@V?$basic_string@DU?$char_traits@D@std@@V?$allocator@D@2@@std@@@2@V?$allocator@PAX@2@@2@U?$less@V?$basic_string@DU?$char_traits@D@std@@V?$allocator@D@2@@std@@@2@V?$allocator@PAX@2@@std@@KAPAU_Node@12@PAU312@@Z 00496380 f i UiBase.obj
 0001:00095400       ?_Min@?$_Tree@V?$basic_string@DU?$char_traits@D@std@@V?$allocator@D@2@@std@@U?$pair@$$CBV?$basic_string@DU?$char_traits@D@std@@V?$allocator@D@2@@std@@PAX@2@U_Kfn@?$map@V?$basic_string@DU?$char_traits@D@std@@V?$allocator@D@2@@std@@PAXU?$less@V?$basic_string@DU?$char_traits@D@std@@V?$allocator@D@2@@std@@@2@V?$allocator@PAX@2@@2@U?$less@V?$basic_string@DU?$char_traits@D@std@@V?$allocator@D@2@@std@@@2@V?$allocator@PAX@2@@std@@KAPAU_Node@12@PAU312@@Z 00496400 f i UiBase.obj
 0001:00095480       ?_Rmost@?$_Tree@V?$basic_string@DU?$char_traits@D@std@@V?$allocator@D@2@@std@@U?$pair@$$CBV?$basic_string@DU?$char_traits@D@std@@V?$allocator@D@2@@std@@PAX@2@U_Kfn@?$map@V?$basic_string@DU?$char_traits@D@std@@V?$allocator@D@2@@std@@PAXU?$less@V?$basic_string@DU?$char_traits@D@std@@V?$allocator@D@2@@std@@@2@V?$allocator@PAX@2@@2@U?$less@V?$basic_string@DU?$char_traits@D@std@@V?$allocator@D@2@@std@@@2@V?$allocator@PAX@2@@std@@IAEAAPAU_Node@12@XZ 00496480 f i UiBase.obj
 0001:000954a0       ?_Root@?$_Tree@V?$basic_string@DU?$char_traits@D@std@@V?$allocator@D@2@@std@@U?$pair@$$CBV?$basic_string@DU?$char_traits@D@std@@V?$allocator@D@2@@std@@PAX@2@U_Kfn@?$map@V?$basic_string@DU?$char_traits@D@std@@V?$allocator@D@2@@std@@PAXU?$less@V?$basic_string@DU?$char_traits@D@std@@V?$allocator@D@2@@std@@@2@V?$allocator@PAX@2@@2@U?$less@V?$basic_string@DU?$char_traits@D@std@@V?$allocator@D@2@@std@@@2@V?$allocator@PAX@2@@std@@IAEAAPAU_Node@12@XZ 004964a0 f i UiBase.obj
 0001:000954c0       ?_Rrotate@?$_Tree@V?$basic_string@DU?$char_traits@D@std@@V?$allocator@D@2@@std@@U?$pair@$$CBV?$basic_string@DU?$char_traits@D@std@@V?$allocator@D@2@@std@@PAX@2@U_Kfn@?$map@V?$basic_string@DU?$char_traits@D@std@@V?$allocator@D@2@@std@@PAXU?$less@V?$basic_string@DU?$char_traits@D@std@@V?$allocator@D@2@@std@@@2@V?$allocator@PAX@2@@2@U?$less@V?$basic_string@DU?$char_traits@D@std@@V?$allocator@D@2@@std@@@2@V?$allocator@PAX@2@@std@@IAEXPAU_Node@12@@Z 004964c0 f i UiBase.obj
 0001:00095630       ?_Destval@?$_Tree@V?$basic_string@DU?$char_traits@D@std@@V?$allocator@D@2@@std@@U?$pair@$$CBV?$basic_string@DU?$char_traits@D@std@@V?$allocator@D@2@@std@@PAX@2@U_Kfn@?$map@V?$basic_string@DU?$char_traits@D@std@@V?$allocator@D@2@@std@@PAXU?$less@V?$basic_string@DU?$char_traits@D@std@@V?$allocator@D@2@@std@@@2@V?$allocator@PAX@2@@2@U?$less@V?$basic_string@DU?$char_traits@D@std@@V?$allocator@D@2@@std@@@2@V?$allocator@PAX@2@@std@@IAEXPAU?$pair@$$CBV?$basic_string@DU?$char_traits@D@std@@V?$allocator@D@2@@std@@PAX@2@@Z 00496630 f i UiBase.obj
 0001:00095650       ?_Inc@const_iterator@?$_Tree@V?$basic_string@DU?$char_traits@D@std@@V?$allocator@D@2@@std@@U?$pair@$$CBV?$basic_string@DU?$char_traits@D@std@@V?$allocator@D@2@@std@@PAX@2@U_Kfn@?$map@V?$basic_string@DU?$char_traits@D@std@@V?$allocator@D@2@@std@@PAXU?$less@V?$basic_string@DU?$char_traits@D@std@@V?$allocator@D@2@@std@@@2@V?$allocator@PAX@2@@2@U?$less@V?$basic_string@DU?$char_traits@D@std@@V?$allocator@D@2@@std@@@2@V?$allocator@PAX@2@@std@@QAEXXZ 00496650 f i UiBase.obj
 0001:00095730       ?_Mynode@const_iterator@?$_Tree@V?$basic_string@DU?$char_traits@D@std@@V?$allocator@D@2@@std@@U?$pair@$$CBV?$basic_string@DU?$char_traits@D@std@@V?$allocator@D@2@@std@@PAX@2@U_Kfn@?$map@V?$basic_string@DU?$char_traits@D@std@@V?$allocator@D@2@@std@@PAXU?$less@V?$basic_string@DU?$char_traits@D@std@@V?$allocator@D@2@@std@@@2@V?$allocator@PAX@2@@2@U?$less@V?$basic_string@DU?$char_traits@D@std@@V?$allocator@D@2@@std@@@2@V?$allocator@PAX@2@@std@@QBEPAU_Node@23@XZ 00496730 f i UiBase.obj
 0001:00095740       ??0iterator@?$_Tree@V?$basic_string@DU?$char_traits@D@std@@V?$allocator@D@2@@std@@U?$pair@$$CBV?$basic_string@DU?$char_traits@D@std@@V?$allocator@D@2@@std@@PAX@2@U_Kfn@?$map@V?$basic_string@DU?$char_traits@D@std@@V?$allocator@D@2@@std@@PAXU?$less@V?$basic_string@DU?$char_traits@D@std@@V?$allocator@D@2@@std@@@2@V?$allocator@PAX@2@@2@U?$less@V?$basic_string@DU?$char_traits@D@std@@V?$allocator@D@2@@std@@@2@V?$allocator@PAX@2@@std@@QAE@PAU_Node@12@@Z 00496740 f i UiBase.obj
 0001:00095760       ??0?$pair@Viterator@?$_Tree@V?$basic_string@DU?$char_traits@D@std@@V?$allocator@D@2@@std@@U?$pair@$$CBV?$basic_string@DU?$char_traits@D@std@@V?$allocator@D@2@@std@@PAX@2@U_Kfn@?$map@V?$basic_string@DU?$char_traits@D@std@@V?$allocator@D@2@@std@@PAXU?$less@V?$basic_string@DU?$char_traits@D@std@@V?$allocator@D@2@@std@@@2@V?$allocator@PAX@2@@2@U?$less@V?$basic_string@DU?$char_traits@D@std@@V?$allocator@D@2@@std@@@2@V?$allocator@PAX@2@@std@@_N@std@@QAE@ABViterator@?$_Tree@V?$basic_string@DU?$char_traits@D@std@@V?$allocator@D@2@@std@@U?$pair@$$CBV?$basic_string@DU?$char_traits@D@std@@V?$allocator@D@2@@std@@PAX@2@U_Kfn@?$map@V?$basic_string@DU?$char_traits@D@std@@V?$allocator@D@2@@std@@PAXU?$less@V?$basic_string@DU?$char_traits@D@std@@V?$allocator@D@2@@std@@@2@V?$allocator@PAX@2@@2@U?$less@V?$basic_string@DU?$char_traits@D@std@@V?$allocator@D@2@@std@@@2@V?$allocator@PAX@2@@1@AB_N@Z 00496760 f i UiBase.obj
 0001:00095790       ??R_Kfn@?$map@V?$basic_string@DU?$char_traits@D@std@@V?$allocator@D@2@@std@@PAXU?$less@V?$basic_string@DU?$char_traits@D@std@@V?$allocator@D@2@@std@@@2@V?$allocator@PAX@2@@std@@QBEABV?$basic_string@DU?$char_traits@D@std@@V?$allocator@D@2@@2@ABU?$pair@$$CBV?$basic_string@DU?$char_traits@D@std@@V?$allocator@D@2@@std@@PAX@2@@Z 00496790 f i UiBase.obj
 0001:000957a0       ?_Insert@?$_Tree@V?$basic_string@DU?$char_traits@D@std@@V?$allocator@D@2@@std@@U?$pair@$$CBV?$basic_string@DU?$char_traits@D@std@@V?$allocator@D@2@@std@@PAX@2@U_Kfn@?$map@V?$basic_string@DU?$char_traits@D@std@@V?$allocator@D@2@@std@@PAXU?$less@V?$basic_string@DU?$char_traits@D@std@@V?$allocator@D@2@@std@@@2@V?$allocator@PAX@2@@2@U?$less@V?$basic_string@DU?$char_traits@D@std@@V?$allocator@D@2@@std@@@2@V?$allocator@PAX@2@@std@@IAE?AViterator@12@PAU_Node@12@0ABU?$pair@$$CBV?$basic_string@DU?$char_traits@D@std@@V?$allocator@D@2@@std@@PAX@2@@Z 004967a0 f i UiBase.obj
 0001:00095c70       ?_Lbound@?$_Tree@V?$basic_string@DU?$char_traits@D@std@@V?$allocator@D@2@@std@@U?$pair@$$CBV?$basic_string@DU?$char_traits@D@std@@V?$allocator@D@2@@std@@PAX@2@U_Kfn@?$map@V?$basic_string@DU?$char_traits@D@std@@V?$allocator@D@2@@std@@PAXU?$less@V?$basic_string@DU?$char_traits@D@std@@V?$allocator@D@2@@std@@@2@V?$allocator@PAX@2@@2@U?$less@V?$basic_string@DU?$char_traits@D@std@@V?$allocator@D@2@@std@@@2@V?$allocator@PAX@2@@std@@IBEPAU_Node@12@ABV?$basic_string@DU?$char_traits@D@std@@V?$allocator@D@2@@2@@Z 00496c70 f i UiBase.obj
 0001:00095d40       ?_Buynode@?$_Tree@V?$basic_string@DU?$char_traits@D@std@@V?$allocator@D@2@@std@@U?$pair@$$CBV?$basic_string@DU?$char_traits@D@std@@V?$allocator@D@2@@std@@PAX@2@U_Kfn@?$map@V?$basic_string@DU?$char_traits@D@std@@V?$allocator@D@2@@std@@PAXU?$less@V?$basic_string@DU?$char_traits@D@std@@V?$allocator@D@2@@std@@@2@V?$allocator@PAX@2@@2@U?$less@V?$basic_string@DU?$char_traits@D@std@@V?$allocator@D@2@@std@@@2@V?$allocator@PAX@2@@std@@IAEPAU_Node@12@PAU312@W4_Redbl@12@@Z 00496d40 f i UiBase.obj
 0001:00095d90       ??0const_iterator@?$_Tree@V?$basic_string@DU?$char_traits@D@std@@V?$allocator@D@2@@std@@U?$pair@$$CBV?$basic_string@DU?$char_traits@D@std@@V?$allocator@D@2@@std@@PAX@2@U_Kfn@?$map@V?$basic_string@DU?$char_traits@D@std@@V?$allocator@D@2@@std@@PAXU?$less@V?$basic_string@DU?$char_traits@D@std@@V?$allocator@D@2@@std@@@2@V?$allocator@PAX@2@@2@U?$less@V?$basic_string@DU?$char_traits@D@std@@V?$allocator@D@2@@std@@@2@V?$allocator@PAX@2@@std@@QAE@PAU_Node@12@@Z 00496d90 f i UiBase.obj
 0001:00095db0       ??Fiterator@?$_Tree@V?$basic_string@DU?$char_traits@D@std@@V?$allocator@D@2@@std@@U?$pair@$$CBV?$basic_string@DU?$char_traits@D@std@@V?$allocator@D@2@@std@@PAX@2@U_Kfn@?$map@V?$basic_string@DU?$char_traits@D@std@@V?$allocator@D@2@@std@@PAXU?$less@V?$basic_string@DU?$char_traits@D@std@@V?$allocator@D@2@@std@@@2@V?$allocator@PAX@2@@2@U?$less@V?$basic_string@DU?$char_traits@D@std@@V?$allocator@D@2@@std@@@2@V?$allocator@PAX@2@@std@@QAEAAV012@XZ 00496db0 f i UiBase.obj
 0001:00095dd0       ?_Charalloc@?$allocator@PAX@std@@QAEPADI@Z 00496dd0 f i UiBase.obj
 0001:00095df0       ?_Root@?$_Tree@V?$basic_string@DU?$char_traits@D@std@@V?$allocator@D@2@@std@@U?$pair@$$CBV?$basic_string@DU?$char_traits@D@std@@V?$allocator@D@2@@std@@PAX@2@U_Kfn@?$map@V?$basic_string@DU?$char_traits@D@std@@V?$allocator@D@2@@std@@PAXU?$less@V?$basic_string@DU?$char_traits@D@std@@V?$allocator@D@2@@std@@@2@V?$allocator@PAX@2@@2@U?$less@V?$basic_string@DU?$char_traits@D@std@@V?$allocator@D@2@@std@@@2@V?$allocator@PAX@2@@std@@IBEAAPAU_Node@12@XZ 00496df0 f i UiBase.obj
 0001:00095e10       ?_Consval@?$_Tree@V?$basic_string@DU?$char_traits@D@std@@V?$allocator@D@2@@std@@U?$pair@$$CBV?$basic_string@DU?$char_traits@D@std@@V?$allocator@D@2@@std@@PAX@2@U_Kfn@?$map@V?$basic_string@DU?$char_traits@D@std@@V?$allocator@D@2@@std@@PAXU?$less@V?$basic_string@DU?$char_traits@D@std@@V?$allocator@D@2@@std@@@2@V?$allocator@PAX@2@@2@U?$less@V?$basic_string@DU?$char_traits@D@std@@V?$allocator@D@2@@std@@@2@V?$allocator@PAX@2@@std@@IAEXPAU?$pair@$$CBV?$basic_string@DU?$char_traits@D@std@@V?$allocator@D@2@@std@@PAX@2@ABU32@@Z 00496e10 f i UiBase.obj
 0001:00095e30       ?_Dec@const_iterator@?$_Tree@V?$basic_string@DU?$char_traits@D@std@@V?$allocator@D@2@@std@@U?$pair@$$CBV?$basic_string@DU?$char_traits@D@std@@V?$allocator@D@2@@std@@PAX@2@U_Kfn@?$map@V?$basic_string@DU?$char_traits@D@std@@V?$allocator@D@2@@std@@PAXU?$less@V?$basic_string@DU?$char_traits@D@std@@V?$allocator@D@2@@std@@@2@V?$allocator@PAX@2@@2@U?$less@V?$basic_string@DU?$char_traits@D@std@@V?$allocator@D@2@@std@@@2@V?$allocator@PAX@2@@std@@QAEXXZ 00496e30 f i UiBase.obj
 0001:00095f40       ?swap@std@@YAXAAW4_Redbl@?$_Tree@V?$basic_string@DU?$char_traits@D@std@@V?$allocator@D@2@@std@@U?$pair@$$CBV?$basic_string@DU?$char_traits@D@std@@V?$allocator@D@2@@std@@PAX@2@U_Kfn@?$map@V?$basic_string@DU?$char_traits@D@std@@V?$allocator@D@2@@std@@PAXU?$less@V?$basic_string@DU?$char_traits@D@std@@V?$allocator@D@2@@std@@@2@V?$allocator@PAX@2@@2@U?$less@V?$basic_string@DU?$char_traits@D@std@@V?$allocator@D@2@@std@@@2@V?$allocator@PAX@2@@1@0@Z 00496f40 f i UiBase.obj
 0001:00095f70       ?_Destroy@std@@YAXPAU?$pair@$$CBV?$basic_string@DU?$char_traits@D@std@@V?$allocator@D@2@@std@@PAX@1@@Z 00496f70 f i UiBase.obj
 0001:00095f80       ?_Construct@std@@YAXPAU?$pair@$$CBV?$basic_string@DU?$char_traits@D@std@@V?$allocator@D@2@@std@@PAX@1@ABU21@@Z 00496f80 f i UiBase.obj
 0001:00095ff0       ??_G?$pair@$$CBV?$basic_string@DU?$char_traits@D@std@@V?$allocator@D@2@@std@@PAX@std@@QAEPAXI@Z 00496ff0 f i UiBase.obj
 0001:00096020       ??0?$pair@$$CBV?$basic_string@DU?$char_traits@D@std@@V?$allocator@D@2@@std@@PAX@std@@QAE@ABU01@@Z 00497020 f i UiBase.obj
 0001:00096050       ?CreateObject@Player_Life@@SAPAVKWndWindow@@XZ 00497050 f i UiShell.obj
 0001:000960c0       ??0Player_Life@@QAE@XZ     004970c0 f i UiShell.obj
 0001:000960e0       ??_GPlayer_Life@@UAEPAXI@Z 004970e0 f i UiShell.obj
 0001:000960e0       ??_EPlayer_Life@@UAEPAXI@Z 004970e0 f i UiShell.obj
 0001:00096110       ??1Player_Life@@UAE@XZ     00497110 f i UiShell.obj
 0001:00096130       ?CreateObject@Player_Mana@@SAPAVKWndWindow@@XZ 00497130 f i UiShell.obj
 0001:000961a0       ??0Player_Mana@@QAE@XZ     004971a0 f i UiShell.obj
 0001:000961c0       ??_GPlayer_Mana@@UAEPAXI@Z 004971c0 f i UiShell.obj
 0001:000961c0       ??_EPlayer_Mana@@UAEPAXI@Z 004971c0 f i UiShell.obj
 0001:000961f0       ??1Player_Mana@@UAE@XZ     004971f0 f i UiShell.obj
 0001:00096210       ?CreateObject@Player_Stamina@@SAPAVKWndWindow@@XZ 00497210 f i UiShell.obj
 0001:00096280       ??0Player_Stamina@@QAE@XZ  00497280 f i UiShell.obj
 0001:000962a0       ??_EPlayer_Stamina@@UAEPAXI@Z 004972a0 f i UiShell.obj
 0001:000962a0       ??_GPlayer_Stamina@@UAEPAXI@Z 004972a0 f i UiShell.obj
 0001:000962d0       ??1Player_Stamina@@UAE@XZ  004972d0 f i UiShell.obj
 0001:000962f0       ?CreateObject@Player_Exp@@SAPAVKWndWindow@@XZ 004972f0 f i UiShell.obj
 0001:00096360       ??0Player_Exp@@QAE@XZ      00497360 f i UiShell.obj
 0001:00096380       ??_GPlayer_Exp@@UAEPAXI@Z  00497380 f i UiShell.obj
 0001:00096380       ??_EPlayer_Exp@@UAEPAXI@Z  00497380 f i UiShell.obj
 0001:000963b0       ??1Player_Exp@@UAE@XZ      004973b0 f i UiShell.obj
 0001:000963d0       ?CreateObject@Player_Level@@SAPAVKWndWindow@@XZ 004973d0 f i UiShell.obj
 0001:00096440       ??0Player_Level@@QAE@XZ    00497440 f i UiShell.obj
 0001:00096460       ??_EPlayer_Level@@UAEPAXI@Z 00497460 f i UiShell.obj
 0001:00096460       ??_GPlayer_Level@@UAEPAXI@Z 00497460 f i UiShell.obj
 0001:00096490       ??1Player_Level@@UAE@XZ    00497490 f i UiShell.obj
 0001:000964b0       ?CreateObject@Player_WorldSort@@SAPAVKWndWindow@@XZ 004974b0 f i UiShell.obj
 0001:00096520       ??0Player_WorldSort@@QAE@XZ 00497520 f i UiShell.obj
 0001:00096540       ??_GPlayer_WorldSort@@UAEPAXI@Z 00497540 f i UiShell.obj
 0001:00096540       ??_EPlayer_WorldSort@@UAEPAXI@Z 00497540 f i UiShell.obj
 0001:00096570       ??1Player_WorldSort@@UAE@XZ 00497570 f i UiShell.obj
 0001:00096590       ?CreateObject@Player_Status@@SAPAVKWndWindow@@XZ 00497590 f i UiShell.obj
 0001:00096600       ??0Player_Status@@QAE@XZ   00497600 f i UiShell.obj
 0001:00096620       ??_GPlayer_Status@@UAEPAXI@Z 00497620 f i UiShell.obj
 0001:00096620       ??_EPlayer_Status@@UAEPAXI@Z 00497620 f i UiShell.obj
 0001:00096650       ??1Player_Status@@UAE@XZ   00497650 f i UiShell.obj
 0001:00096670       ?CreateObject@Player_Items@@SAPAVKWndWindow@@XZ 00497670 f i UiShell.obj
 0001:000966e0       ??0Player_Items@@QAE@XZ    004976e0 f i UiShell.obj
 0001:00096700       ??_EPlayer_Items@@UAEPAXI@Z 00497700 f i UiShell.obj
 0001:00096700       ??_GPlayer_Items@@UAEPAXI@Z 00497700 f i UiShell.obj
 0001:00096730       ??1Player_Items@@UAE@XZ    00497730 f i UiShell.obj
 0001:00096750       ?CreateObject@Player_Skills@@SAPAVKWndWindow@@XZ 00497750 f i UiShell.obj
 0001:000967c0       ??0Player_Skills@@QAE@XZ   004977c0 f i UiShell.obj
 0001:000967e0       ??_GPlayer_Skills@@UAEPAXI@Z 004977e0 f i UiShell.obj
 0001:000967e0       ??_EPlayer_Skills@@UAEPAXI@Z 004977e0 f i UiShell.obj
 0001:00096810       ??1Player_Skills@@UAE@XZ   00497810 f i UiShell.obj
 0001:00096830       ?CreateObject@Player_Team@@SAPAVKWndWindow@@XZ 00497830 f i UiShell.obj
 0001:000968a0       ??0Player_Team@@QAE@XZ     004978a0 f i UiShell.obj
 0001:000968c0       ??_EPlayer_Team@@UAEPAXI@Z 004978c0 f i UiShell.obj
 0001:000968c0       ??_GPlayer_Team@@UAEPAXI@Z 004978c0 f i UiShell.obj
 0001:000968f0       ??1Player_Team@@UAE@XZ     004978f0 f i UiShell.obj
 0001:00096910       ?CreateObject@Player_Faction@@SAPAVKWndWindow@@XZ 00497910 f i UiShell.obj
 0001:00096980       ??0Player_Faction@@QAE@XZ  00497980 f i UiShell.obj
 0001:000969a0       ??_GPlayer_Faction@@UAEPAXI@Z 004979a0 f i UiShell.obj
 0001:000969a0       ??_EPlayer_Faction@@UAEPAXI@Z 004979a0 f i UiShell.obj
 0001:000969d0       ??1Player_Faction@@UAE@XZ  004979d0 f i UiShell.obj
 0001:000969f0       ?CreateObject@Player_Sit@@SAPAVKWndWindow@@XZ 004979f0 f i UiShell.obj
 0001:00096a60       ??0Player_Sit@@QAE@XZ      00497a60 f i UiShell.obj
 0001:00096a80       ??_GPlayer_Sit@@UAEPAXI@Z  00497a80 f i UiShell.obj
 0001:00096a80       ??_EPlayer_Sit@@UAEPAXI@Z  00497a80 f i UiShell.obj
 0001:00096ab0       ??1Player_Sit@@UAE@XZ      00497ab0 f i UiShell.obj
 0001:00096ad0       ?CreateObject@Player_Run@@SAPAVKWndWindow@@XZ 00497ad0 f i UiShell.obj
 0001:00096b40       ??0Player_Run@@QAE@XZ      00497b40 f i UiShell.obj
 0001:00096b60       ??_EPlayer_Run@@UAEPAXI@Z  00497b60 f i UiShell.obj
 0001:00096b60       ??_GPlayer_Run@@UAEPAXI@Z  00497b60 f i UiShell.obj
 0001:00096b90       ??1Player_Run@@UAE@XZ      00497b90 f i UiShell.obj
 0001:00096bb0       ?CreateObject@Player_Horse@@SAPAVKWndWindow@@XZ 00497bb0 f i UiShell.obj
 0001:00096c20       ??0Player_Horse@@QAE@XZ    00497c20 f i UiShell.obj
 0001:00096c40       ??_GPlayer_Horse@@UAEPAXI@Z 00497c40 f i UiShell.obj
 0001:00096c40       ??_EPlayer_Horse@@UAEPAXI@Z 00497c40 f i UiShell.obj
 0001:00096c70       ??1Player_Horse@@UAE@XZ    00497c70 f i UiShell.obj
 0001:00096c90       ?CreateObject@Player_Exchange@@SAPAVKWndWindow@@XZ 00497c90 f i UiShell.obj
 0001:00096d00       ??0Player_Exchange@@QAE@XZ 00497d00 f i UiShell.obj
 0001:00096d20       ??_EPlayer_Exchange@@UAEPAXI@Z 00497d20 f i UiShell.obj
 0001:00096d20       ??_GPlayer_Exchange@@UAEPAXI@Z 00497d20 f i UiShell.obj
 0001:00096d50       ??1Player_Exchange@@UAE@XZ 00497d50 f i UiShell.obj
 0001:00096d70       ?CreateObject@Player_PK@@SAPAVKWndWindow@@XZ 00497d70 f i UiShell.obj
 0001:00096de0       ??0Player_PK@@QAE@XZ       00497de0 f i UiShell.obj
 0001:00096e00       ??_EPlayer_PK@@UAEPAXI@Z   00497e00 f i UiShell.obj
 0001:00096e00       ??_GPlayer_PK@@UAEPAXI@Z   00497e00 f i UiShell.obj
 0001:00096e30       ??1Player_PK@@UAE@XZ       00497e30 f i UiShell.obj
 0001:00096e50       ?CreateObject@Player_AT@@SAPAVKWndWindow@@XZ 00497e50 f i UiShell.obj
 0001:00096ec0       ??0Player_AT@@QAE@XZ       00497ec0 f i UiShell.obj
 0001:00096ee0       ??_GPlayer_AT@@UAEPAXI@Z   00497ee0 f i UiShell.obj
 0001:00096ee0       ??_EPlayer_AT@@UAEPAXI@Z   00497ee0 f i UiShell.obj
 0001:00096f10       ??1Player_AT@@UAE@XZ       00497f10 f i UiShell.obj
 0001:00096f30       ?CreateObject@Player_KTC@@SAPAVKWndWindow@@XZ 00497f30 f i UiShell.obj
 0001:00096fa0       ??0Player_KTC@@QAE@XZ      00497fa0 f i UiShell.obj
 0001:00096fc0       ??_EPlayer_KTC@@UAEPAXI@Z  00497fc0 f i UiShell.obj
 0001:00096fc0       ??_GPlayer_KTC@@UAEPAXI@Z  00497fc0 f i UiShell.obj
 0001:00096ff0       ??1Player_KTC@@UAE@XZ      00497ff0 f i UiShell.obj
 0001:00097010       ?CreateObject@Player_Auto@@SAPAVKWndWindow@@XZ 00498010 f i UiShell.obj
 0001:00097080       ??0Player_Auto@@QAE@XZ     00498080 f i UiShell.obj
 0001:000970a0       ??_EPlayer_Auto@@UAEPAXI@Z 004980a0 f i UiShell.obj
 0001:000970a0       ??_GPlayer_Auto@@UAEPAXI@Z 004980a0 f i UiShell.obj
 0001:000970d0       ??1Player_Auto@@UAE@XZ     004980d0 f i UiShell.obj
 0001:000970f0       ?UiPostQuitMsg@@YAXXZ      004980f0 f   UiShell.obj
 0001:000970ff       ?UiIsAlreadyQuit@@YA_NXZ   004980ff f   UiShell.obj
 0001:00097110       ?UiInit@@YAHXZ             00498110 f   UiShell.obj
 0001:000971f0       ?UiExit@@YAXXZ             004981f0 f   UiShell.obj
 0001:0009728f       ?UiStart@@YAHXZ            0049828f f   UiShell.obj
 0001:000972c4       ?UiPaint@@YAXH@Z           004982c4 f   UiShell.obj
 0001:00097353       ?UiHeartBeat@@YAHXZ        00498353 f   UiShell.obj
 0001:000973d6       ?UiProcessInput@@YAXIIH@Z  004983d6 f   UiShell.obj
 0001:00097461       ?UiCloseWndsOutGame@@YAX_N@Z 00498461 f   UiShell.obj
 0001:000974d1       ?UiRestart@@YAXXZ          004984d1 f   UiShell.obj
 0001:0009755e       ?UiStartGame@@YAXXZ        0049855e f   UiShell.obj
 0001:0009766e       ?UiResumeGame@@YAXXZ       0049866e f   UiShell.obj
 0001:0009767d       ?UiCloseWndsInGame@@YA_N_N@Z 0049867d f   UiShell.obj
 0001:000979f3       ?UiEndGame@@YAXXZ          004989f3 f   UiShell.obj
 0001:00097a7f       ?UiSetScreenSize@@YAXHH@Z  00498a7f f   UiShell.obj
 0001:00097a94       ?UiOnGameServerConnected@@YAXXZ 00498a94 f   UiShell.obj
 0001:00097aa3       ?UiOnGameServerStartSyncEnd@@YAXXZ 00498aa3 f   UiShell.obj
 0001:00097acb       ?UpdateData@Player_Life@@UAEXXZ 00498acb f   UiShell.obj
 0001:00097b6a       ?OnButtonClick@Player_Life@@UAEXXZ 00498b6a f   UiShell.obj
 0001:00097b8d       ?UpdateData@Player_Mana@@UAEXXZ 00498b8d f   UiShell.obj
 0001:00097c2c       ?OnButtonClick@Player_Mana@@UAEXXZ 00498c2c f   UiShell.obj
 0001:00097c4f       ?UpdateData@Player_Stamina@@UAEXXZ 00498c4f f   UiShell.obj
 0001:00097cee       ?OnButtonClick@Player_Stamina@@UAEXXZ 00498cee f   UiShell.obj
 0001:00097d11       ?UpdateData@Player_Exp@@UAEXXZ 00498d11 f   UiShell.obj
 0001:00097f9c       ?OnButtonClick@Player_Exp@@UAEXXZ 00498f9c f   UiShell.obj
 0001:00097fbf       ?GetToolTipInfo@Player_Exp@@UAEHPADH@Z 00498fbf f   UiShell.obj
 0001:00098043       ?UpdateData@Player_Level@@UAEXXZ 00499043 f   UiShell.obj
 0001:00098093       ?UpdateData@Player_WorldSort@@UAEXXZ 00499093 f   UiShell.obj
 0001:000980f2       ?OnButtonClick@Player_WorldSort@@UAEXXZ 004990f2 f   UiShell.obj
 0001:00098107       ?OnButtonClick@Player_Status@@UAEXXZ 00499107 f   UiShell.obj
 0001:0009811f       ?GetShortKey@Player_Status@@UAEPBDXZ 0049911f f   UiShell.obj
 0001:00098149       ?OnButtonClick@Player_Items@@UAEXXZ 00499149 f   UiShell.obj
 0001:00098161       ?GetShortKey@Player_Items@@UAEPBDXZ 00499161 f   UiShell.obj
 0001:0009818b       ?OnButtonClick@Player_Skills@@UAEXXZ 0049918b f   UiShell.obj
 0001:000981a3       ?GetShortKey@Player_Skills@@UAEPBDXZ 004991a3 f   UiShell.obj
 0001:000981cd       ?OnButtonClick@Player_Team@@UAEXXZ 004991cd f   UiShell.obj
 0001:000981e5       ?GetShortKey@Player_Team@@UAEPBDXZ 004991e5 f   UiShell.obj
 0001:0009820f       ?OnButtonClick@Player_Faction@@UAEXXZ 0049920f f   UiShell.obj
 0001:00098224       ?GetShortKey@Player_Faction@@UAEPBDXZ 00499224 f   UiShell.obj
 0001:00098231       ?OnButtonClick@Player_Sit@@UAEXXZ 00499231 f   UiShell.obj
 0001:00098249       ?UpdateData@Player_Sit@@UAEXXZ 00499249 f   UiShell.obj
 0001:0009829d       ?GetShortKey@Player_Sit@@UAEPBDXZ 0049929d f   UiShell.obj
 0001:000982c7       ?OnButtonClick@Player_Run@@UAEXXZ 004992c7 f   UiShell.obj
 0001:000982df       ?UpdateData@Player_Run@@UAEXXZ 004992df f   UiShell.obj
 0001:00098333       ?GetShortKey@Player_Run@@UAEPBDXZ 00499333 f   UiShell.obj
 0001:0009835d       ?OnButtonClick@Player_Horse@@UAEXXZ 0049935d f   UiShell.obj
 0001:00098375       ?UpdateData@Player_Horse@@UAEXXZ 00499375 f   UiShell.obj
 0001:000983c9       ?GetShortKey@Player_Horse@@UAEPBDXZ 004993c9 f   UiShell.obj
 0001:000983f3       ?OnButtonClick@Player_Exchange@@UAEXXZ 004993f3 f   UiShell.obj
 0001:0009840b       ?UpdateData@Player_Exchange@@UAEXXZ 0049940b f   UiShell.obj
 0001:0009843e       ?GetShortKey@Player_Exchange@@UAEPBDXZ 0049943e f   UiShell.obj
 0001:00098468       ?OnButtonClick@Player_PK@@UAEXXZ 00499468 f   UiShell.obj
 0001:00098480       ?UpdateData@Player_PK@@UAEXXZ 00499480 f   UiShell.obj
 0001:000984b3       ?GetShortKey@Player_PK@@UAEPBDXZ 004994b3 f   UiShell.obj
 0001:000984dd       ?OnButtonClick@Player_AT@@UAEXXZ 004994dd f   UiShell.obj
 0001:000984f5       ?UpdateData@Player_AT@@UAEXXZ 004994f5 f   UiShell.obj
 0001:00098500       ?GetShortKey@Player_AT@@UAEPBDXZ 00499500 f   UiShell.obj
 0001:0009852a       ?OnButtonClick@Player_KTC@@UAEXXZ 0049952a f   UiShell.obj
 0001:00098542       ?UpdateData@Player_KTC@@UAEXXZ 00499542 f   UiShell.obj
 0001:0009854d       ?GetShortKey@Player_KTC@@UAEPBDXZ 0049954d f   UiShell.obj
 0001:00098577       ?OnButtonClick@Player_Auto@@UAEXXZ 00499577 f   UiShell.obj
 0001:000985a0       ?RegisterSelfClass@Player_Life@@SAXXZ 004995a0 f i UiShell.obj
 0001:000985c0       ?RegisterSelfClass@Player_Mana@@SAXXZ 004995c0 f i UiShell.obj
 0001:000985e0       ?RegisterSelfClass@Player_Stamina@@SAXXZ 004995e0 f i UiShell.obj
 0001:00098600       ?RegisterSelfClass@Player_Exp@@SAXXZ 00499600 f i UiShell.obj
 0001:00098620       ?RegisterSelfClass@Player_Level@@SAXXZ 00499620 f i UiShell.obj
 0001:00098640       ?RegisterSelfClass@Player_WorldSort@@SAXXZ 00499640 f i UiShell.obj
 0001:00098660       ?RegisterSelfClass@Player_Status@@SAXXZ 00499660 f i UiShell.obj
 0001:00098680       ?RegisterSelfClass@Player_Items@@SAXXZ 00499680 f i UiShell.obj
 0001:000986a0       ?RegisterSelfClass@Player_Skills@@SAXXZ 004996a0 f i UiShell.obj
 0001:000986c0       ?RegisterSelfClass@Player_Team@@SAXXZ 004996c0 f i UiShell.obj
 0001:000986e0       ?RegisterSelfClass@Player_Faction@@SAXXZ 004996e0 f i UiShell.obj
 0001:00098700       ?RegisterSelfClass@Player_Sit@@SAXXZ 00499700 f i UiShell.obj
 0001:00098720       ?RegisterSelfClass@Player_Run@@SAXXZ 00499720 f i UiShell.obj
 0001:00098740       ?RegisterSelfClass@Player_Horse@@SAXXZ 00499740 f i UiShell.obj
 0001:00098760       ?RegisterSelfClass@Player_Exchange@@SAXXZ 00499760 f i UiShell.obj
 0001:00098780       ?RegisterSelfClass@Player_PK@@SAXXZ 00499780 f i UiShell.obj
 0001:000987a0       ?RegisterSelfClass@Player_AT@@SAXXZ 004997a0 f i UiShell.obj
 0001:000987c0       ?RegisterSelfClass@Player_KTC@@SAXXZ 004997c0 f i UiShell.obj
 0001:000987e0       ?RegisterSelfClass@Player_Auto@@SAXXZ 004997e0 f i UiShell.obj
 0001:00098800       ?IsRoleNewCreated@KLogin@@QAEHXZ 00499800 f i UiShell.obj
 0001:00098820       ??0CChatFilter@@QAE@XZ     00499820 f   ChatFilter.obj
 0001:00098841       ??1CChatFilter@@UAE@XZ     00499841 f   ChatFilter.obj
 0001:00098855       ?Initialize@CChatFilter@@QAEHXZ 00499855 f   ChatFilter.obj
 0001:00098aa3       ?Uninitialize@CChatFilter@@QAEHXZ 00499aa3 f   ChatFilter.obj
 0001:00098ad8       ?IsTextPass@CChatFilter@@QAEHPBD@Z 00499ad8 f   ChatFilter.obj
 0001:00098b10       ??_ECChatFilter@@UAEPAXI@Z 00499b10 f i ChatFilter.obj
 0001:00098b10       ??_GCChatFilter@@UAEPAXI@Z 00499b10 f i ChatFilter.obj
 0001:00098b40       ??0CFilterTextLib@@QAE@XZ  00499b40 f   FilterTextLib.obj
 0001:00098b57       ??1CFilterTextLib@@UAE@XZ  00499b57 f   FilterTextLib.obj
 0001:00098b6b       ?Initialize@CFilterTextLib@@QAEHXZ 00499b6b f   FilterTextLib.obj
 0001:00098b7b       ?Uninitialize@CFilterTextLib@@QAEHXZ 00499b7b f   FilterTextLib.obj
 0001:00098b8b       ?CreateTextFilter@CFilterTextLib@@QAEJPAPAUITextFilter@@@Z 00499b8b f   FilterTextLib.obj
 0001:00098bb0       ??_ECFilterTextLib@@UAEPAXI@Z 00499bb0 f i FilterTextLib.obj
 0001:00098bb0       ??_GCFilterTextLib@@UAEPAXI@Z 00499bb0 f i FilterTextLib.obj
 0001:00098cf7       ?DoingTKHA@@YGKPAX@Z       00499cf7 f   S3Client.obj
 0001:00098d03       ?DoingTKH@@YGKPAX@Z        00499d03 f   S3Client.obj
 0001:00098d0f       ?CheckWinVerOld@@YA_NXZ    00499d0f f   S3Client.obj
 0001:00098d51       ?isvirbox@@YA_NXZ          00499d51 f   S3Client.obj
 0001:00098dae       ?IsInsideVPC@@YA_NXZ       00499dae f   S3Client.obj
 0001:00098e29       ?IsInsideVMWare@@YA_NXZ    00499e29 f   S3Client.obj
 0001:00098eb0       ?isprocessdebug@@YA_NXZ    00499eb0 f   S3Client.obj
 0001:00098eff       ?inituntigame@@YA_NXZ      00499eff f   S3Client.obj
 0001:00098f8f       _WinMain@16                00499f8f f   S3Client.obj
 0001:0009914f       ?killProcessByName@KMyApp@@QAEXPBD@Z 0049a14f f   S3Client.obj
 0001:0009920e       ??0KMyApp@@QAE@XZ          0049a20e f   S3Client.obj
 0001:00099296       ?InitRepresentShell@@YAHHHH@Z 0049a296 f   S3Client.obj
 0001:00099400       ?GameInit@KMyApp@@UAEHXZ   0049a400 f   S3Client.obj
 0001:000998fb       ?GameExit@KMyApp@@UAEHXZ   0049a8fb f   S3Client.obj
 0001:00099a65       ?GameLoop@KMyApp@@UAEHXZ   0049aa65 f   S3Client.obj
 0001:00099b7a       ?HandleInput@KMyApp@@MAEHIIJ@Z 0049ab7a f   S3Client.obj
 0001:00099c70       ??1KMyApp@@QAE@XZ          0049ac70 f i S3Client.obj
 0001:00099cd0       ??0KClientCallback@@QAE@XZ 0049acd0 f i S3Client.obj
 0001:00099cf0       ??0IClientCallback@@QAE@XZ 0049acf0 f i S3Client.obj
 0001:00099d10       ?IsInsideVPC_exceptionFilter@@YAKPAU_EXCEPTION_POINTERS@@@Z 0049ad10 f i S3Client.obj
 0001:00099d50       ??_GKInlinePicSink@@QAEPAXI@Z 0049ad50 f i S3Client.obj
 0001:00099d80       ??1KInlinePicSink@@QAE@XZ  0049ad80 f i S3Client.obj
 0001:00099e2f       ??0KNetConnectAgent@@QAE@XZ 0049ae2f f   NetConnectAgent.obj
 0001:00099ec4       ??1KNetConnectAgent@@QAE@XZ 0049aec4 f   NetConnectAgent.obj
 0001:00099ed7       ?Initialize@KNetConnectAgent@@QAEHXZ 0049aed7 f   NetConnectAgent.obj
 0001:00099f98       ?Exit@KNetConnectAgent@@QAEXXZ 0049af98 f   NetConnectAgent.obj
 0001:0009a030       ?ClientConnectByNumericIp@KNetConnectAgent@@QAEHPBEG@Z 0049b030 f   NetConnectAgent.obj
 0001:0009a18e       ?DisconnectClient@KNetConnectAgent@@QAEXXZ 0049b18e f   NetConnectAgent.obj
 0001:0009a225       ?ConnectToGameSvr@KNetConnectAgent@@QAEHPBEGPAU_GUID@@@Z 0049b225 f   NetConnectAgent.obj
 0001:0009a4d1       ?DisconnectGameSvr@KNetConnectAgent@@QAEXXZ 0049b4d1 f   NetConnectAgent.obj
 0001:0009a581       ?SendMsg@KNetConnectAgent@@QAEHPBXH@Z 0049b581 f   NetConnectAgent.obj
 0001:0009a5bf       ?Breathe@KNetConnectAgent@@QAEXK@Z 0049b5bf f   NetConnectAgent.obj
 0001:0009a9b9       ?RegisterMsgTargetObject@KNetConnectAgent@@QAEXEPAUiKNetMsgTargetObject@@@Z 0049b9b9 f   NetConnectAgent.obj
 0001:0009a9f6       ?TobeDisconnect@KNetConnectAgent@@QAEXXZ 0049b9f6 f   NetConnectAgent.obj
 0001:0009aa0b       ?UpdateClientRequestTime@KNetConnectAgent@@QAEX_NI@Z 0049ba0b f   NetConnectAgent.obj
 0001:0009aa86       ?IsConnecting@KNetConnectAgent@@QAEHH@Z 0049ba86 f   NetConnectAgent.obj
 0001:0009aab3       ?ClientCallBack@@YGXPAXABK@Z 0049bab3 f   NetConnectAgent.obj
 0001:0009aafe       ?ProcessSwitchGameSvrMsg@KNetConnectAgent@@AAE_NPAX@Z 0049bafe f   NetConnectAgent.obj
 0001:0009ac8f       ?GetIpAddress@@YA_NPBDPAE@Z 0049bc8f f   Login.obj
 0001:0009ad48       ?RandMemSet@@YAXHPAE@Z     0049bd48 f   Login.obj
 0001:0009ad91       ??0KLogin@@QAE@XZ          0049bd91 f   Login.obj
 0001:0009ae10       ?ClearAccountPassword@KLogin@@AAEX_N0@Z 0049be10 f   Login.obj
 0001:0009ae67       ??1KLogin@@QAE@XZ          0049be67 f   Login.obj
 0001:0009ae7b       ?CreateConnection@KLogin@@QAEHPBE00H@Z 0049be7b f   Login.obj
 0001:0009af6b       ?AccountLogin@KLogin@@QAEHPBDABUtagKSG_PASSWORD@@_N@Z 0049bf6b f   Login.obj
 0001:0009b002       ?SelectRole@KLogin@@QAEHH@Z 0049c002 f   Login.obj
 0001:0009b114       ?CreateRole@KLogin@@QAEHPAUKRoleChiefInfo@@@Z 0049c114 f   Login.obj
 0001:0009b27d       ?DeleteRole@KLogin@@QAEHHABUtagKSG_PASSWORD@@@Z 0049c27d f   Login.obj
 0001:0009b3ba       ?NotifyTimeout@KLogin@@QAEXXZ 0049c3ba f   Login.obj
 0001:0009b3e0       ?NotifyDisconnect@KLogin@@QAEXXZ 0049c3e0 f   Login.obj
 0001:0009b406       ?NotifyToStartGame@KLogin@@QAEXXZ 0049c406 f   Login.obj
 0001:0009b47f       ?ReturnToIdle@KLogin@@QAEXXZ 0049c47f f   Login.obj
 0001:0009b4d4       ?AutoLogin@KLogin@@QAEXXZ  0049c4d4 f   Login.obj
 0001:0009b597       ?IsAutoLoginEnable@KLogin@@QAEHXZ 0049c597 f   Login.obj
 0001:0009b5f3       ?SetRememberAccountFlag@KLogin@@QAEX_N@Z 0049c5f3 f   Login.obj
 0001:0009b623       ?SetRememberAllFlag@KLogin@@QAEX_N@Z 0049c623 f   Login.obj
 0001:0009b653       ?GetRoleInfo@KLogin@@QAEHHPAUKRoleChiefInfo@@@Z 0049c653 f   Login.obj
 0001:0009b69c       ?ProcessAccountLoginResponse@KLogin@@AAEXPAUKLoginStructHead@@@Z 0049c69c f   Login.obj
 0001:0009b866       ?ProcessRoleListResponse@KLogin@@AAEXPAUTProcessData@@@Z 0049c866 f   Login.obj
 0001:0009b9ac       ?ProcessCreateRoleResponse@KLogin@@AAEXPAUtagNewDelRoleResponse@@@Z 0049c9ac f   Login.obj
 0001:0009ba2d       ?ProcessDeleteRoleResponse@KLogin@@AAEXPAUtagNewDelRoleResponse@@@Z 0049ca2d f   Login.obj
 0001:0009bb5e       ?ProcessToLoginGameServResponse@KLogin@@AAEXPAUtagNotifyPlayerLogin@@@Z 0049cb5e f   Login.obj
 0001:0009bca3       ?AcceptNetMsg@KLogin@@UAEXPAX@Z 0049cca3 f   Login.obj
 0001:0009bd3b       ?GetResult@KLogin@@QAE?AW4LOGIN_LOGIC_RESULT_INFO@@XZ 0049cd3b f   Login.obj
 0001:0009bd5e       ?GetRoleCount@KLogin@@QAEHAAH@Z 0049cd5e f   Login.obj
 0001:0009bdd8       ?GetLoginAccount@KLogin@@QAE_NPAD@Z 0049cdd8 f   Login.obj
 0001:0009be02       ?LoadLoginChoice@KLogin@@QAEXXZ 0049ce02 f   Login.obj
 0001:0009bff0       ?SaveLoginChoice@KLogin@@QAEXXZ 0049cff0 f   Login.obj
 0001:0009c1c1       ?GetRegionServer@KLogin@@QAEXPAD0@Z 0049d1c1 f   Login.obj
 0001:0009c1f9       ?GetServerRegionList@KLogin@@QAEPAUKLoginServer@@AAH0@Z 0049d1f9 f   Login.obj
 0001:0009c3e8       ?GetServerList@KLogin@@QAEPAUKLoginServer@@HAAH0@Z 0049d3e8 f   Login.obj
 0001:0009c93b       ?SetAccountServer@KLogin@@QAEHABUKLoginServer@@@Z 0049d93b f   Login.obj
 0001:0009c964       ?Request@KLogin@@AAEHPBDPBUtagKSG_PASSWORD@@H@Z 0049d964 f   Login.obj
 0001:0009ca23       ?ConnectAccountServer@KLogin@@AAEHPBE@Z 0049da23 f   Login.obj
 0001:0009cb4d       ?RegistNetAgent@KLogin@@AAEXXZ 0049db4d f   Login.obj
 0001:0009cb9b       ?UnRegistNetAgent@KLogin@@AAEXXZ 0049db9b f   Login.obj
 0001:0009cbe1       ?SetAccountPassword@KLogin@@AAEXPBDPBUtagKSG_PASSWORD@@@Z 0049dbe1 f   Login.obj
 0001:0009cc96       ?GetAccountPassword@KLogin@@AAEXPADPAUtagKSG_PASSWORD@@@Z 0049dc96 f   Login.obj
 0001:0009cd40       ??0iKNetMsgTargetObject@@QAE@XZ 0049dd40 f i Login.obj
 0001:0009cd60       ?TextMsgFilter@@YAHPBDH@Z  0049dd60 f   TextCtrlCmd.obj
 0001:0009cdb0       ?Error_SetErrorCode@@YAXI@Z 0049ddb0 f   ErrorCode.obj
 0001:0009cdbd       ?Error_SetErrorString@@YAXPBD@Z 0049ddbd f   ErrorCode.obj
 0001:0009cddd       ?Error_Box@@YAXXZ          0049dddd f   ErrorCode.obj
 0001:0009d026       _DeleteFileA@4             0049e026 f   kernel32:KERNEL32.dll
 0001:0009d02c       _GetTempFileNameA@16       0049e02c f   kernel32:KERNEL32.dll
 0001:0009d032       _GetTempPathA@8            0049e032 f   kernel32:KERNEL32.dll
 0001:0009d038       _GetTickCount@0            0049e038 f   kernel32:KERNEL32.dll
 0001:0009d03e       _MulDiv@12                 0049e03e f   kernel32:KERNEL32.dll
 0001:0009d044       _FreeLibrary@4             0049e044 f   kernel32:KERNEL32.dll
 0001:0009d04a       _GetProcAddress@8          0049e04a f   kernel32:KERNEL32.dll
 0001:0009d050       _LoadLibraryA@4            0049e050 f   kernel32:KERNEL32.dll
 0001:0009d056       _SystemTimeToTzSpecificLocalTime@12 0049e056 f   kernel32:KERNEL32.dll
 0001:0009d05c       _RemoveDirectoryA@4        0049e05c f   kernel32:KERNEL32.dll
 0001:0009d062       _FindClose@4               0049e062 f   kernel32:KERNEL32.dll
 0001:0009d068       _FindNextFileA@8           0049e068 f   kernel32:KERNEL32.dll
 0001:0009d06e       _SetFileAttributesA@8      0049e06e f   kernel32:KERNEL32.dll
 0001:0009d074       _FindFirstFileA@8          0049e074 f   kernel32:KERNEL32.dll
 0001:0009d07a       _GetVersion@0              0049e07a f   kernel32:KERNEL32.dll
 0001:0009d080       _Sleep@4                   0049e080 f   kernel32:KERNEL32.dll
 0001:0009d086       _GetVersionExA@4           0049e086 f   kernel32:KERNEL32.dll
 0001:0009d08c       _CloseHandle@4             0049e08c f   kernel32:KERNEL32.dll
 0001:0009d092       _GetModuleHandleA@4        0049e092 f   kernel32:KERNEL32.dll
 0001:0009d098       _FreeConsole@0             0049e098 f   kernel32:KERNEL32.dll
 0001:0009d09e       _GetModuleFileNameA@12     0049e09e f   kernel32:KERNEL32.dll
 0001:0009d0a4       _AllocConsole@0            0049e0a4 f   kernel32:KERNEL32.dll
 0001:0009d0aa       _Process32Next@8           0049e0aa f   kernel32:KERNEL32.dll
 0001:0009d0b0       _TerminateProcess@8        0049e0b0 f   kernel32:KERNEL32.dll
 0001:0009d0b6       _OpenProcess@12            0049e0b6 f   kernel32:KERNEL32.dll
 0001:0009d0bc       _Process32First@8          0049e0bc f   kernel32:KERNEL32.dll
 0001:0009d0c2       _CreateToolhelp32Snapshot@8 0049e0c2 f   kernel32:KERNEL32.dll
 0001:0009d0c8       _GetComputerNameA@8        0049e0c8 f   kernel32:KERNEL32.dll
 0001:0009d0ce       _SetCursor@4               0049e0ce f   user32:USER32.dll
 0001:0009d0d4       _LoadCursorA@8             0049e0d4 f   user32:USER32.dll
 0001:0009d0da       _LoadCursorFromFileA@4     0049e0da f   user32:USER32.dll
 0001:0009d0e0       _ShowCursor@4              0049e0e0 f   user32:USER32.dll
 0001:0009d0e6       _SetCaretPos@8             0049e0e6 f   user32:USER32.dll
 0001:0009d0ec       _CloseClipboard@0          0049e0ec f   user32:USER32.dll
 0001:0009d0f2       _EmptyClipboard@0          0049e0f2 f   user32:USER32.dll
 0001:0009d0f8       _GetClipboardData@4        0049e0f8 f   user32:USER32.dll
 0001:0009d0fe       _OpenClipboard@4           0049e0fe f   user32:USER32.dll
 0001:0009d104       _GetKeyState@4             0049e104 f   user32:USER32.dll
 0001:0009d10a       _SetCursorPos@8            0049e10a f   user32:USER32.dll
 0001:0009d110       _ClientToScreen@8          0049e110 f   user32:USER32.dll
 0001:0009d116       _SendMessageA@16           0049e116 f   user32:USER32.dll
 0001:0009d11c       _ChangeDisplaySettingsA@8  0049e11c f   user32:USER32.dll
 0001:0009d122       _EnumDisplaySettingsA@12   0049e122 f   user32:USER32.dll
 0001:0009d128       _SetWindowTextA@8          0049e128 f   user32:USER32.dll
 0001:0009d12e       _MessageBoxA@16            0049e12e f   user32:USER32.dll
 0001:0009d134       _SHGetSpecialFolderPathA@16 0049e134 f   shell32:SHELL32.dll
 0001:0009d13a       _StrStrIA@8                0049e13a f   shell32:SHELL32.dll
 0001:0009d140       _timeGetTime@0             0049e140 f   Winmm:WINMM.dll
 0001:0009d146       _lua_tostring              0049e146 f   lualibdll:LuaLibDll.dll
 0001:0009d14c       _lua_gettop                0049e14c f   lualibdll:LuaLibDll.dll
 0001:0009d152       _lua_tonumber              0049e152 f   lualibdll:LuaLibDll.dll
 0001:0009d158       _lua_type                  0049e158 f   lualibdll:LuaLibDll.dll
 0001:0009d15e       _lua_pushnumber            0049e15e f   lualibdll:LuaLibDll.dll
 0001:0009d164       _lua_pushstring            0049e164 f   lualibdll:LuaLibDll.dll
 0001:0009d16a       _TEncodeText               0049e16a f   engine:Engine.dll
 0001:0009d170       _TGetEncodedTextLineCount  0049e170 f   engine:Engine.dll
 0001:0009d176       ??1KIniFile@@QAE@XZ        0049e176 f   engine:Engine.dll
 0001:0009d17c       ?GetString@KIniFile@@QAEHPBD00PADK@Z 0049e17c f   engine:Engine.dll
 0001:0009d182       ?GetInteger@KIniFile@@QAEHPBD0HPAH@Z 0049e182 f   engine:Engine.dll
 0001:0009d188       ?Load@KIniFile@@QAEHPBD@Z  0049e188 f   engine:Engine.dll
 0001:0009d18e       ??0KIniFile@@QAE@XZ        0049e18e f   engine:Engine.dll
 0001:0009d194       _TFindSpecialCtrlInEncodedText 0049e194 f   engine:Engine.dll
 0001:0009d19a       ?g_CreatePath@@YAXPAD@Z    0049e19a f   engine:Engine.dll
 0001:0009d1a0       _AdviseEngine              0049e1a0 f   engine:Engine.dll
 0001:0009d1a6       _UnAdviseEngine            0049e1a6 f   engine:Engine.dll
 0001:0009d1ac       ??1KPakFile@@QAE@XZ        0049e1ac f   engine:Engine.dll
 0001:0009d1b2       ??1KFile@@QAE@XZ           0049e1b2 f   engine:Engine.dll
 0001:0009d1b8       ?Close@KFile@@QAEXXZ       0049e1b8 f   engine:Engine.dll
 0001:0009d1be       ?Close@KPakFile@@QAEXXZ    0049e1be f   engine:Engine.dll
 0001:0009d1c4       ?Write@KFile@@QAEKPAXK@Z   0049e1c4 f   engine:Engine.dll
 0001:0009d1ca       ?Read@KPakFile@@QAEKPAXI@Z 0049e1ca f   engine:Engine.dll
 0001:0009d1d0       ?Size@KPakFile@@QAEKXZ     0049e1d0 f   engine:Engine.dll
 0001:0009d1d6       ?Open@KPakFile@@QAEHPBD@Z  0049e1d6 f   engine:Engine.dll
 0001:0009d1dc       ?Create@KFile@@QAEHPAD@Z   0049e1dc f   engine:Engine.dll
 0001:0009d1e2       ??0KFile@@QAE@XZ           0049e1e2 f   engine:Engine.dll
 0001:0009d1e8       ??0KPakFile@@QAE@XZ        0049e1e8 f   engine:Engine.dll
 0001:0009d1ee       ??0KIme@@QAE@XZ            0049e1ee f   engine:Engine.dll
 0001:0009d1f4       ??1KIme@@QAE@XZ            0049e1f4 f   engine:Engine.dll
 0001:0009d1fa       ?CloseIME@KIme@@QAEXXZ     0049e1fa f   engine:Engine.dll
 0001:0009d200       ?DisableLanguageChange@KIme@@QAEXXZ 0049e200 f   engine:Engine.dll
 0001:0009d206       ?IsIme@KIme@@QAEHXZ        0049e206 f   engine:Engine.dll
 0001:0009d20c       ?SetCaretPos@KIme@@QAEXHH@Z 0049e20c f   engine:Engine.dll
 0001:0009d212       ?OpenIME@KIme@@QAEXXZ      0049e212 f   engine:Engine.dll
 0001:0009d218       ?EnableLanguageChange@KIme@@QAEXXZ 0049e218 f   engine:Engine.dll
 0001:0009d21e       _TSplitString              0049e21e f   engine:Engine.dll
 0001:0009d224       _TGetLimitLenString        0049e224 f   engine:Engine.dll
 0001:0009d22a       _TRemoveCtrlInEncodedText  0049e22a f   engine:Engine.dll
 0001:0009d230       ?GetInteger2@KIniFile@@QAEXPBD0PAH1@Z 0049e230 f   engine:Engine.dll
 0001:0009d236       ?g_GetMainHWnd@@YAPAUHWND__@@XZ 0049e236 f   engine:Engine.dll
 0001:0009d23c       ?KSG_StringToMD5String@@YAHQADQBD@Z 0049e23c f   engine:Engine.dll
 0001:0009d242       ?WriteInteger@KIniFile@@QAEXPBD0H@Z 0049e242 f   engine:Engine.dll
 0001:0009d248       ?g_GetFullPath@@YAXPAD0@Z  0049e248 f   engine:Engine.dll
 0001:0009d24e       ?WriteString@KIniFile@@QAEXPBD00@Z 0049e24e f   engine:Engine.dll
 0001:0009d254       ?IsSectionExist@KIniFile@@QAEHPBD@Z 0049e254 f   engine:Engine.dll
 0001:0009d25a       ?GetStruct@KIniFile@@QAEXPBD0PAXK@Z 0049e25a f   engine:Engine.dll
 0001:0009d260       ?EraseKey@KIniFile@@QAEXPBD0@Z 0049e260 f   engine:Engine.dll
 0001:0009d266       ?WriteStruct@KIniFile@@QAEXPBD0PAXK@Z 0049e266 f   engine:Engine.dll
 0001:0009d26c       _TGetItemChatLineCount     0049e26c f   engine:Engine.dll
 0001:0009d272       _TClearSpecialCtrlInEncodedText 0049e272 f   engine:Engine.dll
 0001:0009d278       ?Read@KFile@@QAEKPAXK@Z    0049e278 f   engine:Engine.dll
 0001:0009d27e       ?Open@KFile@@QAEHPAD@Z     0049e27e f   engine:Engine.dll
 0001:0009d284       ?Clear@KIniFile@@QAEXXZ    0049e284 f   engine:Engine.dll
 0001:0009d28a       _TGetEncodedTextEffectCtrls 0049e28a f   engine:Engine.dll
 0001:0009d290       _TSplitEncodedString       0049e290 f   engine:Engine.dll
 0001:0009d296       _TGetEncodedTextOutputLenPos 0049e296 f   engine:Engine.dll
 0001:0009d29c       ?Save@KIniFile@@QAEHPBD@Z  0049e29c f   engine:Engine.dll
 0001:0009d2a2       ?EraseSection@KIniFile@@QAEXPBD@Z 0049e2a2 f   engine:Engine.dll
 0001:0009d2a8       ??0KLuaScript@@QAE@XZ      0049e2a8 f   engine:Engine.dll
 0001:0009d2ae       ??1KLuaScript@@UAE@XZ      0049e2ae f   engine:Engine.dll
 0001:0009d2b4       ?g_GetRootPath@@YAXPAD@Z   0049e2b4 f   engine:Engine.dll
 0001:0009d2ba       ?RegisterFunctions@KLuaScript@@QAEHQAUTLua_Funcs@@H@Z 0049e2ba f   engine:Engine.dll
 0001:0009d2c0       ?Init@KLuaScript@@UAEHXZ   0049e2c0 f   engine:Engine.dll
 0001:0009d2c6       ?Load@KLuaScript@@UAEHPAD@Z 0049e2c6 f   engine:Engine.dll
 0001:0009d2cc       ?ExecuteCode@KLuaScript@@QAEHXZ 0049e2cc f   engine:Engine.dll
 0001:0009d2d2       ?LoadBuffer@KLuaScript@@QAEHPAEK@Z 0049e2d2 f   engine:Engine.dll
 0001:0009d2d8       ?TurnOn@KIme@@QAEXXZ       0049e2d8 f   engine:Engine.dll
 0001:0009d2de       ?g_FileName2Id@@YAKPAD@Z   0049e2de f   engine:Engine.dll
 0001:0009d2e4       _EDOneTimePad_Decipher     0049e2e4 f   engine:Engine.dll
 0001:0009d2ea       ??1KMp3Music@@UAE@XZ       0049e2ea f   engine:Engine.dll
 0001:0009d2f0       ??1KDirectSound@@QAE@XZ    0049e2f0 f   engine:Engine.dll
 0001:0009d2f6       ??0KPakList@@QAE@XZ        0049e2f6 f   engine:Engine.dll
 0001:0009d2fc       ??1KPakList@@QAE@XZ        0049e2fc f   engine:Engine.dll
 0001:0009d302       ?Run@KWin32App@@UAEXXZ     0049e302 f   engine:Engine.dll
 0001:0009d308       ?Init@KWin32App@@UAEHPAUHINSTANCE__@@PAD@Z 0049e308 f   engine:Engine.dll
 0001:0009d30e       ?MsgProc@KWin32App@@UAEJPAUHWND__@@IIJ@Z 0049e30e f   engine:Engine.dll
 0001:0009d314       ?SetMultiGame@KWin32App@@UAEXH@Z 0049e314 f   engine:Engine.dll
 0001:0009d31a       ?ShowMouse@KWin32App@@UAEXH@Z 0049e31a f   engine:Engine.dll
 0001:0009d320       ?InitWindow@KWin32App@@MAEHPAUHINSTANCE__@@@Z 0049e320 f   engine:Engine.dll
 0001:0009d326       ?InitClass@KWin32App@@MAEHPAUHINSTANCE__@@@Z 0049e326 f   engine:Engine.dll
 0001:0009d32c       ??0KTimer@@QAE@XZ          0049e32c f   engine:Engine.dll
 0001:0009d332       ??0KDirectSound@@QAE@XZ    0049e332 f   engine:Engine.dll
 0001:0009d338       ??0KMp3Music@@QAE@XZ       0049e338 f   engine:Engine.dll
 0001:0009d33e       ??0KWin32App@@QAE@XZ       0049e33e f   engine:Engine.dll
 0001:0009d344       ?SetMouseHoverTime@KWin32App@@QAEXI@Z 0049e344 f   engine:Engine.dll
 0001:0009d34a       ?Start@KTimer@@QAEXXZ      0049e34a f   engine:Engine.dll
 0001:0009d350       ?Init@KDirectSound@@QAEHXZ 0049e350 f   engine:Engine.dll
 0001:0009d356       ?Open@KPakList@@QAE_NPBD@Z 0049e356 f   engine:Engine.dll
 0001:0009d35c       ?g_SetFilePath@@YAXPAD@Z   0049e35c f   engine:Engine.dll
 0001:0009d362       ?g_SetRootPath@@YAXPAD@Z   0049e362 f   engine:Engine.dll
 0001:0009d368       ?Exit@KDirectSound@@QAEXXZ 0049e368 f   engine:Engine.dll
 0001:0009d36e       ?GetElapse@KTimer@@QAEKXZ  0049e36e f   engine:Engine.dll
 0001:0009d374       ?g_DebugLog@@YAXPADZZ      0049e374 f   engine:Engine.dll
 0001:0009d37a       _EDOneTimePad_Encipher     0049e37a f   engine:Engine.dll
 0001:0009d380       _CoreGetShell              0049e380 f   CoreClient:CoreClient.dll
 0001:0009d386       _strcmp                    0049e386 f   MSVCRT:MSVCRT.dll
 0001:0009d38c       _strlen                    0049e38c f   MSVCRT:MSVCRT.dll
 0001:0009d392       _memset                    0049e392 f   MSVCRT:MSVCRT.dll
 0001:0009d398       _memcpy                    0049e398 f   MSVCRT:MSVCRT.dll
 0001:0009d39e       _sprintf                   0049e39e f   MSVCRT:MSVCRT.dll
 0001:0009d3a4       ___CxxFrameHandler         0049e3a4 f   MSVCRT:MSVCRT.dll
 0001:0009d3b0       _strcpy                    0049e3b0 f   MSVCRT:MSVCRT.dll
 0001:0009d3b6       _free                      0049e3b6 f   MSVCRT:MSVCRT.dll
 0001:0009d3bc       _strcat                    0049e3bc f   MSVCRT:MSVCRT.dll
 0001:0009d3c2       _strftime                  0049e3c2 f   MSVCRT:MSVCRT.dll
 0001:0009d3c8       _localtime                 0049e3c8 f   MSVCRT:MSVCRT.dll
 0001:0009d3ce       _time                      0049e3ce f   MSVCRT:MSVCRT.dll
 0001:0009d3d4       __purecall                 0049e3d4 f   MSVCRT:MSVCRT.dll
 0001:0009d3da       _strncpy                   0049e3da f   MSVCRT:MSVCRT.dll
 0001:0009d3e0       ??3@YAXPAX@Z               0049e3e0 f   MSVCRT:MSVCRT.dll
 0001:0009d3e6       ??2@YAPAXI@Z               0049e3e6 f   MSVCRT:MSVCRT.dll
 0001:0009d3f0       __alloca_probe             0049e3f0 f   MSVCRT:chkstk.obj
 0001:0009d3f0       __chkstk                   0049e3f0 f   MSVCRT:chkstk.obj
 0001:0009d41f       __onexit                   0049e41f f   MSVCRT:atonexit.obj
 0001:0009d44b       _atexit                    0049e44b f   MSVCRT:atonexit.obj
 0001:0009d45e       _memmove                   0049e45e f   MSVCRT:MSVCRT.dll
 0001:0009d464       _atoi                      0049e464 f   MSVCRT:MSVCRT.dll
 0001:0009d46a       _malloc                    0049e46a f   MSVCRT:MSVCRT.dll
 0001:0009d470       _realloc                   0049e470 f   MSVCRT:MSVCRT.dll
 0001:0009d476       _memcmp                    0049e476 f   MSVCRT:MSVCRT.dll
 0001:0009d47c       ??_M@YGXPAXIHP6EX0@Z@Z     0049e47c f   MSVCRT:ehvecdtr.obj
 0001:0009d4fc       ?__ArrayUnwind@@YGXPAXIHP6EX0@Z@Z 0049e4fc f   MSVCRT:ehvecdtr.obj
 0001:0009d570       ??_L@YGXPAXIHP6EX0@Z1@Z    0049e570 f   MSVCRT:ehvecctr.obj
 0001:0009d5f2       _rand                      0049e5f2 f   MSVCRT:MSVCRT.dll
 0001:0009d5f8       _strstr                    0049e5f8 f   MSVCRT:MSVCRT.dll
 0001:0009d5fe       __mbsicmp                  0049e5fe f   MSVCRT:MSVCRT.dll
 0001:0009d604       _srand                     0049e604 f   MSVCRT:MSVCRT.dll
 0001:0009d60a       _mktime                    0049e60a f   MSVCRT:MSVCRT.dll
 0001:0009d610       _fclose                    0049e610 f   MSVCRT:MSVCRT.dll
 0001:0009d616       _fopen                     0049e616 f   MSVCRT:MSVCRT.dll
 0001:0009d61c       _remove                    0049e61c f   MSVCRT:MSVCRT.dll
 0001:0009d622       __ftol                     0049e622 f   MSVCRT:MSVCRT.dll
 0001:0009d628       _isgraph                   0049e628 f   MSVCRT:MSVCRT.dll
 0001:0009d62e       _strchr                    0049e62e f   MSVCRT:MSVCRT.dll
 0001:0009d634       __except_handler3          0049e634 f   MSVCRT:MSVCRT.dll
 0001:0009d63a       _sscanf                    0049e63a f   MSVCRT:MSVCRT.dll
 0001:0009d640       _WinMainCRTStartup         0049e640 f   MSVCRT:crtexew.obj
 0001:0009d79e       ___dllonexit               0049e79e f   MSVCRT:MSVCRT.dll
 0001:0009d7a4       ?terminate@@YAXXZ          0049e7a4 f   MSVCRT:MSVCRT.dll
 0001:0009d7aa       __exit                     0049e7aa f   MSVCRT:MSVCRT.dll
 0001:0009d7b0       __XcptFilter               0049e7b0 f   MSVCRT:MSVCRT.dll
 0001:0009d7b6       _exit                      0049e7b6 f   MSVCRT:MSVCRT.dll
 0001:0009d7bc       ___getmainargs             0049e7bc f   MSVCRT:MSVCRT.dll
 0001:0009d7c2       __initterm                 0049e7c2 f   MSVCRT:MSVCRT.dll
 0001:0009d7c8       __setdefaultprecision      0049e7c8 f   MSVCRT:fp8.obj
 0001:0009d7da       ___setusermatherr          0049e7da f   MSVCRT:MSVCRT.dll
 0001:0009d7e0       __matherr                  0049e7e0 f   MSVCRT:merr.obj
 0001:0009d7e3       __setargv                  0049e7e3 f   MSVCRT:dllargv.obj
 0001:0009d7e4       ___p__commode              0049e7e4 f   MSVCRT:MSVCRT.dll
 0001:0009d7ea       ___p__fmode                0049e7ea f   MSVCRT:MSVCRT.dll
 0001:0009d7f0       ___set_app_type            0049e7f0 f   MSVCRT:MSVCRT.dll
 0001:0009d7f6       __controlfp                0049e7f6 f   MSVCRT:MSVCRT.dll
 0001:0009d800       ??1?$basic_string@DU?$char_traits@D@std@@V?$allocator@D@2@@std@@QAE@XZ 0049e800 f   msvcprt:MSVCP60.dll
 0001:0009d806       ??0?$basic_string@DU?$char_traits@D@std@@V?$allocator@D@2@@std@@QAE@PBDABV?$allocator@D@1@@Z 0049e806 f   msvcprt:MSVCP60.dll
 0001:0009d80c       ?c_str@?$basic_string@DU?$char_traits@D@std@@V?$allocator@D@2@@std@@QBEPBDXZ 0049e80c f   msvcprt:MSVCP60.dll
 0001:0009d812       ?size@?$basic_string@DU?$char_traits@D@std@@V?$allocator@D@2@@std@@QBEIXZ 0049e812 f   msvcprt:MSVCP60.dll
 0001:0009d818       ??1_Lockit@std@@QAE@XZ     0049e818 f   msvcprt:MSVCP60.dll
 0001:0009d81e       ??0_Lockit@std@@QAE@XZ     0049e81e f   msvcprt:MSVCP60.dll
 0001:0009d824       ??0?$basic_string@DU?$char_traits@D@std@@V?$allocator@D@2@@std@@QAE@ABV01@@Z 0049e824 f   msvcprt:MSVCP60.dll
 0001:0009d82a       ??Y?$basic_string@DU?$char_traits@D@std@@V?$allocator@D@2@@std@@QAEAAV01@ABV01@@Z 0049e82a f   msvcprt:MSVCP60.dll
 0001:0009d830       ??Y?$basic_string@DU?$char_traits@D@std@@V?$allocator@D@2@@std@@QAEAAV01@PBD@Z 0049e830 f   msvcprt:MSVCP60.dll
 0001:0009d836       ??4?$basic_string@DU?$char_traits@D@std@@V?$allocator@D@2@@std@@QAEAAV01@PBD@Z 0049e836 f   msvcprt:MSVCP60.dll
 0001:0009d83c       ??0?$basic_string@DU?$char_traits@D@std@@V?$allocator@D@2@@std@@QAE@ABV?$allocator@D@1@@Z 0049e83c f   msvcprt:MSVCP60.dll
 0001:0009d842       ?empty@?$basic_string@DU?$char_traits@D@std@@V?$allocator@D@2@@std@@QBE_NXZ 0049e842 f   msvcprt:MSVCP60.dll
 0001:0009d848       ??4?$basic_string@DU?$char_traits@D@std@@V?$allocator@D@2@@std@@QAEAAV01@ABV01@@Z 0049e848 f   msvcprt:MSVCP60.dll
 0001:0009d84e       ??8std@@YA_NABV?$basic_string@DU?$char_traits@D@std@@V?$allocator@D@2@@0@0@Z 0049e84e f   msvcprt:MSVCP60.dll
 0001:0009d854       ??8std@@YA_NABV?$basic_string@DU?$char_traits@D@std@@V?$allocator@D@2@@0@PBD@Z 0049e854 f   msvcprt:MSVCP60.dll
 0001:0009d85a       ??4?$basic_string@DU?$char_traits@D@std@@V?$allocator@D@2@@std@@QAEAAV01@D@Z 0049e85a f   msvcprt:MSVCP60.dll
 0001:0009d860       ??Mstd@@YA_NABV?$basic_string@DU?$char_traits@D@std@@V?$allocator@D@2@@0@0@Z 0049e860 f   msvcprt:MSVCP60.dll
 0001:0009d866       ??0?$basic_string@DU?$char_traits@D@std@@V?$allocator@D@2@@std@@QAE@PBDIABV?$allocator@D@1@@Z 0049e866 f   msvcprt:MSVCP60.dll
 0001:0009d870       ?AddExpression@CTextFilter@@MAEHPBD@Z 0049e870 f   FilterText_StaticLib:FilterText.obj
 0001:0009da89       ?Clearup@CTextFilter@@MAEHXZ 0049ea89 f   FilterText_StaticLib:FilterText.obj
 0001:0009db26       ?IsTextPass@CTextFilter@@MAEHPBD@Z 0049eb26 f   FilterText_StaticLib:FilterText.obj
 0001:0009de0e       _CreateTextFilter          0049ee0e f   FilterText_StaticLib:FilterText.obj
 0001:0009de50       ?Char2HashIdx@CTextFilter@@AAEED@Z 0049ee50 f i FilterText_StaticLib:FilterText.obj
 0001:0009de60       ?NextChar@CTextFilter@@CAPBDPBD@Z 0049ee60 f i FilterText_StaticLib:FilterText.obj
 0001:0009dea0       ?CreateInstance@CTextFilter@@SAPAV1@XZ 0049eea0 f i FilterText_StaticLib:FilterText.obj
 0001:0009df10       ??0CTextFilter@@IAE@XZ     0049ef10 f i FilterText_StaticLib:FilterText.obj
 0001:0009dfb0       ?AddRef@CTextFilter@@MAGKXZ 0049efb0 f i FilterText_StaticLib:FilterText.obj
 0001:0009dfd0       ?Release@CTextFilter@@MAGKXZ 0049efd0 f i FilterText_StaticLib:FilterText.obj
 0001:0009e030       ?QueryInterface@CTextFilter@@MAGJABU_GUID@@PAPAX@Z 0049f030 f i FilterText_StaticLib:FilterText.obj
 0001:0009e040       ??0ITextFilter@@QAE@XZ     0049f040 f i FilterText_StaticLib:FilterText.obj
 0001:0009e060       ??_F?$vector@VRegexp@@V?$allocator@VRegexp@@@std@@@std@@QAEXXZ 0049f060 f i FilterText_StaticLib:FilterText.obj
 0001:0009e080       ??_GCTextFilter@@IAEPAXI@Z 0049f080 f i FilterText_StaticLib:FilterText.obj
 0001:0009e0b0       ??1CTextFilter@@IAE@XZ     0049f0b0 f i FilterText_StaticLib:FilterText.obj
 0001:0009e120       ??0IUnknown@@QAE@XZ        0049f120 f i FilterText_StaticLib:FilterText.obj
 0001:0009e130       ??0?$vector@VRegexp@@V?$allocator@VRegexp@@@std@@@std@@QAE@ABV?$allocator@VRegexp@@@1@@Z 0049f130 f i FilterText_StaticLib:FilterText.obj
 0001:0009e170       ??1?$vector@VRegexp@@V?$allocator@VRegexp@@@std@@@std@@QAE@XZ 0049f170 f i FilterText_StaticLib:FilterText.obj
 0001:0009e1e0       ?size@?$vector@VRegexp@@V?$allocator@VRegexp@@@std@@@std@@QBEIXZ 0049f1e0 f i FilterText_StaticLib:FilterText.obj
 0001:0009e220       ??A?$vector@VRegexp@@V?$allocator@VRegexp@@@std@@@std@@QAEAAVRegexp@@I@Z 0049f220 f i FilterText_StaticLib:FilterText.obj
 0001:0009e240       ?push_back@?$vector@VRegexp@@V?$allocator@VRegexp@@@std@@@std@@QAEXABVRegexp@@@Z 0049f240 f i FilterText_StaticLib:FilterText.obj
 0001:0009e270       ?clear@?$vector@VRegexp@@V?$allocator@VRegexp@@@std@@@std@@QAEXXZ 0049f270 f i FilterText_StaticLib:FilterText.obj
 0001:0009e2a0       ?begin@?$vector@VRegexp@@V?$allocator@VRegexp@@@std@@@std@@QAEPAVRegexp@@XZ 0049f2a0 f i FilterText_StaticLib:FilterText.obj
 0001:0009e2c0       ?end@?$vector@VRegexp@@V?$allocator@VRegexp@@@std@@@std@@QAEPAVRegexp@@XZ 0049f2c0 f i FilterText_StaticLib:FilterText.obj
 0001:0009e2e0       ?insert@?$vector@VRegexp@@V?$allocator@VRegexp@@@std@@@std@@QAEPAVRegexp@@PAV3@ABV3@@Z 0049f2e0 f i FilterText_StaticLib:FilterText.obj
 0001:0009e330       ?erase@?$vector@VRegexp@@V?$allocator@VRegexp@@@std@@@std@@QAEPAVRegexp@@PAV3@0@Z 0049f330 f i FilterText_StaticLib:FilterText.obj
 0001:0009e380       ?_Destroy@?$vector@VRegexp@@V?$allocator@VRegexp@@@std@@@std@@IAEXPAVRegexp@@0@Z 0049f380 f i FilterText_StaticLib:FilterText.obj
 0001:0009e3b0       ?deallocate@?$allocator@VRegexp@@@std@@QAEXPAXI@Z 0049f3b0 f i FilterText_StaticLib:FilterText.obj
 0001:0009e3d0       ?insert@?$vector@VRegexp@@V?$allocator@VRegexp@@@std@@@std@@QAEXPAVRegexp@@IABV3@@Z 0049f3d0 f i FilterText_StaticLib:FilterText.obj
 0001:0009e610       ?destroy@?$allocator@VRegexp@@@std@@QAEXPAVRegexp@@@Z 0049f610 f i FilterText_StaticLib:FilterText.obj
 0001:0009e630       ?_Ucopy@?$vector@VRegexp@@V?$allocator@VRegexp@@@std@@@std@@IAEPAVRegexp@@PBV3@0PAV3@@Z 0049f630 f i FilterText_StaticLib:FilterText.obj
 0001:0009e670       ?_Ufill@?$vector@VRegexp@@V?$allocator@VRegexp@@@std@@@std@@IAEXPAVRegexp@@IABV3@@Z 0049f670 f i FilterText_StaticLib:FilterText.obj
 0001:0009e6b0       ?allocate@?$allocator@VRegexp@@@std@@QAEPAVRegexp@@IPBX@Z 0049f6b0 f i FilterText_StaticLib:FilterText.obj
 0001:0009e6d0       ?construct@?$allocator@VRegexp@@@std@@QAEXPAVRegexp@@ABV3@@Z 0049f6d0 f i FilterText_StaticLib:FilterText.obj
 0001:0009e6f0       ?copy@std@@YAPAVRegexp@@PAV2@00@Z 0049f6f0 f i FilterText_StaticLib:FilterText.obj
 0001:0009e730       ?fill@std@@YAXPAVRegexp@@0ABV2@@Z 0049f730 f i FilterText_StaticLib:FilterText.obj
 0001:0009e760       ?copy_backward@std@@YAPAVRegexp@@PAV2@00@Z 0049f760 f i FilterText_StaticLib:FilterText.obj
 0001:0009e790       ?_Destroy@std@@YAXPAVRegexp@@@Z 0049f790 f i FilterText_StaticLib:FilterText.obj
 0001:0009e7a0       ?_Allocate@std@@YAPAVRegexp@@HPAV2@@Z 0049f7a0 f i FilterText_StaticLib:FilterText.obj
 0001:0009e7d0       ?_Construct@std@@YAXPAVRegexp@@ABV2@@Z 0049f7d0 f i FilterText_StaticLib:FilterText.obj
 0001:0009e840       ??_GRegexp@@QAEPAXI@Z      0049f840 f i FilterText_StaticLib:FilterText.obj
 0001:0009e870       ?regerror@CRegErrorHandler@@IBEXPBD@Z 0049f870 f   FilterText_StaticLib:Regexp.obj
 0001:0009e88a       ?regerror@CRegErrorHandler@@IBEXH@Z 0049f88a f   FilterText_StaticLib:Regexp.obj
 0001:0009e8ac       ?GetErrorString@CRegErrorHandler@@QBEABV?$basic_string@DU?$char_traits@D@std@@V?$allocator@D@2@@std@@XZ 0049f8ac f   FilterText_StaticLib:Regexp.obj
 0001:0009e8ba       ?ClearErrorString@CRegErrorHandler@@IBEXXZ 0049f8ba f   FilterText_StaticLib:Regexp.obj
 0001:0009e8d0       ?FindErr@CRegErrorHandler@@CAPBDH@Z 0049f8d0 f   FilterText_StaticLib:Regexp.obj
 0001:0009e90c       ?regnode@CRegCompiler@@MAEPADH@Z 0049f90c f   FilterText_StaticLib:Regexp.obj
 0001:0009e965       ?reginsert@CRegCompiler@@MAEXDPAD@Z 0049f965 f   FilterText_StaticLib:Regexp.obj
 0001:0009e9d6       ?regtail@CRegCompiler@@MAEXPAD0@Z 0049f9d6 f   FilterText_StaticLib:Regexp.obj
 0001:0009ea3d       ?regoptail@CRegCompiler@@MAEXPAD0@Z 0049fa3d f   FilterText_StaticLib:Regexp.obj
 0001:0009ea7a       ??0CRegCompilerBase@@QAE@PBD@Z 0049fa7a f   FilterText_StaticLib:Regexp.obj
 0001:0009eab1       ??0CRegValidator@@QAE@PBD@Z 0049fab1 f   FilterText_StaticLib:Regexp.obj
 0001:0009eb2c       ??0CRegCompiler@@QAE@PBDPAD@Z 0049fb2c f   FilterText_StaticLib:Regexp.obj
 0001:0009eb91       ??0regexp@@QAE@PBDH@Z      0049fb91 f   FilterText_StaticLib:Regexp.obj
 0001:0009ec95       ??0regexp@@QAE@ABV0@@Z     0049fc95 f   FilterText_StaticLib:Regexp.obj
 0001:0009edd7       ??1regexp@@QAE@XZ          0049fdd7 f   FilterText_StaticLib:Regexp.obj
 0001:0009ee01       ?regcomp@regexp@@QAE_NPBD@Z 0049fe01 f   FilterText_StaticLib:Regexp.obj
 0001:0009f071       ?getCopy@regexp@@QAEPAV1@XZ 004a0071 f   FilterText_StaticLib:Regexp.obj
 0001:0009f0e2       ?reg@CRegCompilerBase@@QAEPADHPAH@Z 004a00e2 f   FilterText_StaticLib:Regexp.obj
 0001:0009f315       ?regbranch@CRegCompilerBase@@IAEPADPAH@Z 004a0315 f   FilterText_StaticLib:Regexp.obj
 0001:0009f3d8       ?regpiece@CRegCompilerBase@@IAEPADPAH@Z 004a03d8 f   FilterText_StaticLib:Regexp.obj
 0001:0009f6a1       ?regatom@CRegCompilerBase@@IAEPADPAH@Z 004a06a1 f   FilterText_StaticLib:Regexp.obj
 0001:0009fc06       ??0CRegExecutor@@QAE@PAVregexp@@PAD@Z 004a0c06 f   FilterText_StaticLib:Regexp.obj
 0001:0009fc48       ?regexec@regexp@@QAE_NPBD@Z 004a0c48 f   FilterText_StaticLib:Regexp.obj
 0001:0009fdfb       ?regtry@CRegExecutor@@IAE_NPAD@Z 004a0dfb f   FilterText_StaticLib:Regexp.obj
 0001:0009fea8       ?regmatch@CRegExecutor@@IAE_NPAD@Z 004a0ea8 f   FilterText_StaticLib:Regexp.obj
 0001:000a03b9       ?regrepeat@CRegExecutor@@IAEIPAD@Z 004a13b9 f   FilterText_StaticLib:Regexp.obj
 0001:000a04b5       ??0Regexp@@QAE@XZ          004a14b5 f   FilterText_StaticLib:Regexp.obj
 0001:000a04e8       ??0Regexp@@QAE@PBDH@Z      004a14e8 f   FilterText_StaticLib:Regexp.obj
 0001:000a0589       ??0Regexp@@QAE@ABV0@@Z     004a1589 f   FilterText_StaticLib:Regexp.obj
 0001:000a05e0       ??4Regexp@@QAEABV0@ABV0@@Z 004a15e0 f   FilterText_StaticLib:Regexp.obj
 0001:000a069b       ??1Regexp@@QAE@XZ          004a169b f   FilterText_StaticLib:Regexp.obj
 0001:000a0737       ?Match@Regexp@@QAE_NPBD@Z  004a1737 f   FilterText_StaticLib:Regexp.obj
 0001:000a0814       ?GetReplaceString@Regexp@@QBE?AV?$basic_string@DU?$char_traits@D@std@@V?$allocator@D@2@@std@@PBD@Z 004a1814 f   FilterText_StaticLib:Regexp.obj
 0001:000a0890       ?SubStrings@Regexp@@QBEHXZ 004a1890 f   FilterText_StaticLib:Regexp.obj
 0001:000a08dd       ?SubStart@Regexp@@QBEHI@Z  004a18dd f   FilterText_StaticLib:Regexp.obj
 0001:000a0940       ?SubLength@Regexp@@QBEHI@Z 004a1940 f   FilterText_StaticLib:Regexp.obj
 0001:000a09b1       ?CompiledOK@Regexp@@QBE_NXZ 004a19b1 f   FilterText_StaticLib:Regexp.obj
 0001:000a09de       ?safeIndex@Regexp@@ABEHI@Z 004a19de f   FilterText_StaticLib:Regexp.obj
 0001:000a0a05       ??ARegexp@@QBE?BV?$basic_string@DU?$char_traits@D@std@@V?$allocator@D@2@@std@@I@Z 004a1a05 f   FilterText_StaticLib:Regexp.obj
 0001:000a0ad7       ?ignoreCase@regexp@@QAEXPBDPAD@Z 004a1ad7 f   FilterText_StaticLib:Regexp.obj
 0001:000a0bbc       ?GetReplaceString@regexp@@QBE?AV?$basic_string@DU?$char_traits@D@std@@V?$allocator@D@2@@std@@PBD@Z 004a1bbc f   FilterText_StaticLib:Regexp.obj
 0001:000a0feb       ?GetErrorString@Regexp@@QBE?AV?$basic_string@DU?$char_traits@D@std@@V?$allocator@D@2@@std@@XZ 004a1feb f   FilterText_StaticLib:Regexp.obj
 0001:000a1042       ?ClearErrorString@Regexp@@ABEXXZ 004a2042 f   FilterText_StaticLib:Regexp.obj
 0001:000a1070       ?OP@CRegProgramAccessor@@SADPAD@Z 004a2070 f i FilterText_StaticLib:Regexp.obj
 0001:000a1080       ?regnext@CRegProgramAccessor@@SAPADPAD@Z 004a2080 f i FilterText_StaticLib:Regexp.obj
 0001:000a10e0       ?OPERAND@CRegProgramAccessor@@SAPADPAD@Z 004a20e0 f i FilterText_StaticLib:Regexp.obj
 0001:000a10f0       ??0CRegProgramAccessor@@QAE@XZ 004a20f0 f i FilterText_StaticLib:Regexp.obj
 0001:000a1110       ??0CRegErrorHandler@@QAE@XZ 004a2110 f i FilterText_StaticLib:Regexp.obj
 0001:000a1130       ?regnode@CRegValidator@@MAEPADH@Z 004a2130 f i FilterText_StaticLib:Regexp.obj
 0001:000a1160       ?regc@CRegValidator@@MAEXH@Z 004a2160 f i FilterText_StaticLib:Regexp.obj
 0001:000a1180       ?reginsert@CRegValidator@@MAEXDPAD@Z 004a2180 f i FilterText_StaticLib:Regexp.obj
 0001:000a11a0       ?regtail@CRegValidator@@MAEXPAD0@Z 004a21a0 f i FilterText_StaticLib:Regexp.obj
 0001:000a11b0       ?regoptail@CRegValidator@@MAEXPAD0@Z 004a21b0 f i FilterText_StaticLib:Regexp.obj
 0001:000a11c0       ??1CRegCompilerBase@@QAE@XZ 004a21c0 f i FilterText_StaticLib:Regexp.obj
 0001:000a11f0       ??1CRegProgramAccessor@@QAE@XZ 004a21f0 f i FilterText_StaticLib:Regexp.obj
 0001:000a1210       ??1CRegErrorHandler@@QAE@XZ 004a2210 f i FilterText_StaticLib:Regexp.obj
 0001:000a1230       ?regc@CRegCompiler@@MAEXH@Z 004a2230 f i FilterText_StaticLib:Regexp.obj
 0001:000a1260       ?Size@CRegValidator@@QBEJXZ 004a2260 f i FilterText_StaticLib:Regexp.obj
 0001:000a1280       ??1CRegValidator@@QAE@XZ   004a2280 f i FilterText_StaticLib:Regexp.obj
 0001:000a12a0       ??1CRegCompiler@@QAE@XZ    004a22a0 f i FilterText_StaticLib:Regexp.obj
 0001:000a12c0       ?ISREPN@CRegCompilerBase@@IAE_ND@Z 004a22c0 f i FilterText_StaticLib:Regexp.obj
 0001:000a1300       __tcschr                   004a2300 f i FilterText_StaticLib:Regexp.obj
 0001:000a1320       __tcsstr                   004a2320 f i FilterText_StaticLib:Regexp.obj
 0001:000a1340       ??1CRegExecutor@@QAE@XZ    004a2340 f i FilterText_StaticLib:Regexp.obj
 0001:000a1360       __tcsncmp                  004a2360 f i FilterText_StaticLib:Regexp.obj
 0001:000a1380       __tcscspn                  004a2380 f i FilterText_StaticLib:Regexp.obj
 0001:000a13a0       __tcsspn                   004a23a0 f i FilterText_StaticLib:Regexp.obj
 0001:000a13c0       ??_Gregexp@@QAEPAXI@Z      004a23c0 f i FilterText_StaticLib:Regexp.obj
 0001:000a13f0       ?Status@regexp@@QBE_NXZ    004a23f0 f i FilterText_StaticLib:Regexp.obj
 0001:000a1410       __tcsncpy                  004a2410 f i FilterText_StaticLib:Regexp.obj
 0001:000a142a       _inet_ntoa@4               004a242a f   ws2_32:WS2_32.dll
 0001:000a1430       _gethostbyname@4           004a2430 f   ws2_32:WS2_32.dll
 0001:000a1436       _gethostname@8             004a2436 f   ws2_32:WS2_32.dll
 0001:000a143c       _GetStartupInfoA@4         004a243c f   kernel32:KERNEL32.dll
 0001:000a1442       __itoa                     004a2442 f   MSVCRT:MSVCRT.dll
 0001:000a1448       __strcmpi                  004a2448 f   MSVCRT:MSVCRT.dll
 0001:000a144e       __strlwr                   004a244e f   MSVCRT:MSVCRT.dll
 0001:000a1454       __ismbcalpha               004a2454 f   MSVCRT:MSVCRT.dll
 0001:000a145a       __mbschr                   004a245a f   MSVCRT:MSVCRT.dll
 0001:000a1460       __mbsstr                   004a2460 f   MSVCRT:MSVCRT.dll
 0001:000a1466       _isalnum                   004a2466 f   MSVCRT:MSVCRT.dll
 0001:000a146c       __mbsnbcmp                 004a246c f   MSVCRT:MSVCRT.dll
 0001:000a1472       __mbscspn                  004a2472 f   MSVCRT:MSVCRT.dll
 0001:000a1478       __mbsspn                   004a2478 f   MSVCRT:MSVCRT.dll
 0001:000a147e       _tolower                   004a247e f   MSVCRT:MSVCRT.dll
 0001:000a1484       _toupper                   004a2484 f   MSVCRT:MSVCRT.dll
 0001:000a148a       _isalpha                   004a248a f   MSVCRT:MSVCRT.dll
 0001:000a1490       _isdigit                   004a2490 f   MSVCRT:MSVCRT.dll
 0001:000a1496       __mbsnbcpy                 004a2496 f   MSVCRT:MSVCRT.dll
 0001:000a149c       ?resize@?$basic_string@DU?$char_traits@D@std@@V?$allocator@D@2@@std@@QAEXI@Z 004a249c f   msvcprt:MSVCP60.dll
 0001:000a14a2       ?data@?$basic_string@DU?$char_traits@D@std@@V?$allocator@D@2@@std@@QBEPBDXZ 004a24a2 f   msvcprt:MSVCP60.dll
 0002:00000000       __imp__CoreGetShell        004ac000     CoreClient:CoreClient.dll
 0002:00000004       \177CoreClient_NULL_THUNK_DATA 004ac004     CoreClient:CoreClient.dll
 0002:00000008       __imp_?LoadBuffer@KLuaScript@@QAEHPAEK@Z 004ac008     engine:Engine.dll
 0002:0000000c       __imp_?ExecuteCode@KLuaScript@@QAEHXZ 004ac00c     engine:Engine.dll
 0002:00000010       __imp_?Load@KLuaScript@@UAEHPAD@Z 004ac010     engine:Engine.dll
 0002:00000014       __imp_?Init@KLuaScript@@UAEHXZ 004ac014     engine:Engine.dll
 0002:00000018       __imp_?RegisterFunctions@KLuaScript@@QAEHQAUTLua_Funcs@@H@Z 004ac018     engine:Engine.dll
 0002:0000001c       __imp_?g_GetRootPath@@YAXPAD@Z 004ac01c     engine:Engine.dll
 0002:00000020       __imp_??1KLuaScript@@UAE@XZ 004ac020     engine:Engine.dll
 0002:00000024       __imp_??0KLuaScript@@QAE@XZ 004ac024     engine:Engine.dll
 0002:00000028       __imp_?EraseSection@KIniFile@@QAEXPBD@Z 004ac028     engine:Engine.dll
 0002:0000002c       __imp_?Save@KIniFile@@QAEHPBD@Z 004ac02c     engine:Engine.dll
 0002:00000030       __imp__TGetEncodedTextOutputLenPos 004ac030     engine:Engine.dll
 0002:00000034       __imp__TSplitEncodedString 004ac034     engine:Engine.dll
 0002:00000038       __imp__TGetEncodedTextEffectCtrls 004ac038     engine:Engine.dll
 0002:0000003c       __imp_?TurnOn@KIme@@QAEXXZ 004ac03c     engine:Engine.dll
 0002:00000040       __imp_?Open@KFile@@QAEHPAD@Z 004ac040     engine:Engine.dll
 0002:00000044       __imp_?Read@KFile@@QAEKPAXK@Z 004ac044     engine:Engine.dll
 0002:00000048       __imp__TClearSpecialCtrlInEncodedText 004ac048     engine:Engine.dll
 0002:0000004c       __imp__TGetItemChatLineCount 004ac04c     engine:Engine.dll
 0002:00000050       __imp_?WriteStruct@KIniFile@@QAEXPBD0PAXK@Z 004ac050     engine:Engine.dll
 0002:00000054       __imp_?EraseKey@KIniFile@@QAEXPBD0@Z 004ac054     engine:Engine.dll
 0002:00000058       __imp_?GetStruct@KIniFile@@QAEXPBD0PAXK@Z 004ac058     engine:Engine.dll
 0002:0000005c       __imp_?IsSectionExist@KIniFile@@QAEHPBD@Z 004ac05c     engine:Engine.dll
 0002:00000060       __imp_?WriteString@KIniFile@@QAEXPBD00@Z 004ac060     engine:Engine.dll
 0002:00000064       __imp_?g_GetFullPath@@YAXPAD0@Z 004ac064     engine:Engine.dll
 0002:00000068       __imp_?WriteInteger@KIniFile@@QAEXPBD0H@Z 004ac068     engine:Engine.dll
 0002:0000006c       __imp_?KSG_StringToMD5String@@YAHQADQBD@Z 004ac06c     engine:Engine.dll
 0002:00000070       __imp_?g_GetMainHWnd@@YAPAUHWND__@@XZ 004ac070     engine:Engine.dll
 0002:00000074       __imp_?GetInteger2@KIniFile@@QAEXPBD0PAH1@Z 004ac074     engine:Engine.dll
 0002:00000078       __imp_?Clear@KIniFile@@QAEXXZ 004ac078     engine:Engine.dll
 0002:0000007c       __imp_?g_pIme@@3PAVKIme@@A 004ac07c     engine:Engine.dll
 0002:00000080       __imp__EDOneTimePad_Encipher 004ac080     engine:Engine.dll
 0002:00000084       __imp_?g_DebugLog@@YAXPADZZ 004ac084     engine:Engine.dll
 0002:00000088       __imp_?GetElapse@KTimer@@QAEKXZ 004ac088     engine:Engine.dll
 0002:0000008c       __imp_?Exit@KDirectSound@@QAEXXZ 004ac08c     engine:Engine.dll
 0002:00000090       __imp_?g_SetRootPath@@YAXPAD@Z 004ac090     engine:Engine.dll
 0002:00000094       __imp_?g_SetFilePath@@YAXPAD@Z 004ac094     engine:Engine.dll
 0002:00000098       __imp_?Open@KPakList@@QAE_NPBD@Z 004ac098     engine:Engine.dll
 0002:0000009c       __imp_?Init@KDirectSound@@QAEHXZ 004ac09c     engine:Engine.dll
 0002:000000a0       __imp_?Start@KTimer@@QAEXXZ 004ac0a0     engine:Engine.dll
 0002:000000a4       __imp_?SetMouseHoverTime@KWin32App@@QAEXI@Z 004ac0a4     engine:Engine.dll
 0002:000000a8       __imp_??0KWin32App@@QAE@XZ 004ac0a8     engine:Engine.dll
 0002:000000ac       __imp_??0KMp3Music@@QAE@XZ 004ac0ac     engine:Engine.dll
 0002:000000b0       __imp_??0KDirectSound@@QAE@XZ 004ac0b0     engine:Engine.dll
 0002:000000b4       __imp_??0KTimer@@QAE@XZ    004ac0b4     engine:Engine.dll
 0002:000000b8       __imp_?InitClass@KWin32App@@MAEHPAUHINSTANCE__@@@Z 004ac0b8     engine:Engine.dll
 0002:000000bc       __imp_?InitWindow@KWin32App@@MAEHPAUHINSTANCE__@@@Z 004ac0bc     engine:Engine.dll
 0002:000000c0       __imp_?ShowMouse@KWin32App@@UAEXH@Z 004ac0c0     engine:Engine.dll
 0002:000000c4       __imp_?SetMultiGame@KWin32App@@UAEXH@Z 004ac0c4     engine:Engine.dll
 0002:000000c8       __imp_?MsgProc@KWin32App@@UAEJPAUHWND__@@IIJ@Z 004ac0c8     engine:Engine.dll
 0002:000000cc       __imp_?Init@KWin32App@@UAEHPAUHINSTANCE__@@PAD@Z 004ac0cc     engine:Engine.dll
 0002:000000d0       __imp_?Run@KWin32App@@UAEXXZ 004ac0d0     engine:Engine.dll
 0002:000000d4       __imp_??1KPakList@@QAE@XZ  004ac0d4     engine:Engine.dll
 0002:000000d8       __imp_??0KPakList@@QAE@XZ  004ac0d8     engine:Engine.dll
 0002:000000dc       __imp_??1KDirectSound@@QAE@XZ 004ac0dc     engine:Engine.dll
 0002:000000e0       __imp_??1KMp3Music@@UAE@XZ 004ac0e0     engine:Engine.dll
 0002:000000e4       __imp__EDOneTimePad_Decipher 004ac0e4     engine:Engine.dll
 0002:000000e8       __imp__TEncodeText         004ac0e8     engine:Engine.dll
 0002:000000ec       __imp__TGetEncodedTextLineCount 004ac0ec     engine:Engine.dll
 0002:000000f0       __imp_??1KIniFile@@QAE@XZ  004ac0f0     engine:Engine.dll
 0002:000000f4       __imp_?GetString@KIniFile@@QAEHPBD00PADK@Z 004ac0f4     engine:Engine.dll
 0002:000000f8       __imp_?GetInteger@KIniFile@@QAEHPBD0HPAH@Z 004ac0f8     engine:Engine.dll
 0002:000000fc       __imp_?Load@KIniFile@@QAEHPBD@Z 004ac0fc     engine:Engine.dll
 0002:00000100       __imp_??0KIniFile@@QAE@XZ  004ac100     engine:Engine.dll
 0002:00000104       __imp__TFindSpecialCtrlInEncodedText 004ac104     engine:Engine.dll
 0002:00000108       __imp_?g_CreatePath@@YAXPAD@Z 004ac108     engine:Engine.dll
 0002:0000010c       __imp__AdviseEngine        004ac10c     engine:Engine.dll
 0002:00000110       __imp__UnAdviseEngine      004ac110     engine:Engine.dll
 0002:00000114       __imp_??1KPakFile@@QAE@XZ  004ac114     engine:Engine.dll
 0002:00000118       __imp_??1KFile@@QAE@XZ     004ac118     engine:Engine.dll
 0002:0000011c       __imp_?Close@KFile@@QAEXXZ 004ac11c     engine:Engine.dll
 0002:00000120       __imp_?Close@KPakFile@@QAEXXZ 004ac120     engine:Engine.dll
 0002:00000124       __imp_?Write@KFile@@QAEKPAXK@Z 004ac124     engine:Engine.dll
 0002:00000128       __imp_?Read@KPakFile@@QAEKPAXI@Z 004ac128     engine:Engine.dll
 0002:0000012c       __imp_?Size@KPakFile@@QAEKXZ 004ac12c     engine:Engine.dll
 0002:00000130       __imp_?Open@KPakFile@@QAEHPBD@Z 004ac130     engine:Engine.dll
 0002:00000134       __imp_?Create@KFile@@QAEHPAD@Z 004ac134     engine:Engine.dll
 0002:00000138       __imp_??0KFile@@QAE@XZ     004ac138     engine:Engine.dll
 0002:0000013c       __imp_??0KPakFile@@QAE@XZ  004ac13c     engine:Engine.dll
 0002:00000140       __imp_??0KIme@@QAE@XZ      004ac140     engine:Engine.dll
 0002:00000144       __imp_??1KIme@@QAE@XZ      004ac144     engine:Engine.dll
 0002:00000148       __imp_?CloseIME@KIme@@QAEXXZ 004ac148     engine:Engine.dll
 0002:0000014c       __imp_?DisableLanguageChange@KIme@@QAEXXZ 004ac14c     engine:Engine.dll
 0002:00000150       __imp_?IsIme@KIme@@QAEHXZ  004ac150     engine:Engine.dll
 0002:00000154       __imp_?SetCaretPos@KIme@@QAEXHH@Z 004ac154     engine:Engine.dll
 0002:00000158       __imp_?OpenIME@KIme@@QAEXXZ 004ac158     engine:Engine.dll
 0002:0000015c       __imp_?EnableLanguageChange@KIme@@QAEXXZ 004ac15c     engine:Engine.dll
 0002:00000160       __imp__TSplitString        004ac160     engine:Engine.dll
 0002:00000164       __imp__TGetLimitLenString  004ac164     engine:Engine.dll
 0002:00000168       __imp__TRemoveCtrlInEncodedText 004ac168     engine:Engine.dll
 0002:0000016c       __imp_?g_FileName2Id@@YAKPAD@Z 004ac16c     engine:Engine.dll
 0002:00000170       \177Engine_NULL_THUNK_DATA 004ac170     engine:Engine.dll
 0002:00000174       __imp__GetComputerNameA@8  004ac174     kernel32:KERNEL32.dll
 0002:00000178       __imp__CreateToolhelp32Snapshot@8 004ac178     kernel32:KERNEL32.dll
 0002:0000017c       __imp__Process32First@8    004ac17c     kernel32:KERNEL32.dll
 0002:00000180       __imp__OpenProcess@12      004ac180     kernel32:KERNEL32.dll
 0002:00000184       __imp__TerminateProcess@8  004ac184     kernel32:KERNEL32.dll
 0002:00000188       __imp__Process32Next@8     004ac188     kernel32:KERNEL32.dll
 0002:0000018c       __imp__AllocConsole@0      004ac18c     kernel32:KERNEL32.dll
 0002:00000190       __imp__GetModuleFileNameA@12 004ac190     kernel32:KERNEL32.dll
 0002:00000194       __imp__FreeConsole@0       004ac194     kernel32:KERNEL32.dll
 0002:00000198       __imp__GetModuleHandleA@4  004ac198     kernel32:KERNEL32.dll
 0002:0000019c       __imp__CloseHandle@4       004ac19c     kernel32:KERNEL32.dll
 0002:000001a0       __imp__GetVersionExA@4     004ac1a0     kernel32:KERNEL32.dll
 0002:000001a4       __imp__Sleep@4             004ac1a4     kernel32:KERNEL32.dll
 0002:000001a8       __imp__GetVersion@0        004ac1a8     kernel32:KERNEL32.dll
 0002:000001ac       __imp__FindFirstFileA@8    004ac1ac     kernel32:KERNEL32.dll
 0002:000001b0       __imp__SetFileAttributesA@8 004ac1b0     kernel32:KERNEL32.dll
 0002:000001b4       __imp__FindNextFileA@8     004ac1b4     kernel32:KERNEL32.dll
 0002:000001b8       __imp__FindClose@4         004ac1b8     kernel32:KERNEL32.dll
 0002:000001bc       __imp__RemoveDirectoryA@4  004ac1bc     kernel32:KERNEL32.dll
 0002:000001c0       __imp__SystemTimeToTzSpecificLocalTime@12 004ac1c0     kernel32:KERNEL32.dll
 0002:000001c4       __imp__LoadLibraryA@4      004ac1c4     kernel32:KERNEL32.dll
 0002:000001c8       __imp__GetProcAddress@8    004ac1c8     kernel32:KERNEL32.dll
 0002:000001cc       __imp__FreeLibrary@4       004ac1cc     kernel32:KERNEL32.dll
 0002:000001d0       __imp__MulDiv@12           004ac1d0     kernel32:KERNEL32.dll
 0002:000001d4       __imp__GetTickCount@0      004ac1d4     kernel32:KERNEL32.dll
 0002:000001d8       __imp__GetTempPathA@8      004ac1d8     kernel32:KERNEL32.dll
 0002:000001dc       __imp__GetTempFileNameA@16 004ac1dc     kernel32:KERNEL32.dll
 0002:000001e0       __imp__DeleteFileA@4       004ac1e0     kernel32:KERNEL32.dll
 0002:000001e4       __imp__GetStartupInfoA@4   004ac1e4     kernel32:KERNEL32.dll
 0002:000001e8       \177KERNEL32_NULL_THUNK_DATA 004ac1e8     kernel32:KERNEL32.dll
 0002:000001ec       __imp__lua_pushstring      004ac1ec     lualibdll:LuaLibDll.dll
 0002:000001f0       __imp__lua_pushnumber      004ac1f0     lualibdll:LuaLibDll.dll
 0002:000001f4       __imp__lua_type            004ac1f4     lualibdll:LuaLibDll.dll
 0002:000001f8       __imp__lua_tonumber        004ac1f8     lualibdll:LuaLibDll.dll
 0002:000001fc       __imp__lua_gettop          004ac1fc     lualibdll:LuaLibDll.dll
 0002:00000200       __imp__lua_tostring        004ac200     lualibdll:LuaLibDll.dll
 0002:00000204       \177LuaLibDll_NULL_THUNK_DATA 004ac204     lualibdll:LuaLibDll.dll
 0002:00000208       __imp_?resize@?$basic_string@DU?$char_traits@D@std@@V?$allocator@D@2@@std@@QAEXI@Z 004ac208     msvcprt:MSVCP60.dll
 0002:0000020c       __imp_??0?$basic_string@DU?$char_traits@D@std@@V?$allocator@D@2@@std@@QAE@PBDIABV?$allocator@D@1@@Z 004ac20c     msvcprt:MSVCP60.dll
 0002:00000210       __imp_??Mstd@@YA_NABV?$basic_string@DU?$char_traits@D@std@@V?$allocator@D@2@@0@0@Z 004ac210     msvcprt:MSVCP60.dll
 0002:00000214       __imp_??4?$basic_string@DU?$char_traits@D@std@@V?$allocator@D@2@@std@@QAEAAV01@D@Z 004ac214     msvcprt:MSVCP60.dll
 0002:00000218       __imp_??8std@@YA_NABV?$basic_string@DU?$char_traits@D@std@@V?$allocator@D@2@@0@PBD@Z 004ac218     msvcprt:MSVCP60.dll
 0002:0000021c       __imp_??8std@@YA_NABV?$basic_string@DU?$char_traits@D@std@@V?$allocator@D@2@@0@0@Z 004ac21c     msvcprt:MSVCP60.dll
 0002:00000220       __imp_??4?$basic_string@DU?$char_traits@D@std@@V?$allocator@D@2@@std@@QAEAAV01@ABV01@@Z 004ac220     msvcprt:MSVCP60.dll
 0002:00000224       __imp_?empty@?$basic_string@DU?$char_traits@D@std@@V?$allocator@D@2@@std@@QBE_NXZ 004ac224     msvcprt:MSVCP60.dll
 0002:00000228       __imp_??0?$basic_string@DU?$char_traits@D@std@@V?$allocator@D@2@@std@@QAE@ABV?$allocator@D@1@@Z 004ac228     msvcprt:MSVCP60.dll
 0002:0000022c       __imp_??4?$basic_string@DU?$char_traits@D@std@@V?$allocator@D@2@@std@@QAEAAV01@PBD@Z 004ac22c     msvcprt:MSVCP60.dll
 0002:00000230       __imp_??Y?$basic_string@DU?$char_traits@D@std@@V?$allocator@D@2@@std@@QAEAAV01@PBD@Z 004ac230     msvcprt:MSVCP60.dll
 0002:00000234       __imp_??Y?$basic_string@DU?$char_traits@D@std@@V?$allocator@D@2@@std@@QAEAAV01@ABV01@@Z 004ac234     msvcprt:MSVCP60.dll
 0002:00000238       __imp_??0?$basic_string@DU?$char_traits@D@std@@V?$allocator@D@2@@std@@QAE@ABV01@@Z 004ac238     msvcprt:MSVCP60.dll
 0002:0000023c       __imp_??0_Lockit@std@@QAE@XZ 004ac23c     msvcprt:MSVCP60.dll
 0002:00000240       __imp_??1_Lockit@std@@QAE@XZ 004ac240     msvcprt:MSVCP60.dll
 0002:00000244       __imp_?size@?$basic_string@DU?$char_traits@D@std@@V?$allocator@D@2@@std@@QBEIXZ 004ac244     msvcprt:MSVCP60.dll
 0002:00000248       __imp_?c_str@?$basic_string@DU?$char_traits@D@std@@V?$allocator@D@2@@std@@QBEPBDXZ 004ac248     msvcprt:MSVCP60.dll
 0002:0000024c       __imp_??0?$basic_string@DU?$char_traits@D@std@@V?$allocator@D@2@@std@@QAE@PBDABV?$allocator@D@1@@Z 004ac24c     msvcprt:MSVCP60.dll
 0002:00000250       __imp_??1?$basic_string@DU?$char_traits@D@std@@V?$allocator@D@2@@std@@QAE@XZ 004ac250     msvcprt:MSVCP60.dll
 0002:00000254       __imp_?data@?$basic_string@DU?$char_traits@D@std@@V?$allocator@D@2@@std@@QBEPBDXZ 004ac254     msvcprt:MSVCP60.dll
 0002:00000258       \177MSVCP60_NULL_THUNK_DATA 004ac258     msvcprt:MSVCP60.dll
 0002:0000025c       __imp____p__commode        004ac25c     MSVCRT:MSVCRT.dll
 0002:00000260       __imp__strcmp              004ac260     MSVCRT:MSVCRT.dll
 0002:00000264       __imp__strlen              004ac264     MSVCRT:MSVCRT.dll
 0002:00000268       __imp__memset              004ac268     MSVCRT:MSVCRT.dll
 0002:0000026c       __imp__memcpy              004ac26c     MSVCRT:MSVCRT.dll
 0002:00000270       __imp__sprintf             004ac270     MSVCRT:MSVCRT.dll
 0002:00000274       __imp____CxxFrameHandler   004ac274     MSVCRT:MSVCRT.dll
 0002:00000278       __imp__strcpy              004ac278     MSVCRT:MSVCRT.dll
 0002:0000027c       __imp__free                004ac27c     MSVCRT:MSVCRT.dll
 0002:00000280       __imp__strcat              004ac280     MSVCRT:MSVCRT.dll
 0002:00000284       __imp__strftime            004ac284     MSVCRT:MSVCRT.dll
 0002:00000288       __imp__localtime           004ac288     MSVCRT:MSVCRT.dll
 0002:0000028c       __imp__time                004ac28c     MSVCRT:MSVCRT.dll
 0002:00000290       __imp___purecall           004ac290     MSVCRT:MSVCRT.dll
 0002:00000294       __imp__strncpy             004ac294     MSVCRT:MSVCRT.dll
 0002:00000298       __imp_??3@YAXPAX@Z         004ac298     MSVCRT:MSVCRT.dll
 0002:0000029c       __imp_??2@YAPAXI@Z         004ac29c     MSVCRT:MSVCRT.dll
 0002:000002a0       __imp__memmove             004ac2a0     MSVCRT:MSVCRT.dll
 0002:000002a4       __imp__atoi                004ac2a4     MSVCRT:MSVCRT.dll
 0002:000002a8       __imp__malloc              004ac2a8     MSVCRT:MSVCRT.dll
 0002:000002ac       __imp__realloc             004ac2ac     MSVCRT:MSVCRT.dll
 0002:000002b0       __imp__memcmp              004ac2b0     MSVCRT:MSVCRT.dll
 0002:000002b4       __imp__rand                004ac2b4     MSVCRT:MSVCRT.dll
 0002:000002b8       __imp__strstr              004ac2b8     MSVCRT:MSVCRT.dll
 0002:000002bc       __imp___mbsicmp            004ac2bc     MSVCRT:MSVCRT.dll
 0002:000002c0       __imp__srand               004ac2c0     MSVCRT:MSVCRT.dll
 0002:000002c4       __imp__mktime              004ac2c4     MSVCRT:MSVCRT.dll
 0002:000002c8       __imp__fclose              004ac2c8     MSVCRT:MSVCRT.dll
 0002:000002cc       __imp__fopen               004ac2cc     MSVCRT:MSVCRT.dll
 0002:000002d0       __imp__remove              004ac2d0     MSVCRT:MSVCRT.dll
 0002:000002d4       __imp___ftol               004ac2d4     MSVCRT:MSVCRT.dll
 0002:000002d8       __imp__isgraph             004ac2d8     MSVCRT:MSVCRT.dll
 0002:000002dc       __imp___mbsnbcpy           004ac2dc     MSVCRT:MSVCRT.dll
 0002:000002e0       __imp___except_handler3    004ac2e0     MSVCRT:MSVCRT.dll
 0002:000002e4       __imp__sscanf              004ac2e4     MSVCRT:MSVCRT.dll
 0002:000002e8       __imp____dllonexit         004ac2e8     MSVCRT:MSVCRT.dll
 0002:000002ec       __imp___onexit             004ac2ec     MSVCRT:MSVCRT.dll
 0002:000002f0       __imp_?terminate@@YAXXZ    004ac2f0     MSVCRT:MSVCRT.dll
 0002:000002f4       __imp___exit               004ac2f4     MSVCRT:MSVCRT.dll
 0002:000002f8       __imp___XcptFilter         004ac2f8     MSVCRT:MSVCRT.dll
 0002:000002fc       __imp__exit                004ac2fc     MSVCRT:MSVCRT.dll
 0002:00000300       __imp___acmdln             004ac300     MSVCRT:MSVCRT.dll
 0002:00000304       __imp____getmainargs       004ac304     MSVCRT:MSVCRT.dll
 0002:00000308       __imp___initterm           004ac308     MSVCRT:MSVCRT.dll
 0002:0000030c       __imp____setusermatherr    004ac30c     MSVCRT:MSVCRT.dll
 0002:00000310       __imp___adjust_fdiv        004ac310     MSVCRT:MSVCRT.dll
 0002:00000314       __imp__strchr              004ac314     MSVCRT:MSVCRT.dll
 0002:00000318       __imp____p__fmode          004ac318     MSVCRT:MSVCRT.dll
 0002:0000031c       __imp____set_app_type      004ac31c     MSVCRT:MSVCRT.dll
 0002:00000320       __imp___controlfp          004ac320     MSVCRT:MSVCRT.dll
 0002:00000324       __imp__isdigit             004ac324     MSVCRT:MSVCRT.dll
 0002:00000328       __imp__isalpha             004ac328     MSVCRT:MSVCRT.dll
 0002:0000032c       __imp__toupper             004ac32c     MSVCRT:MSVCRT.dll
 0002:00000330       __imp__tolower             004ac330     MSVCRT:MSVCRT.dll
 0002:00000334       __imp___mbsspn             004ac334     MSVCRT:MSVCRT.dll
 0002:00000338       __imp___mbscspn            004ac338     MSVCRT:MSVCRT.dll
 0002:0000033c       __imp___mbsnbcmp           004ac33c     MSVCRT:MSVCRT.dll
 0002:00000340       __imp__isalnum             004ac340     MSVCRT:MSVCRT.dll
 0002:00000344       __imp___mbsstr             004ac344     MSVCRT:MSVCRT.dll
 0002:00000348       __imp___mbschr             004ac348     MSVCRT:MSVCRT.dll
 0002:0000034c       __imp___ismbcalpha         004ac34c     MSVCRT:MSVCRT.dll
 0002:00000350       __imp___strlwr             004ac350     MSVCRT:MSVCRT.dll
 0002:00000350       __imp__strlwr              004ac350     MSVCRT:MSVCRT.dll
 0002:00000354       __imp___strcmpi            004ac354     MSVCRT:MSVCRT.dll
 0002:00000354       __imp__strcmpi             004ac354     MSVCRT:MSVCRT.dll
 0002:00000358       __imp__itoa                004ac358     MSVCRT:MSVCRT.dll
 0002:00000358       __imp___itoa               004ac358     MSVCRT:MSVCRT.dll
 0002:0000035c       \177MSVCRT_NULL_THUNK_DATA 004ac35c     MSVCRT:MSVCRT.dll
 0002:00000360       __imp__SHGetSpecialFolderPathA@16 004ac360     shell32:SHELL32.dll
 0002:00000364       __imp__StrStrIA@8          004ac364     shell32:SHELL32.dll
 0002:00000368       \177SHELL32_NULL_THUNK_DATA 004ac368     shell32:SHELL32.dll
 0002:0000036c       __imp__LoadCursorFromFileA@4 004ac36c     user32:USER32.dll
 0002:00000370       __imp__ShowCursor@4        004ac370     user32:USER32.dll
 0002:00000374       __imp__SetCaretPos@8       004ac374     user32:USER32.dll
 0002:00000378       __imp__CloseClipboard@0    004ac378     user32:USER32.dll
 0002:0000037c       __imp__EmptyClipboard@0    004ac37c     user32:USER32.dll
 0002:00000380       __imp__SetCursor@4         004ac380     user32:USER32.dll
 0002:00000384       __imp__MessageBoxA@16      004ac384     user32:USER32.dll
 0002:00000388       __imp__SetWindowTextA@8    004ac388     user32:USER32.dll
 0002:0000038c       __imp__EnumDisplaySettingsA@12 004ac38c     user32:USER32.dll
 0002:00000390       __imp__ChangeDisplaySettingsA@8 004ac390     user32:USER32.dll
 0002:00000394       __imp__SendMessageA@16     004ac394     user32:USER32.dll
 0002:00000398       __imp__ClientToScreen@8    004ac398     user32:USER32.dll
 0002:0000039c       __imp__SetCursorPos@8      004ac39c     user32:USER32.dll
 0002:000003a0       __imp__GetKeyState@4       004ac3a0     user32:USER32.dll
 0002:000003a4       __imp__OpenClipboard@4     004ac3a4     user32:USER32.dll
 0002:000003a8       __imp__GetClipboardData@4  004ac3a8     user32:USER32.dll
 0002:000003ac       __imp__LoadCursorA@8       004ac3ac     user32:USER32.dll
 0002:000003b0       \177USER32_NULL_THUNK_DATA 004ac3b0     user32:USER32.dll
 0002:000003b4       __imp__timeGetTime@0       004ac3b4     Winmm:WINMM.dll
 0002:000003b8       \177WINMM_NULL_THUNK_DATA  004ac3b8     Winmm:WINMM.dll
 0002:000003bc       __imp__inet_ntoa@4         004ac3bc     ws2_32:WS2_32.dll
 0002:000003c0       __imp__gethostbyname@4     004ac3c0     ws2_32:WS2_32.dll
 0002:000003c4       __imp__gethostname@8       004ac3c4     ws2_32:WS2_32.dll
 0002:000003c8       \177WS2_32_NULL_THUNK_DATA 004ac3c8     ws2_32:WS2_32.dll
 0002:000003ec       ??_7KInlinePicSink@@6B@    004ac3ec     TextPic.obj
 0002:000003fc       ??_7IInlinePicEngineSink@@6B@ 004ac3fc     TextPic.obj
 0002:0000040c       ??_7KWndButton@@6B@        004ac40c     WndButton.obj
 0002:0000044c       ??_7KWndImageTextButton@@6B@ 004ac44c     WndButton.obj
 0002:0000048c       ??_7KWndChessPanel@@6B@    004ac48c     WndChessPanel.obj
 0002:000004c0       ??_7KWndEdit@@6B@          004ac4c0     WndEdit.obj
 0002:000004f4       ??_7KWndEdit32@@6B@        004ac4f4     WndEdit.obj
 0002:00000528       ??_7KWndEdit512@@6B@       004ac528     WndEdit.obj
 0002:0000055c       ??_7KWndImage@@6B@         004ac55c     WndImage.obj
 0002:00000590       ??_7KWndImagePart@@6B@     004ac590     WndImagePart.obj
 0002:000005c4       ??_7KWndLabeledButton@@6B@ 004ac5c4     WndLabeledButton.obj
 0002:00000604       ??_7KWndList@@6B@          004ac604     WndList.obj
 0002:00000638       ??_7KWndList2@@6B@         004ac638     WndList2.obj
 0002:0000066c       ??_7KWndMessageListBox@@6B@ 004ac66c     WndMessageListBox.obj
 0002:000006a0       ??_7KScrollMessageListBox@@6B@ 004ac6a0     WndMessageListBox.obj
 0002:000006d4       ??_7KWndMovingImage@@6B@   004ac6d4     WndMovingImage.obj
 0002:00000708       ??_7KWndObjectBox@@6B@     004ac708     WndObjContainer.obj
 0002:0000073c       ??_7KWndObjectMatrix@@6B@  004ac73c     WndObjContainer.obj
 0002:00000770       ??_7KWndPageSet@@6B@       004ac770     WndPage.obj
 0002:000007a8       ??_7KWndPureTextBtn@@6B@   004ac7a8     WndPureTextBtn.obj
 0002:000007dc       ??_7KWndScrollBar@@6B@     004ac7dc     WndScrollBar.obj
 0002:00000810       ??_7KWndShowAnimate@@6B@   004ac810     WndShowAnimate.obj
 0002:00000848       ??_7KWndText@@6B@          004ac848     WndText.obj
 0002:0000087c       ??_7KWndText32@@6B@        004ac87c     WndText.obj
 0002:000008b0       ??_7KWndText80@@6B@        004ac8b0     WndText.obj
 0002:000008e4       ??_7KWndText256@@6B@       004ac8e4     WndText.obj
 0002:00000918       ??_7KWndText512@@6B@       004ac918     WndText.obj
 0002:0000094c       ??_7KWndToolBar@@6B@       004ac94c     WndToolBar.obj
 0002:00000980       ??_7KWndValueImage@@6B@    004ac980     WndValueImage.obj
 0002:000009b4       ??_7KWndWindow@@6B@        004ac9b4     WndWindow.obj
 0002:000009e8       ??_7KUiConnectInfo@@6B@    004ac9e8     UiConnectInfo.obj
 0002:00000a1c       ??_7KUiLogin@@6B@          004aca1c     UiLogin.obj
 0002:00000a54       ??_7KUiLoginBackGround@@6B@ 004aca54     UiLoginBg.obj
 0002:00000a88       ??_7KUiSelServer@@6B@      004aca88     UiSelServer.obj
 0002:00000ac0       ??_7KUiChatItem@@6B@       004acac0     UiChatItem.obj
 0002:00000af4       ??_7KUiChooseFace@@6B@     004acaf4     UiChooseFace.obj
 0002:00000b2c       ??_7KUiContainer@@6B@      004acb2c     UiContainer.obj
 0002:00000b30       ??_7KUiFaceSelector@@6B@   004acb30     UiFaceSelector.obj
 0002:00000b64       ??_7GameWorld_DateTime@@6B@ 004acb64     UiPlayerBar.obj
 0002:00000ba4       ??_7KUiPlayerBar@@6B@      004acba4     UiPlayerBar.obj
 0002:00000bd8       ??_7KImmediaItem@@6B@      004acbd8     UiPlayerBar.obj
 0002:00000c0c       ??_7KUiPlayerControlBar@@6B@ 004acc0c     UiPlayerControlBar.obj
 0002:00000c40       ??_7KUiStatus@@6B@         004acc40     UiStatus.obj
 0002:00000c78       ??_7KUiOptions@@6B@        004acc78     UiOptions.obj
 0002:00000cac       ??_7KUiInit@@6B@           004accac     UiInit.obj
 0002:00000ce4       ??_7KBuySelectItemShop@@6B@ 004acce4     BuySlectItemShop.obj
 0002:00000d18       ??_7KUiKtc@@6B@            004acd18     KUiKtc.obj
 0002:00000d4c       ??_7KUiAuto@@6B@           004acd4c     UiAuto.obj
 0002:00000d84       ??_7KUiOther@@6B@          004acd84     UiAuto.obj
 0002:00000db8       ??_7KUiPick@@6B@           004acdb8     UiAuto.obj
 0002:00000dec       ??_7KWndShadow@@6B@        004acdec     UiAuto.obj
 0002:00000e20       ??_7KUiFight@@6B@          004ace20     UiAuto.obj
 0002:00000e54       ??_7KUiRecover@@6B@        004ace54     UiAuto.obj
 0002:00000e88       ??_7KWndPage@@6B@          004ace88     UiAuto.obj
 0002:00000ebc       ??_7KUiBuyShop@@6B@        004acebc     UiBuyShop.obj
 0002:00000ef4       ??_7KUiCheckItemBox@@6B@   004acef4     UiCheckItemBox.obj
 0002:00000f2c       ??_7KUiGetMoney@@6B@       004acf2c     UiGetMoney.obj
 0002:00000f60       ??_7KUiItem@@6B@           004acf60     UiItem.obj
 0002:00000f98       ??_7KUiLoginPWStoreBox@@6B@ 004acf98     UiLoginPWStoreBox.obj
 0002:00000fcc       ??_7KUiNewPWStoreBox@@6B@  004acfcc     UiNewPWStoreBox.obj
 0002:00001000       ??_7KUiPGBoxItem@@6B@      004ad000     UiPGBoxItem.obj
 0002:00001038       ??_7KUiPGBoxItemPage1@@6B@ 004ad038     UiPGBoxItem.obj
 0002:0000106c       ??_7KUiPGBoxItemPage2@@6B@ 004ad06c     UiPGBoxItem.obj
 0002:000010a0       ??_7KUiPGBoxItemPage3@@6B@ 004ad0a0     UiPGBoxItem.obj
 0002:000010d4       ??_7KUiPGBoxItemPage4@@6B@ 004ad0d4     UiPGBoxItem.obj
 0002:00001108       ??_7KUiPGBoxItemPage5@@6B@ 004ad108     UiPGBoxItem.obj
 0002:0000113c       ??_7KUiPWStoreBox@@6B@     004ad13c     UiPWStoreBox.obj
 0002:00001170       ??_7KUiRPNewBox@@6B@       004ad170     UiRPNewBox.obj
 0002:000011a8       ??_7KUiShopName@@6B@       004ad1a8     UiShopName.obj
 0002:000011dc       ??_7KUiShopPrice@@6B@      004ad1dc     UiShopPrice.obj
 0002:00001210       ??_7KUiFightSkillSubPage@@6B@ 004ad210     UiSkills.obj
 0002:00001244       ??_7KUiLiveSkill@@6B@      004ad244     UiSkills.obj
 0002:00001278       ??_7KUiSkills@@6B@         004ad278     UiSkills.obj
 0002:000012b0       ??_7KUiFightSkill@@6B@     004ad2b0     UiSkills.obj
 0002:000012e4       ??_7KUiFightSkillSub@@6B@  004ad2e4     UiSkills.obj
 0002:0000131c       ??_7KUiSkillTree@@6B@      004ad31c     UiSkillTree.obj
 0002:00001350       ??_7KUiSlectBoxCheck@@6B@  004ad350     UiSlectBoxCheck.obj
 0002:00001388       ??_7KUiStaskItem@@6B@      004ad388     UiStaskItem.obj
 0002:000013bc       ??_7KUiStoreBox@@6B@       004ad3bc     UiStoreBox.obj
 0002:000013f4       ??_7KUiStringBox@@6B@      004ad3f4     UiStringBox.obj
 0002:00001428       ??_7KUiTopTKNew@@6B@       004ad428     UiTopTKNew.obj
 0002:0000145c       ??_7KUiESCDlg@@6B@         004ad45c     UiESCDlg.obj
 0002:00001494       ??_7KUiGetString@@6B@      004ad494     UiGetString.obj
 0002:000014c8       ??_7KUiGetString3@@6B@     004ad4c8     UiGetString3.obj
 0002:000014fc       ??_7KUiMsgSel@@6B@         004ad4fc     UiMsgSel.obj
 0002:00001534       ??_7KUiParadeItem@@6B@     004ad534     UiParadeItem.obj
 0002:0000156c       ??_7KUiSelPlayerNearby@@6B@ 004ad56c     UiSelPlayerNearby.obj
 0002:000015a4       ??_7KUiNewPlayer@@6B@      004ad5a4     UiNewPlayer.obj
 0002:000015dc       ??_7KUiSelNativePlace@@6B@ 004ad5dc     UiSelNativePlace.obj
 0002:00001614       ??_7KUiSelPlayer@@6B@      004ad614     UiSelPlayer.obj
 0002:00001650       ??_7ServerNotify@@6B@      004ad650     UiChatCentre.obj
 0002:00001678       ??_7AddinNotify@@6B@       004ad678     UiChatCentre.obj
 0002:000016a0       ??_7FriendNotify@@6B@      004ad6a0     UiChatCentre.obj
 0002:000016c8       ??_7KUiChatCentre@@6B@     004ad6c8     UiChatCentre.obj
 0002:00001700       ??_7KUiChatStatus@@6B@     004ad700     UiChatStatus.obj
 0002:00001734       ??_7KUiInformation@@6B@    004ad734     UiInformation.obj
 0002:0000176c       ??_7KUiInformation2@@6B@   004ad76c     UiInformation2.obj
 0002:000017a4       ??_7KUiTeamManage@@6B@     004ad7a4     UiTeamManage.obj
 0002:000017dc       ??_7KUiHeaderControlBar@@6B@ 004ad7dc     UiHeaderControlBar.obj
 0002:00001810       ??_7KUiMsgCentrePad@@6B@   004ad810     UiMsgCentrePad.obj
 0002:00001844       ??_7KSysMsgCentrePad@@6B@  004ad844     UiMsgCentrePad.obj
 0002:00001878       ??_7KUiToolsControlBar@@6B@ 004ad878     UiToolsControlBar.obj
 0002:000018ac       ??_7KUiShop@@6B@           004ad8ac     UiShop.obj
 0002:000018e4       ??_7KUiShopGold@@6B@       004ad8e4     UiShopGold.obj
 0002:0000191c       ??_7KUiTrade@@6B@          004ad91c     UiTrade.obj
 0002:00001954       ??_7KUiTradeConfirm@@6B@   004ad954     UiTradeConfirmWnd.obj
 0002:00001988       ??_7KUiGameSpace@@6B@      004ad988     UiGame.obj
 0002:000019bc       ??_7KUiSysMsgCentre@@6B@   004ad9bc     UiSysMsgCentre.obj
 0002:000019f0       ??_7KUiFindPos@@6B@        004ad9f0     UiFindPos.obj
 0002:00001a28       ??_7KUiMapCave@@6B@        004ada28     UiMapCave.obj
 0002:00001a5c       ??_7KUiMarket@@6B@         004ada5c     UiMarket.obj
 0002:00001a94       ??_7KUiMiniMap@@6B@        004ada94     UiMiniMap.obj
 0002:00001ac8       ??_7KUiNewPlayerStartMsg@@6B@ 004adac8     UiNewPlayerStartMsg.obj
 0002:00001b00       ??_7KUiPlayVideo@@6B@      004adb00     UiPlayVideo.obj
 0002:00001b34       ??_7KUiHelper@@6B@         004adb34     UiHelper.obj
 0002:00001b68       ??_7KUiHelper2@@6B@        004adb68     UiHelper2.obj
 0002:00001ba0       ??_7KReconnectWnd@@6B@     004adba0     UiReconnect.obj
 0002:00001bd4       ??_7KTaskEdit@@6B@         004adbd4     UiTaskNote.obj
 0002:00001c08       ??_7KUiTaskNote@@6B@       004adc08     UiTaskNote.obj
 0002:00001c40       ??_7KUiTaskNote_System@@6B@ 004adc40     UiTaskNote.obj
 0002:00001c74       ??_7KUiTaskNote_Personal@@6B@ 004adc74     UiTaskNote.obj
 0002:00001ca8       ??_7KUiTaskNote_Event@@6B@ 004adca8     UiTaskNote.obj
 0002:00001cdc       ??_7KUiTaskNote_Bind@@6B@  004adcdc     UiTaskNote.obj
 0002:00001d10       ??_7KUiWorldmap@@6B@       004add10     UiWorldMap.obj
 0002:00001d44       ??_7KUiNewsMessage@@6B@    004add44     UiNewsMessage.obj
 0002:00001d78       ??_7KUiNewsMessage1@@6B@   004add78     UiNewsMessage1.obj
 0002:00001dac       ??_7KUiStrengthRank@@6B@   004addac     UiStrengthRank.obj
 0002:00001de4       ??_7?$KLinkStruct@UKRankIndexNode@@@@6B@ 004adde4     UiStrengthRank.obj
 0002:00001de8       ??_7?$KLinkStruct@UKRankNode@@@@6B@ 004adde8     UiStrengthRank.obj
 0002:00001dec       ??_7KUiPopupPasswordQuery@@6B@ 004addec     UiPopupPasswordQuery.obj
 0002:00001e20       ??_7KUiTongAssignBox@@6B@  004ade20     UiTongAssignBox.obj
 0002:00001e54       ??_7KUiTongChangeCamp@@6B@ 004ade54     UiTongChangeCamp.obj
 0002:00001e88       ??_7KUiTongCreateSheet@@6B@ 004ade88     UiTongCreateSheet.obj
 0002:00001ebc       ??_7KUiTongGetString@@6B@  004adebc     UiTongGetString.obj
 0002:00001ef0       ??_7KUiTongManager@@6B@    004adef0     UiTongManager.obj
 0002:00001f24       ??_7?$KLinkStruct@UKPilgarlicItem@@@@6B@ 004adf24     UiTongManager.obj
 0002:00001f28       ??_7KUiTimeBox@@6B@        004adf28     UiTimeBox.obj
 0002:00001f5c       ??_7KUiMsgSel2@@6B@        004adf5c     UiMsgSel2.obj
 0002:00001f94       ??_7KUiMsgSel3@@6B@        004adf94     UiMsgSel3.obj
 0002:00001fcc       ??_7KUiTongStringName@@6B@ 004adfcc     UiTongStringName.obj
 0002:00002000       ??_7KUiTrembleItem@@6B@    004ae000     UiTrembleItem.obj
 0002:00002034       ??_7KCanGetNumImage@@6B@   004ae034     UiTrembleItem.obj
 0002:00002068       ??_7BlacklistNotify@@6B@   004ae068     GameSpaceChangedNotify.obj
 0002:000020c8       ??_7Player_Life@@6B@       004ae0c8     UiShell.obj
 0002:00002108       ??_7Player_Mana@@6B@       004ae108     UiShell.obj
 0002:00002148       ??_7Player_Stamina@@6B@    004ae148     UiShell.obj
 0002:00002188       ??_7Player_Exp@@6B@        004ae188     UiShell.obj
 0002:000021c8       ??_7Player_Level@@6B@      004ae1c8     UiShell.obj
 0002:00002208       ??_7Player_WorldSort@@6B@  004ae208     UiShell.obj
 0002:00002248       ??_7Player_Status@@6B@     004ae248     UiShell.obj
 0002:00002288       ??_7Player_Items@@6B@      004ae288     UiShell.obj
 0002:000022c8       ??_7Player_Skills@@6B@     004ae2c8     UiShell.obj
 0002:00002308       ??_7Player_Team@@6B@       004ae308     UiShell.obj
 0002:00002348       ??_7Player_Faction@@6B@    004ae348     UiShell.obj
 0002:00002388       ??_7Player_Sit@@6B@        004ae388     UiShell.obj
 0002:000023c8       ??_7Player_Run@@6B@        004ae3c8     UiShell.obj
 0002:00002408       ??_7Player_Horse@@6B@      004ae408     UiShell.obj
 0002:00002448       ??_7Player_Exchange@@6B@   004ae448     UiShell.obj
 0002:00002488       ??_7Player_PK@@6B@         004ae488     UiShell.obj
 0002:000024c8       ??_7Player_AT@@6B@         004ae4c8     UiShell.obj
 0002:00002508       ??_7Player_KTC@@6B@        004ae508     UiShell.obj
 0002:00002548       ??_7Player_Auto@@6B@       004ae548     UiShell.obj
 0002:00002588       __real@4@4005c800000000000000 004ae588     UiShell.obj
 0002:0000258c       __real@4@c005c800000000000000 004ae58c     UiShell.obj
 0002:00002590       __real@8@4005c800000000000000 004ae590     UiShell.obj
 0002:000025b0       ??_7CChatFilter@@6B@       004ae5b0     ChatFilter.obj
 0002:000025b4       ??_7CFilterTextLib@@6B@    004ae5b4     FilterTextLib.obj
 0002:000025b8       ??_7KClientCallback@@6B@   004ae5b8     S3Client.obj
 0002:000025dc       ??_7IClientCallback@@6B@   004ae5dc     S3Client.obj
 0002:0000261c       ??_7KMyApp@@6B@            004ae61c     S3Client.obj
 0002:00002648       _IID_IESClient             004ae648     NetConnectAgent.obj
 0002:00002658       _IID_IClientFactory        004ae658     NetConnectAgent.obj
 0002:00002668       ??_7KLogin@@6B@            004ae668     Login.obj
 0002:0000266c       ??_7iKNetMsgTargetObject@@6B@ 004ae66c     Login.obj
 0002:000026b0       ??_7CTextFilter@@6B@       004ae6b0     FilterText_StaticLib:FilterText.obj
 0002:000026c8       ??_7ITextFilter@@6B@       004ae6c8     FilterText_StaticLib:FilterText.obj
 0002:000026e0       ??_7CRegCompilerBase@@6B@  004ae6e0     FilterText_StaticLib:Regexp.obj
 0002:000026f4       ??_7CRegValidator@@6B@     004ae6f4     FilterText_StaticLib:Regexp.obj
 0002:00002708       ??_7CRegCompiler@@6B@      004ae708     FilterText_StaticLib:Regexp.obj
 0002:0000b5c8       __IMPORT_DESCRIPTOR_KERNEL32 004b75c8     kernel32:KERNEL32.dll
 0002:0000b5dc       __IMPORT_DESCRIPTOR_USER32 004b75dc     user32:USER32.dll
 0002:0000b5f0       __IMPORT_DESCRIPTOR_SHELL32 004b75f0     shell32:SHELL32.dll
 0002:0000b604       __IMPORT_DESCRIPTOR_WINMM  004b7604     Winmm:WINMM.dll
 0002:0000b618       __IMPORT_DESCRIPTOR_LuaLibDll 004b7618     lualibdll:LuaLibDll.dll
 0002:0000b62c       __IMPORT_DESCRIPTOR_Engine 004b762c     engine:Engine.dll
 0002:0000b640       __IMPORT_DESCRIPTOR_CoreClient 004b7640     CoreClient:CoreClient.dll
 0002:0000b654       __IMPORT_DESCRIPTOR_MSVCRT 004b7654     MSVCRT:MSVCRT.dll
 0002:0000b668       __IMPORT_DESCRIPTOR_MSVCP60 004b7668     msvcprt:MSVCP60.dll
 0002:0000b67c       __IMPORT_DESCRIPTOR_WS2_32 004b767c     ws2_32:WS2_32.dll
 0002:0000b690       __NULL_IMPORT_DESCRIPTOR   004b7690     kernel32:KERNEL32.dll
 0003:00000000       ___xc_a                    004ba000     MSVCRT:cinitexe.obj
 0003:0000006c       ___xc_z                    004ba06c     MSVCRT:cinitexe.obj
 0003:00000070       ___xi_a                    004ba070     MSVCRT:cinitexe.obj
 0003:00000074       ___xi_z                    004ba074     MSVCRT:cinitexe.obj
 0003:00000170       ?m_uDefBorderLineColor@KPopupMenu@@0IA 004ba170     PopupMenu.obj
 0003:00000174       ?m_uDefTextColor@KPopupMenu@@0IA 004ba174     PopupMenu.obj
 0003:00000178       ?m_uDefTextBorderColor@KPopupMenu@@0IA 004ba178     PopupMenu.obj
 0003:0000017c       ?m_uDefSelTextColor@KPopupMenu@@0IA 004ba17c     PopupMenu.obj
 0003:00000180       ?m_uDefSelTextBorderColor@KPopupMenu@@0IA 004ba180     PopupMenu.obj
 0003:00000184       ?m_uDefItemBgColor@KPopupMenu@@0IA 004ba184     PopupMenu.obj
 0003:00000188       ?m_uDefSelItemBgColor@KPopupMenu@@0IA 004ba188     PopupMenu.obj
 0003:00000370       ?ms_uBtnTipTextColor@KWndButton@@0IA 004ba370     WndButton.obj
 0003:00000750       ?l_BgColors@@3PAIA         004ba750     WndObjContainer.obj
 0003:000009c0       ?ms_nMoveSpeed@KWndShowAnimate@@0HA 004ba9c0     WndShowAnimate.obj
 0003:000009c4       ?ms_nFullRange@KWndShowAnimate@@0HA 004ba9c4     WndShowAnimate.obj
 0003:000009c8       ?ms_uMoveTimeInterval@KWndShowAnimate@@0IA 004ba9c8     WndShowAnimate.obj
 0003:00001198       ?m_one@GameWorld_DateTime@@2UKComClassInfo@@A 004bb198     UiPlayerBar.obj
 0003:00001c40       ?ls_ToggleOptionName@@3PAPBDA 004bbc40     UiOptions.obj
 0003:00002170       ?Array_AutoAttack@@3PAY0DC@DA 004bc170     UiAuto.obj
 0003:00002208       ?Array_PTTeam@@3PAY0DC@DA  004bc208     UiAuto.obj
 0003:000022a0       ?Data_Pick@@3PAY0EA@DA     004bc2a0     UiAuto.obj
 0003:000023a0       ?szArray_SelRoom@@3PAY0EA@DA 004bc3a0     UiAuto.obj
 0003:000024a0       ?Data_Magic@@3PAY11EA@DA   004bc4a0     UiAuto.obj
 0003:00006604       ?l_pGrupMenuItemTitle@@3PAPBDA 004c0604     UiChatCentre.obj
 0003:00006610       ?l_pFriendMenuItemTitle@@3PAPBDA 004c0610     UiChatCentre.obj
 0003:00007238       ?szArray_NormalPK@@3PAY0EA@DA 004c1238     UiToolsControlBar.obj
 0003:00007790       ?g_ActionName@@3PAY0CA@DA  004c1790     UiGame.obj
 0003:00007ba0       ?s_ModeName@@3PAPBDA       004c1ba0     UiMiniMap.obj
 0003:000095f0       ?l_WindowList@@3PAPADA     004c35f0     ShortcutKey.obj
 0003:00009640       ?l_StatusList@@3PAPADA     004c3640     ShortcutKey.obj
 0003:00009678       ?GameScriptFuns@@3PAUTLua_Funcs@@A 004c3678     ShortcutKey.obj
 0003:0000af24       ?$Main@@3PBDB              004c4f24     UiBase.obj
 0003:0000b368       ?m_one@Player_Life@@2UKComClassInfo@@A 004c5368     UiShell.obj
 0003:0000b38c       ?m_bText@Player_Life@@2_NA 004c538c     UiShell.obj
 0003:0000b390       ?m_one@Player_Mana@@2UKComClassInfo@@A 004c5390     UiShell.obj
 0003:0000b3b4       ?m_bText@Player_Mana@@2_NA 004c53b4     UiShell.obj
 0003:0000b3b8       ?m_one@Player_Stamina@@2UKComClassInfo@@A 004c53b8     UiShell.obj
 0003:0000b3dc       ?m_bText@Player_Stamina@@2_NA 004c53dc     UiShell.obj
 0003:0000b3e0       ?m_one@Player_Exp@@2UKComClassInfo@@A 004c53e0     UiShell.obj
 0003:0000b404       ?m_bText@Player_Exp@@2_NA  004c5404     UiShell.obj
 0003:0000b408       ?m_one@Player_Level@@2UKComClassInfo@@A 004c5408     UiShell.obj
 0003:0000b430       ?m_one@Player_WorldSort@@2UKComClassInfo@@A 004c5430     UiShell.obj
 0003:0000b458       ?m_one@Player_Status@@2UKComClassInfo@@A 004c5458     UiShell.obj
 0003:0000b480       ?m_one@Player_Items@@2UKComClassInfo@@A 004c5480     UiShell.obj
 0003:0000b4a8       ?m_one@Player_Skills@@2UKComClassInfo@@A 004c54a8     UiShell.obj
 0003:0000b4d0       ?m_one@Player_Team@@2UKComClassInfo@@A 004c54d0     UiShell.obj
 0003:0000b4f8       ?m_one@Player_Faction@@2UKComClassInfo@@A 004c54f8     UiShell.obj
 0003:0000b520       ?m_one@Player_Sit@@2UKComClassInfo@@A 004c5520     UiShell.obj
 0003:0000b548       ?m_one@Player_Run@@2UKComClassInfo@@A 004c5548     UiShell.obj
 0003:0000b570       ?m_one@Player_Horse@@2UKComClassInfo@@A 004c5570     UiShell.obj
 0003:0000b598       ?m_one@Player_Exchange@@2UKComClassInfo@@A 004c5598     UiShell.obj
 0003:0000b5c0       ?m_one@Player_PK@@2UKComClassInfo@@A 004c55c0     UiShell.obj
 0003:0000b5e8       ?m_one@Player_AT@@2UKComClassInfo@@A 004c55e8     UiShell.obj
 0003:0000b610       ?m_one@Player_KTC@@2UKComClassInfo@@A 004c5610     UiShell.obj
 0003:0000b638       ?m_one@Player_Auto@@2UKComClassInfo@@A 004c5638     UiShell.obj
 0003:0000b8d8       ?g_bScreen@@3HA            004c58d8     S3Client.obj
 0003:0000b8dc       ?g_szGameName@@3PADA       004c58dc     S3Client.obj
 0003:0000b8fc       ?TIpServer@@3PADA          004c58fc     S3Client.obj
 0003:0000b91c       ?TPortServer@@3HA          004c591c     S3Client.obj
 0003:0000b920       ?TLg@@3Ulinger@@A          004c5920     S3Client.obj
 0003:0000b924       ?TGo@@3KA                  004c5924     S3Client.obj
 0003:0000b928       ?TSocketClient1@@3IA       004c5928     S3Client.obj
 0003:0000b92c       ?TSocketClient2@@3IA       004c592c     S3Client.obj
 0003:0000b930       ?TSocketClient3@@3IA       004c5930     S3Client.obj
 0003:0000bdf0       ___defaultmatherr          004c5df0     MSVCRT:merr.obj
 0003:0000bdf8       ?errors@@3PAUregErr@@A     004c5df8     FilterText_StaticLib:Regexp.obj
 0003:0000cef8       ?g_MouseOver@@3VKMouseOver@@A 004c6ef8     MouseHover.obj
 0003:0000dc28       ?m_pMenu@KPopupMenu@@0PAUKPopupMenuData@@A 004c7c28     PopupMenu.obj
 0003:0000dc2c       ?m_pCaller@KPopupMenu@@0PAVKWndWindow@@A 004c7c2c     PopupMenu.obj
 0003:0000dc30       ?m_uCallerParam@KPopupMenu@@0IA 004c7c30     PopupMenu.obj
 0003:0000dc34       ?m_nImgWidth@KPopupMenu@@0FA 004c7c34     PopupMenu.obj
 0003:0000dc36       ?m_nImgHeight@KPopupMenu@@0FA 004c7c36     PopupMenu.obj
 0003:0000dc38       ?m_nIndent@KPopupMenu@@0FA 004c7c38     PopupMenu.obj
 0003:0000dc3a       ?m_nFrame@KPopupMenu@@0FA  004c7c3a     PopupMenu.obj
 0003:0000dc3c       ?m_nMenuHeight@KPopupMenu@@0HA 004c7c3c     PopupMenu.obj
 0003:0000dc40       ?m_szImage@KPopupMenu@@0PADA 004c7c40     PopupMenu.obj
 0003:0000ddd4       ?l_Time@@3IA               004c7dd4     UiImage.obj
 0003:0000ddd8       ?m_pPressedDownBtn@KWndButton@@0PAV1@A 004c7dd8     WndButton.obj
 0003:0000dddc       ?ms_nDisableBtnTip@KWndButton@@0HA 004c7ddc     WndButton.obj
 0003:0000dde8       ?m_pSelf@KWndChessPanel@@0PAV1@A 004c7de8     WndChessPanel.obj
 0003:0000e010       ?WND_SHOW_MOUSE_OVER_WND@@3HA 004c8010     Wnds.obj
 0003:0000e038       ?WND_SHOW_DEBUG_FRAME_TEXT@@3HA 004c8038     WndWindow.obj
 0003:0000e040       ?m_pSelf@KUiConnectInfo@@0PAV1@A 004c8040     UiConnectInfo.obj
 0003:0000e04c       ?m_pSelf@KUiLogin@@0PAV1@A 004c804c     UiLogin.obj
 0003:0000e054       ?m_pSelf@KUiLoginBackGround@@0PAV1@A 004c8054     UiLoginBg.obj
 0003:0000e060       ?m_pSelf@KUiSelServer@@0PAV1@A 004c8060     UiSelServer.obj
 0003:0000e06c       ?m_pSelf@KUiChatItem@@0PAV1@A 004c806c     UiChatItem.obj
 0003:0000e070       ?m_pSelf@KUiChooseFace@@0PAV1@A 004c8070     UiChooseFace.obj
 0003:0000e074       ?m_pSelf@KUiFaceSelector@@0PAV1@A 004c8074     UiFaceSelector.obj
 0003:0000e078       ?ms_pFaceList@KUiFaceSelector@@0PAUKFaceItem@1@A 004c8078     UiFaceSelector.obj
 0003:0000e07c       ?ms_nNumFaces@KUiFaceSelector@@0HA 004c807c     UiFaceSelector.obj
 0003:0000e08c       ?m_pSelf@KUiPlayerBar@@0PAV1@A 004c808c     UiPlayerBar.obj
 0003:0000e090       ?s_CanFocusColor@@3IA      004c8090     UiPlayerBar.obj
 0003:0000e094       ?s_NotCanFocusColor@@3IA   004c8094     UiPlayerBar.obj
 0003:0000e0ac       ?_Nil@?$_Tree@V?$basic_string@DU?$char_traits@D@std@@V?$allocator@D@2@@std@@U?$pair@$$CBV?$basic_string@DU?$char_traits@D@std@@V?$allocator@D@2@@std@@UShortFuncInfo@@@2@U_Kfn@?$map@V?$basic_string@DU?$char_traits@D@std@@V?$allocator@D@2@@std@@UShortFuncInfo@@Ustring_iless@@V?$allocator@UShortFuncInfo@@@2@@2@Ustring_iless@@V?$allocator@UShortFuncInfo@@@2@@std@@1PAU_Node@12@A 004c80ac     UiPlayerBar.obj
 0003:0000e0b0       ?m_pSelf@KUiPlayerControlBar@@0PAV1@A 004c80b0     UiPlayerControlBar.obj
 0003:0000e0c0       ?m_pSelf@KUiStatus@@0PAV1@A 004c80c0     UiStatus.obj
 0003:0000e0cc       ?m_pSelf@KUiOptions@@0PAV1@A 004c80cc     UiOptions.obj
 0003:0000e0e0       ?m_pSelf@KUiInit@@0PAV1@A  004c80e0     UiInit.obj
 0003:0000e0f4       ?m_pSelf@KBuySelectItemShop@@0PAV1@A 004c80f4     BuySlectItemShop.obj
 0003:0000e104       ?m_pSelf@KUiKtc@@0PAV1@A   004c8104     KUiKtc.obj
 0003:0000e108       ?m_pNearbyPlayersList@@3PAUKUiPlayerItem@@A 004c8108     UiAuto.obj
 0003:0000e10c       ?m_pSelf@KUiAuto@@0PAV1@A  004c810c     UiAuto.obj
 0003:0000e120       ?m_pSelf@KUiBuyShop@@0PAV1@A 004c8120     UiBuyShop.obj
 0003:0000e124       ?m_pSelf@KUiCheckItemBox@@0PAV1@A 004c8124     UiCheckItemBox.obj
 0003:0000e128       ?m_pSelf@KUiGetMoney@@0PAV1@A 004c8128     UiGetMoney.obj
 0003:0000e12c       ?m_pSelf@KUiItem@@0PAV1@A  004c812c     UiItem.obj
 0003:0000e140       ?m_pSelf@KUiLoginPWStoreBox@@0PAV1@A 004c8140     UiLoginPWStoreBox.obj
 0003:0000e14c       ?m_pSelf@KUiNewPWStoreBox@@0PAV1@A 004c814c     UiNewPWStoreBox.obj
 0003:0000e158       ?m_pSelf@KUiPGBoxItem@@0PAV1@A 004c8158     UiPGBoxItem.obj
 0003:0000e15c       ?m_pSelf@KUiPWStoreBox@@0PAV1@A 004c815c     UiPWStoreBox.obj
 0003:0000e16c       ?m_pSelf@KUiRPNewBox@@0PAV1@A 004c816c     UiRPNewBox.obj
 0003:0000e170       ?m_pSelf@KUiShopName@@0PAV1@A 004c8170     UiShopName.obj
 0003:0000e178       ?m_pSelf@KUiShopPrice@@0PAV1@A 004c8178     UiShopPrice.obj
 0003:0000e17c       ?m_pSelf@KUiSkills@@0PAV1@A 004c817c     UiSkills.obj
 0003:0000e190       ?ms_ShortcutSkills@KUiSkillTree@@0PAUKUiSkillData@@A 004c8190     UiSkillTree.obj
 0003:0000e220       ?m_pSelf@KUiSkillTree@@0PAV1@A 004c8220     UiSkillTree.obj
 0003:0000e228       ?m_pSelf@KUiSlectBoxCheck@@0PAV1@A 004c8228     UiSlectBoxCheck.obj
 0003:0000e244       ?m_pSelf@KUiStaskItem@@0PAV1@A 004c8244     UiStaskItem.obj
 0003:0000e250       ?m_pSelf@KUiStoreBox@@0PAV1@A 004c8250     UiStoreBox.obj
 0003:0000e25c       ?m_pSelf@KUiStringBox@@0PAV1@A 004c825c     UiStringBox.obj
 0003:0000e264       ?ms_pSelf@KUiTopTKNew@@0PAV1@A 004c8264     UiTopTKNew.obj
 0003:0000e3ac       ?m_pSelf@KUiESCDlg@@0PAV1@A 004c83ac     UiESCDlg.obj
 0003:0000e3b0       ?m_pSelf@KUiGetString@@0PAV1@A 004c83b0     UiGetString.obj
 0003:0000e3b8       ?m_pSelf@KUiGetString3@@0PAV1@A 004c83b8     UiGetString3.obj
 0003:0000e3bc       ?m_pSelf@KUiMsgSel@@0PAV1@A 004c83bc     UiMsgSel.obj
 0003:0000e3c0       ?m_pSelf@KUiParadeItem@@0PAV1@A 004c83c0     UiParadeItem.obj
 0003:0000e3cc       ?m_pSelf@KUiSelPlayerNearby@@0PAV1@A 004c83cc     UiSelPlayerNearby.obj
 0003:0000e3d4       ?m_pSelf@KUiNewPlayer@@0PAV1@A 004c83d4     UiNewPlayer.obj
 0003:0000e3fc       ?m_pSelf@KUiSelNativePlace@@0PAV1@A 004c83fc     UiSelNativePlace.obj
 0003:0000e410       ?m_pSelf@KUiSelPlayer@@0PAV1@A 004c8410     UiSelPlayer.obj
 0003:0000e428       ?ms_SNotify@KUiChatCentre@@0UServerNotify@@A 004c8428     UiChatCentre.obj
 0003:0000e430       ?m_pSelf@KUiChatCentre@@0PAV1@A 004c8430     UiChatCentre.obj
 0003:0000e458       ?_Nil@?$_Tree@V?$basic_string@DU?$char_traits@D@std@@V?$allocator@D@2@@std@@U?$pair@$$CBV?$basic_string@DU?$char_traits@D@std@@V?$allocator@D@2@@std@@V12@@2@U_Kfn@?$map@V?$basic_string@DU?$char_traits@D@std@@V?$allocator@D@2@@std@@V12@U?$less@V?$basic_string@DU?$char_traits@D@std@@V?$allocator@D@2@@std@@@2@V?$allocator@V?$basic_string@DU?$char_traits@D@std@@V?$allocator@D@2@@std@@@2@@2@U?$less@V?$basic_string@DU?$char_traits@D@std@@V?$allocator@D@2@@std@@@2@V?$allocator@V?$basic_string@DU?$char_traits@D@std@@V?$allocator@D@2@@std@@@2@@std@@1PAU_Node@12@A 004c8458     UiChatCentre.obj
 0003:0000e45c       ?_Nilrefs@?$_Tree@V?$basic_string@DU?$char_traits@D@std@@V?$allocator@D@2@@std@@U?$pair@$$CBV?$basic_string@DU?$char_traits@D@std@@V?$allocator@D@2@@std@@V12@@2@U_Kfn@?$map@V?$basic_string@DU?$char_traits@D@std@@V?$allocator@D@2@@std@@V12@U?$less@V?$basic_string@DU?$char_traits@D@std@@V?$allocator@D@2@@std@@@2@V?$allocator@V?$basic_string@DU?$char_traits@D@std@@V?$allocator@D@2@@std@@@2@@2@U?$less@V?$basic_string@DU?$char_traits@D@std@@V?$allocator@D@2@@std@@@2@V?$allocator@V?$basic_string@DU?$char_traits@D@std@@V?$allocator@D@2@@std@@@2@@std@@1IA 004c845c     UiChatCentre.obj
 0003:0000e460       ?_Nil@?$_Tree@V?$basic_string@DU?$char_traits@D@std@@V?$allocator@D@2@@std@@U?$pair@$$CBV?$basic_string@DU?$char_traits@D@std@@V?$allocator@D@2@@std@@E@2@U_Kfn@?$map@V?$basic_string@DU?$char_traits@D@std@@V?$allocator@D@2@@std@@EU?$less@V?$basic_string@DU?$char_traits@D@std@@V?$allocator@D@2@@std@@@2@V?$allocator@E@2@@2@U?$less@V?$basic_string@DU?$char_traits@D@std@@V?$allocator@D@2@@std@@@2@V?$allocator@E@2@@std@@1PAU_Node@12@A 004c8460     UiChatCentre.obj
 0003:0000e464       ?_Nilrefs@?$_Tree@V?$basic_string@DU?$char_traits@D@std@@V?$allocator@D@2@@std@@U?$pair@$$CBV?$basic_string@DU?$char_traits@D@std@@V?$allocator@D@2@@std@@E@2@U_Kfn@?$map@V?$basic_string@DU?$char_traits@D@std@@V?$allocator@D@2@@std@@EU?$less@V?$basic_string@DU?$char_traits@D@std@@V?$allocator@D@2@@std@@@2@V?$allocator@E@2@@2@U?$less@V?$basic_string@DU?$char_traits@D@std@@V?$allocator@D@2@@std@@@2@V?$allocator@E@2@@std@@1IA 004c8464     UiChatCentre.obj
 0003:0000e468       ?g_UiChatPhrase@@3VKUiChatPhrase@@A 004c8468     UiChatPhrase.obj
 0003:0000e738       ?m_pSelf@KUiChatStatus@@0PAV1@A 004c8738     UiChatStatus.obj
 0003:0000e740       ?g_UiInformation@@3VKUiInformation@@A 004c8740     UiInformation.obj
 0003:0000ebf8       ?g_UiInformation2@@3VKUiInformation2@@A 004c8bf8     UiInformation2.obj
 0003:0000ef9c       ?m_pSelf@KUiTeamManage@@0PAV1@A 004c8f9c     UiTeamManage.obj
 0003:0000efa0       ?m_pSelf@KUiHeaderControlBar@@0PAV1@A 004c8fa0     UiHeaderControlBar.obj
 0003:0000efac       ?m_pSelf@KUiMsgCentrePad@@0PAV1@A 004c8fac     UiMsgCentrePad.obj
 0003:0000efb0       ?ms_DefaultWidth@KUiMsgCentrePad@@0HA 004c8fb0     UiMsgCentrePad.obj
 0003:0000efb4       ?ms_DefaultHeight@KUiMsgCentrePad@@0HA 004c8fb4     UiMsgCentrePad.obj
 0003:0000f024       ?m_pSelf@KUiToolsControlBar@@0PAV1@A 004c9024     UiToolsControlBar.obj
 0003:0000f028       ?m_pSelf@KUiShop@@0PAV1@A  004c9028     UiShop.obj
 0003:0000f02c       ?m_pSelf@KUiShopGold@@0PAV1@A 004c902c     UiShopGold.obj
 0003:0000f030       ?m_pSelf@KUiTrade@@0PAV1@A 004c9030     UiTrade.obj
 0003:0000f050       ?m_pSelf@KUiTradeConfirm@@0PAV1@A 004c9050     UiTradeConfirmWnd.obj
 0003:0000f068       ?g_WndGameSpace@@3VKUiGameSpace@@A 004c9068     UiGame.obj
 0003:0000f0d8       ?m_pSelf@KUiSysMsgCentre@@0PAV1@A 004c90d8     UiSysMsgCentre.obj
 0003:0000f0f0       ?m_pSelf@KUiFindPos@@0PAV1@A 004c90f0     UiFindPos.obj
 0003:0000f0f4       ?m_pSelf@KUiMapCave@@0PAV1@A 004c90f4     UiMapCave.obj
 0003:0000f0fc       ?m_pSelf@KUiMarket@@0PAV1@A 004c90fc     UiMarket.obj
 0003:0000f100       ?ms_pSelf@KUiMiniMap@@0PAV1@A 004c9100     UiMiniMap.obj
 0003:0000f110       ?m_MenuData@KUiSelColor@@0PAEA 004c9110     UiSelColor.obj
 0003:0000f4d4       ?m_pSelf@KUiNewPlayerStartMsg@@0PAV1@A 004c94d4     UiNewPlayerStartMsg.obj
 0003:0000f4d8       ?m_pSelf@KUiPlayVideo@@0PAV1@A 004c94d8     UiPlayVideo.obj
 0003:0000f4dc       ?m_pSelf@KUiHelper@@0PAV1@A 004c94dc     UiHelper.obj
 0003:0000f4e0       ?ms_nImgFrame@KUiHelper@@0HA 004c94e0     UiHelper.obj
 0003:0000f4ec       ?m_pSelf@KUiHelper2@@0PAV1@A 004c94ec     UiHelper2.obj
 0003:0000f50c       ?m_pSelf@KReconnectWnd@@0PAV1@A 004c950c     UiReconnect.obj
 0003:0000f510       ?ms_pPersonalRecord@KTaskDataFile@@0PAUKPersonalRecord@1@A 004c9510     UiTaskDataFile.obj
 0003:0000f514       ?ms_pSystemRecordList@KTaskDataFile@@0PAUKTaskSystemRecordNode@1@A 004c9514     UiTaskDataFile.obj
 0003:0000f518       ?ms_nSystemRecordCount@KTaskDataFile@@0HA 004c9518     UiTaskDataFile.obj
 0003:0000f51c       ?ms_pBindRecordList@KTaskDataFile@@0PAUKTaskBindRecordNode@1@A 004c951c     UiTaskDataFile.obj
 0003:0000f520       ?ms_nBindRecordCount@KTaskDataFile@@0HA 004c9520     UiTaskDataFile.obj
 0003:0000f524       ?m_pSelf@KUiTaskNote@@0PAV1@A 004c9524     UiTaskNote.obj
 0003:0000f528       ?m_pSelf@KUiWorldmap@@0PAV1@A 004c9528     UiWorldMap.obj
 0003:0000f534       ?m_pSelf@KUiNewsMessage@@0PAV1@A 004c9534     UiNewsMessage.obj
 0003:0000f538       ?ms_bEnableIdleMsg@KUiNewsMessage@@0HA 004c9538     UiNewsMessage.obj
 0003:0000f544       ?m_pSelf@KUiNewsMessage1@@0PAV1@A 004c9544     UiNewsMessage1.obj
 0003:0000f548       ?ms_bEnableIdleMsg@KUiNewsMessage1@@0HA 004c9548     UiNewsMessage1.obj
 0003:0000f558       ?m_IndexIDIni@KUiStrengthRank@@0VKIniFile@@A 004c9558     UiStrengthRank.obj
 0003:0000f5b0       ?m_RankData@KUiStrengthRank@@0V?$KLinkStruct@UKRankNode@@@@A 004c95b0     UiStrengthRank.obj
 0003:0000f5d0       ?m_IndexData@KUiStrengthRank@@0V?$KLinkStruct@UKRankIndexNode@@@@A 004c95d0     UiStrengthRank.obj
 0003:0000f5ec       ?m_pSelf@KUiStrengthRank@@0PAV1@A 004c95ec     UiStrengthRank.obj
 0003:0000f5f0       ?m_bIsIndexDataChange@KUiStrengthRank@@0HA 004c95f0     UiStrengthRank.obj
 0003:0000f5f4       ?m_bIsRankDataChange@KUiStrengthRank@@0HA 004c95f4     UiStrengthRank.obj
